ARM GAS  C:\Users\jens1\AppData\Local\Temp\cc3LOES1.s 			page 1


   1              		.syntax unified
   2              		.cpu cortex-m3
   3              		.fpu softvfp
   4              		.eabi_attribute 20, 1
   5              		.eabi_attribute 21, 1
   6              		.eabi_attribute 23, 3
   7              		.eabi_attribute 24, 1
   8              		.eabi_attribute 25, 1
   9              		.eabi_attribute 26, 1
  10              		.eabi_attribute 30, 1
  11              		.eabi_attribute 34, 1
  12              		.eabi_attribute 18, 4
  13              		.thumb
  14              		.syntax unified
  15              		.file	"MotorDriver.c"
  16              		.text
  17              	.Ltext0:
  18              		.cfi_sections	.debug_frame
  19              		.section	.text.stepper_isr_handler,"ax",%progbits
  20              		.align	2
  21              		.global	stepper_isr_handler
  22              		.thumb
  23              		.thumb_func
  24              		.type	stepper_isr_handler, %function
  25              	stepper_isr_handler:
  26              	.LFB63:
  27              		.file 1 "MotorDriver.c"
   1:MotorDriver.c **** /* ========================================
   2:MotorDriver.c ****  *
   3:MotorDriver.c ****  * Copyright YOUR COMPANY, THE YEAR
   4:MotorDriver.c ****  * All Rights Reserved
   5:MotorDriver.c ****  * UNPUBLISHED, LICENSED SOFTWARE.
   6:MotorDriver.c ****  *
   7:MotorDriver.c ****  * CONFIDENTIAL AND PROPRIETARY INFORMATION
   8:MotorDriver.c ****  * WHICH IS THE PROPERTY OF your company.
   9:MotorDriver.c ****  *
  10:MotorDriver.c ****  * ========================================
  11:MotorDriver.c **** */
  12:MotorDriver.c **** #include "MotorDriver.h"
  13:MotorDriver.c **** #include <math.h>
  14:MotorDriver.c **** 
  15:MotorDriver.c **** CY_ISR(stepper_isr_handler) {
  28              		.loc 1 15 0
  29              		.cfi_startproc
  30              		@ args = 0, pretend = 0, frame = 0
  31              		@ frame_needed = 0, uses_anonymous_args = 0
  32 0000 08B5     		push	{r3, lr}
  33              		.cfi_def_cfa_offset 8
  34              		.cfi_offset 3, -8
  35              		.cfi_offset 14, -4
  16:MotorDriver.c ****     Timer_StepperX_Stop();
  36              		.loc 1 16 0
  37 0002 FFF7FEFF 		bl	Timer_StepperX_Stop
  38              	.LVL0:
  17:MotorDriver.c ****     timerDoneFlag = 1;
  39              		.loc 1 17 0
  40 0006 0122     		movs	r2, #1
ARM GAS  C:\Users\jens1\AppData\Local\Temp\cc3LOES1.s 			page 2


  41 0008 014B     		ldr	r3, .L3
  42 000a 1A70     		strb	r2, [r3]
  43 000c 08BD     		pop	{r3, pc}
  44              	.L4:
  45 000e 00BF     		.align	2
  46              	.L3:
  47 0010 00000000 		.word	timerDoneFlag
  48              		.cfi_endproc
  49              	.LFE63:
  50              		.size	stepper_isr_handler, .-stepper_isr_handler
  51              		.section	.text.moveStepX,"ax",%progbits
  52              		.align	2
  53              		.thumb
  54              		.thumb_func
  55              		.type	moveStepX, %function
  56              	moveStepX:
  57              	.LFB67:
  18:MotorDriver.c **** }
  19:MotorDriver.c **** 
  20:MotorDriver.c **** void initX() {
  21:MotorDriver.c ****     Pin_X1_Write(0);
  22:MotorDriver.c ****     Pin_X2_Write(0);
  23:MotorDriver.c ****     
  24:MotorDriver.c ****     stepper_isr_StartEx(stepper_isr_handler);
  25:MotorDriver.c ****     timerDoneFlag = 0;
  26:MotorDriver.c ****     
  27:MotorDriver.c ****     resetPositionX();
  28:MotorDriver.c **** }
  29:MotorDriver.c **** 
  30:MotorDriver.c **** static void rotateClockwiseX() {
  31:MotorDriver.c ****     if(stepperStateX == WEST) { 
  32:MotorDriver.c ****         stepperStateX = NORTH;
  33:MotorDriver.c ****     }
  34:MotorDriver.c ****     else {
  35:MotorDriver.c ****         ++stepperStateX;
  36:MotorDriver.c ****     }
  37:MotorDriver.c ****     moveStepX();
  38:MotorDriver.c ****     ++stepperPositionX;
  39:MotorDriver.c ****     
  40:MotorDriver.c ****     UART_1_PutString("Rotated clockwise once\n\r");
  41:MotorDriver.c **** }
  42:MotorDriver.c **** 
  43:MotorDriver.c **** static void rotateCounterClockwiseX() {
  44:MotorDriver.c ****     if(stepperStateX == NORTH) {
  45:MotorDriver.c ****         stepperStateX = WEST;
  46:MotorDriver.c ****     }
  47:MotorDriver.c ****     else {
  48:MotorDriver.c ****         --stepperStateX;
  49:MotorDriver.c ****     }
  50:MotorDriver.c ****     moveStepX();
  51:MotorDriver.c ****     --stepperPositionX;
  52:MotorDriver.c **** }
  53:MotorDriver.c **** 
  54:MotorDriver.c **** static void moveStepX() {
  58              		.loc 1 54 0
  59              		.cfi_startproc
  60              		@ args = 0, pretend = 0, frame = 0
ARM GAS  C:\Users\jens1\AppData\Local\Temp\cc3LOES1.s 			page 3


  61              		@ frame_needed = 0, uses_anonymous_args = 0
  62 0000 08B5     		push	{r3, lr}
  63              		.cfi_def_cfa_offset 8
  64              		.cfi_offset 3, -8
  65              		.cfi_offset 14, -4
  55:MotorDriver.c ****     if(stepperStateX == NORTH) {
  66              		.loc 1 55 0
  67 0002 124B     		ldr	r3, .L11
  68 0004 1B78     		ldrb	r3, [r3]	@ zero_extendqisi2
  69 0006 33B9     		cbnz	r3, .L6
  56:MotorDriver.c ****         Pin_X1_Write(0);
  70              		.loc 1 56 0
  71 0008 0020     		movs	r0, #0
  72 000a FFF7FEFF 		bl	Pin_X1_Write
  73              	.LVL1:
  57:MotorDriver.c ****         Pin_X2_Write(0);
  74              		.loc 1 57 0
  75 000e 0020     		movs	r0, #0
  76 0010 FFF7FEFF 		bl	Pin_X2_Write
  77              	.LVL2:
  78 0014 08BD     		pop	{r3, pc}
  79              	.L6:
  58:MotorDriver.c ****     }
  59:MotorDriver.c ****     else if(stepperStateX == EAST) {
  80              		.loc 1 59 0
  81 0016 012B     		cmp	r3, #1
  82 0018 06D1     		bne	.L8
  60:MotorDriver.c ****         Pin_X1_Write(1);
  83              		.loc 1 60 0
  84 001a 0120     		movs	r0, #1
  85 001c FFF7FEFF 		bl	Pin_X1_Write
  86              	.LVL3:
  61:MotorDriver.c ****         Pin_X2_Write(0);
  87              		.loc 1 61 0
  88 0020 0020     		movs	r0, #0
  89 0022 FFF7FEFF 		bl	Pin_X2_Write
  90              	.LVL4:
  91 0026 08BD     		pop	{r3, pc}
  92              	.L8:
  62:MotorDriver.c ****     }
  63:MotorDriver.c ****     else if(stepperStateX == SOUTH) {
  93              		.loc 1 63 0
  94 0028 022B     		cmp	r3, #2
  95 002a 06D1     		bne	.L9
  64:MotorDriver.c ****         Pin_X1_Write(1);
  96              		.loc 1 64 0
  97 002c 0120     		movs	r0, #1
  98 002e FFF7FEFF 		bl	Pin_X1_Write
  99              	.LVL5:
  65:MotorDriver.c ****         Pin_X2_Write(1);
 100              		.loc 1 65 0
 101 0032 0120     		movs	r0, #1
 102 0034 FFF7FEFF 		bl	Pin_X2_Write
 103              	.LVL6:
 104 0038 08BD     		pop	{r3, pc}
 105              	.L9:
  66:MotorDriver.c ****     }
ARM GAS  C:\Users\jens1\AppData\Local\Temp\cc3LOES1.s 			page 4


  67:MotorDriver.c ****     else if(stepperStateX == WEST) {
 106              		.loc 1 67 0
 107 003a 032B     		cmp	r3, #3
 108 003c 05D1     		bne	.L5
  68:MotorDriver.c ****         Pin_X1_Write(0);
 109              		.loc 1 68 0
 110 003e 0020     		movs	r0, #0
 111 0040 FFF7FEFF 		bl	Pin_X1_Write
 112              	.LVL7:
  69:MotorDriver.c ****         Pin_X2_Write(1);
 113              		.loc 1 69 0
 114 0044 0120     		movs	r0, #1
 115 0046 FFF7FEFF 		bl	Pin_X2_Write
 116              	.LVL8:
 117              	.L5:
 118 004a 08BD     		pop	{r3, pc}
 119              	.L12:
 120              		.align	2
 121              	.L11:
 122 004c 00000000 		.word	stepperStateX
 123              		.cfi_endproc
 124              	.LFE67:
 125              		.size	moveStepX, .-moveStepX
 126              		.section	.text.rotateCounterClockwiseX,"ax",%progbits
 127              		.align	2
 128              		.thumb
 129              		.thumb_func
 130              		.type	rotateCounterClockwiseX, %function
 131              	rotateCounterClockwiseX:
 132              	.LFB66:
  43:MotorDriver.c ****     if(stepperStateX == NORTH) {
 133              		.loc 1 43 0
 134              		.cfi_startproc
 135              		@ args = 0, pretend = 0, frame = 0
 136              		@ frame_needed = 0, uses_anonymous_args = 0
 137 0000 08B5     		push	{r3, lr}
 138              		.cfi_def_cfa_offset 8
 139              		.cfi_offset 3, -8
 140              		.cfi_offset 14, -4
  44:MotorDriver.c ****         stepperStateX = WEST;
 141              		.loc 1 44 0
 142 0002 084B     		ldr	r3, .L17
 143 0004 1B78     		ldrb	r3, [r3]	@ zero_extendqisi2
 144 0006 1BB9     		cbnz	r3, .L14
  45:MotorDriver.c ****     }
 145              		.loc 1 45 0
 146 0008 0322     		movs	r2, #3
 147 000a 064B     		ldr	r3, .L17
 148 000c 1A70     		strb	r2, [r3]
 149 000e 02E0     		b	.L15
 150              	.L14:
  48:MotorDriver.c ****     }
 151              		.loc 1 48 0
 152 0010 013B     		subs	r3, r3, #1
 153 0012 044A     		ldr	r2, .L17
 154 0014 1370     		strb	r3, [r2]
 155              	.L15:
ARM GAS  C:\Users\jens1\AppData\Local\Temp\cc3LOES1.s 			page 5


  50:MotorDriver.c ****     --stepperPositionX;
 156              		.loc 1 50 0
 157 0016 FFF7FEFF 		bl	moveStepX
 158              	.LVL9:
  51:MotorDriver.c **** }
 159              		.loc 1 51 0
 160 001a 034A     		ldr	r2, .L17+4
 161 001c 1368     		ldr	r3, [r2]
 162 001e 013B     		subs	r3, r3, #1
 163 0020 1360     		str	r3, [r2]
 164 0022 08BD     		pop	{r3, pc}
 165              	.L18:
 166              		.align	2
 167              	.L17:
 168 0024 00000000 		.word	stepperStateX
 169 0028 00000000 		.word	stepperPositionX
 170              		.cfi_endproc
 171              	.LFE66:
 172              		.size	rotateCounterClockwiseX, .-rotateCounterClockwiseX
 173              		.section	.text.resetPositionX,"ax",%progbits
 174              		.align	2
 175              		.thumb
 176              		.thumb_func
 177              		.type	resetPositionX, %function
 178              	resetPositionX:
 179              	.LFB69:
  70:MotorDriver.c ****     }
  71:MotorDriver.c **** }
  72:MotorDriver.c **** 
  73:MotorDriver.c **** void moveDegreesX(int deg) { //Positivt antal grader skrives hvis armen skal køre med uret og nega
  74:MotorDriver.c **** //    UART_1_PutString("Starting moveDegreesX function...\n\r");
  75:MotorDriver.c ****     float round1 = deg / 0.9; //Grader divideret med stepvinkel = antal steps der skal køres
  76:MotorDriver.c ****     int steps = (int)round(round1); //Afrund antallet af steps
  77:MotorDriver.c ****     
  78:MotorDriver.c ****     if(steps > 0) {
  79:MotorDriver.c ****         for(int i = 0; i < steps; i++) {
  80:MotorDriver.c ****             Timer_StepperX_Start();
  81:MotorDriver.c **** //            UART_1_PutString("Starting timer\n\r");
  82:MotorDriver.c ****             while(timerDoneFlag == 0); //wait here
  83:MotorDriver.c ****             rotateClockwiseX();
  84:MotorDriver.c ****             timerDoneFlag = 0;
  85:MotorDriver.c ****         }
  86:MotorDriver.c ****     }
  87:MotorDriver.c ****     else if(steps < 0) {
  88:MotorDriver.c ****         if(steps < (stepperPositionX * -1)) {    //Hvis antallet af steps der skal køres tilbage e
  89:MotorDriver.c ****             resetPositionX();
  90:MotorDriver.c ****         }
  91:MotorDriver.c ****         else if(steps > (stepperPositionX * -1)) {
  92:MotorDriver.c ****             for(int i = 0; i > steps; i--) {
  93:MotorDriver.c ****                 Timer_StepperX_Start();
  94:MotorDriver.c ****                 while(timerDoneFlag == 0);
  95:MotorDriver.c ****                 rotateCounterClockwiseX();
  96:MotorDriver.c ****                 timerDoneFlag = 0;
  97:MotorDriver.c ****             }
  98:MotorDriver.c ****         }
  99:MotorDriver.c ****     }
 100:MotorDriver.c **** }
ARM GAS  C:\Users\jens1\AppData\Local\Temp\cc3LOES1.s 			page 6


 101:MotorDriver.c **** 
 102:MotorDriver.c **** static void resetPositionX() {
 180              		.loc 1 102 0
 181              		.cfi_startproc
 182              		@ args = 0, pretend = 0, frame = 0
 183              		@ frame_needed = 0, uses_anonymous_args = 0
 184 0000 08B5     		push	{r3, lr}
 185              		.cfi_def_cfa_offset 8
 186              		.cfi_offset 3, -8
 187              		.cfi_offset 14, -4
 103:MotorDriver.c ****     while(Pin_X3_Read() == 1) {
 188              		.loc 1 103 0
 189 0002 0AE0     		b	.L20
 190              	.L22:
 104:MotorDriver.c ****         Timer_StepperX_Start();
 191              		.loc 1 104 0
 192 0004 FFF7FEFF 		bl	Timer_StepperX_Start
 193              	.LVL10:
 194              	.L21:
 105:MotorDriver.c ****         while(timerDoneFlag == 0);
 195              		.loc 1 105 0 discriminator 1
 196 0008 094B     		ldr	r3, .L24
 197 000a 1B78     		ldrb	r3, [r3]	@ zero_extendqisi2
 198 000c 002B     		cmp	r3, #0
 199 000e FBD0     		beq	.L21
 106:MotorDriver.c ****         rotateCounterClockwiseX();
 200              		.loc 1 106 0
 201 0010 FFF7FEFF 		bl	rotateCounterClockwiseX
 202              	.LVL11:
 107:MotorDriver.c ****         timerDoneFlag = 0;
 203              		.loc 1 107 0
 204 0014 0022     		movs	r2, #0
 205 0016 064B     		ldr	r3, .L24
 206 0018 1A70     		strb	r2, [r3]
 207              	.L20:
 103:MotorDriver.c ****         Timer_StepperX_Start();
 208              		.loc 1 103 0
 209 001a FFF7FEFF 		bl	Pin_X3_Read
 210              	.LVL12:
 211 001e 0128     		cmp	r0, #1
 212 0020 F0D0     		beq	.L22
 108:MotorDriver.c ****     }
 109:MotorDriver.c ****     stepperPositionX = 0;
 213              		.loc 1 109 0
 214 0022 0022     		movs	r2, #0
 215 0024 034B     		ldr	r3, .L24+4
 216 0026 1A60     		str	r2, [r3]
 110:MotorDriver.c ****     UART_1_PutString("Stepper reset\n\r");
 217              		.loc 1 110 0
 218 0028 0348     		ldr	r0, .L24+8
 219 002a FFF7FEFF 		bl	UART_1_PutString
 220              	.LVL13:
 221 002e 08BD     		pop	{r3, pc}
 222              	.L25:
 223              		.align	2
 224              	.L24:
 225 0030 00000000 		.word	timerDoneFlag
ARM GAS  C:\Users\jens1\AppData\Local\Temp\cc3LOES1.s 			page 7


 226 0034 00000000 		.word	stepperPositionX
 227 0038 00000000 		.word	.LC0
 228              		.cfi_endproc
 229              	.LFE69:
 230              		.size	resetPositionX, .-resetPositionX
 231              		.section	.text.rotateClockwiseX,"ax",%progbits
 232              		.align	2
 233              		.thumb
 234              		.thumb_func
 235              		.type	rotateClockwiseX, %function
 236              	rotateClockwiseX:
 237              	.LFB65:
  30:MotorDriver.c ****     if(stepperStateX == WEST) { 
 238              		.loc 1 30 0
 239              		.cfi_startproc
 240              		@ args = 0, pretend = 0, frame = 0
 241              		@ frame_needed = 0, uses_anonymous_args = 0
 242 0000 08B5     		push	{r3, lr}
 243              		.cfi_def_cfa_offset 8
 244              		.cfi_offset 3, -8
 245              		.cfi_offset 14, -4
  31:MotorDriver.c ****         stepperStateX = NORTH;
 246              		.loc 1 31 0
 247 0002 0A4B     		ldr	r3, .L30
 248 0004 1B78     		ldrb	r3, [r3]	@ zero_extendqisi2
 249 0006 032B     		cmp	r3, #3
 250 0008 03D1     		bne	.L27
  32:MotorDriver.c ****     }
 251              		.loc 1 32 0
 252 000a 0022     		movs	r2, #0
 253 000c 074B     		ldr	r3, .L30
 254 000e 1A70     		strb	r2, [r3]
 255 0010 02E0     		b	.L28
 256              	.L27:
  35:MotorDriver.c ****     }
 257              		.loc 1 35 0
 258 0012 0133     		adds	r3, r3, #1
 259 0014 054A     		ldr	r2, .L30
 260 0016 1370     		strb	r3, [r2]
 261              	.L28:
  37:MotorDriver.c ****     ++stepperPositionX;
 262              		.loc 1 37 0
 263 0018 FFF7FEFF 		bl	moveStepX
 264              	.LVL14:
  38:MotorDriver.c ****     
 265              		.loc 1 38 0
 266 001c 044A     		ldr	r2, .L30+4
 267 001e 1368     		ldr	r3, [r2]
 268 0020 0133     		adds	r3, r3, #1
 269 0022 1360     		str	r3, [r2]
  40:MotorDriver.c **** }
 270              		.loc 1 40 0
 271 0024 0348     		ldr	r0, .L30+8
 272 0026 FFF7FEFF 		bl	UART_1_PutString
 273              	.LVL15:
 274 002a 08BD     		pop	{r3, pc}
 275              	.L31:
ARM GAS  C:\Users\jens1\AppData\Local\Temp\cc3LOES1.s 			page 8


 276              		.align	2
 277              	.L30:
 278 002c 00000000 		.word	stepperStateX
 279 0030 00000000 		.word	stepperPositionX
 280 0034 10000000 		.word	.LC1
 281              		.cfi_endproc
 282              	.LFE65:
 283              		.size	rotateClockwiseX, .-rotateClockwiseX
 284              		.section	.text.initX,"ax",%progbits
 285              		.align	2
 286              		.global	initX
 287              		.thumb
 288              		.thumb_func
 289              		.type	initX, %function
 290              	initX:
 291              	.LFB64:
  20:MotorDriver.c ****     Pin_X1_Write(0);
 292              		.loc 1 20 0
 293              		.cfi_startproc
 294              		@ args = 0, pretend = 0, frame = 0
 295              		@ frame_needed = 0, uses_anonymous_args = 0
 296 0000 08B5     		push	{r3, lr}
 297              		.cfi_def_cfa_offset 8
 298              		.cfi_offset 3, -8
 299              		.cfi_offset 14, -4
  21:MotorDriver.c ****     Pin_X2_Write(0);
 300              		.loc 1 21 0
 301 0002 0020     		movs	r0, #0
 302 0004 FFF7FEFF 		bl	Pin_X1_Write
 303              	.LVL16:
  22:MotorDriver.c ****     
 304              		.loc 1 22 0
 305 0008 0020     		movs	r0, #0
 306 000a FFF7FEFF 		bl	Pin_X2_Write
 307              	.LVL17:
  24:MotorDriver.c ****     timerDoneFlag = 0;
 308              		.loc 1 24 0
 309 000e 0448     		ldr	r0, .L34
 310 0010 FFF7FEFF 		bl	stepper_isr_StartEx
 311              	.LVL18:
  25:MotorDriver.c ****     
 312              		.loc 1 25 0
 313 0014 0022     		movs	r2, #0
 314 0016 034B     		ldr	r3, .L34+4
 315 0018 1A70     		strb	r2, [r3]
  27:MotorDriver.c **** }
 316              		.loc 1 27 0
 317 001a FFF7FEFF 		bl	resetPositionX
 318              	.LVL19:
 319 001e 08BD     		pop	{r3, pc}
 320              	.L35:
 321              		.align	2
 322              	.L34:
 323 0020 00000000 		.word	stepper_isr_handler
 324 0024 00000000 		.word	timerDoneFlag
 325              		.cfi_endproc
 326              	.LFE64:
ARM GAS  C:\Users\jens1\AppData\Local\Temp\cc3LOES1.s 			page 9


 327              		.size	initX, .-initX
 328              		.global	__aeabi_i2d
 329              		.global	__aeabi_ddiv
 330              		.global	__aeabi_d2f
 331              		.global	__aeabi_f2d
 332              		.global	__aeabi_d2iz
 333              		.section	.text.moveDegreesX,"ax",%progbits
 334              		.align	2
 335              		.global	moveDegreesX
 336              		.thumb
 337              		.thumb_func
 338              		.type	moveDegreesX, %function
 339              	moveDegreesX:
 340              	.LFB68:
  73:MotorDriver.c **** //    UART_1_PutString("Starting moveDegreesX function...\n\r");
 341              		.loc 1 73 0
 342              		.cfi_startproc
 343              		@ args = 0, pretend = 0, frame = 0
 344              		@ frame_needed = 0, uses_anonymous_args = 0
 345              	.LVL20:
 346 0000 38B5     		push	{r3, r4, r5, lr}
 347              		.cfi_def_cfa_offset 16
 348              		.cfi_offset 3, -16
 349              		.cfi_offset 4, -12
 350              		.cfi_offset 5, -8
 351              		.cfi_offset 14, -4
  75:MotorDriver.c ****     int steps = (int)round(round1); //Afrund antallet af steps
 352              		.loc 1 75 0
 353 0002 FFF7FEFF 		bl	__aeabi_i2d
 354              	.LVL21:
 355 0006 20A3     		adr	r3, .L50
 356 0008 D3E90023 		ldrd	r2, [r3]
 357 000c FFF7FEFF 		bl	__aeabi_ddiv
 358              	.LVL22:
 359 0010 FFF7FEFF 		bl	__aeabi_d2f
 360              	.LVL23:
  76:MotorDriver.c ****     
 361              		.loc 1 76 0
 362 0014 FFF7FEFF 		bl	__aeabi_f2d
 363              	.LVL24:
 364 0018 FFF7FEFF 		bl	round
 365              	.LVL25:
 366 001c FFF7FEFF 		bl	__aeabi_d2iz
 367              	.LVL26:
  78:MotorDriver.c ****         for(int i = 0; i < steps; i++) {
 368              		.loc 1 78 0
 369 0020 051E     		subs	r5, r0, #0
 370 0022 0DDC     		bgt	.L46
 371 0024 10E0     		b	.L48
 372              	.LVL27:
 373              	.L40:
 374              	.LBB2:
  80:MotorDriver.c **** //            UART_1_PutString("Starting timer\n\r");
 375              		.loc 1 80 0
 376 0026 FFF7FEFF 		bl	Timer_StepperX_Start
 377              	.LVL28:
 378              	.L39:
ARM GAS  C:\Users\jens1\AppData\Local\Temp\cc3LOES1.s 			page 10


  82:MotorDriver.c ****             rotateClockwiseX();
 379              		.loc 1 82 0 discriminator 1
 380 002a 194B     		ldr	r3, .L50+8
 381 002c 1B78     		ldrb	r3, [r3]	@ zero_extendqisi2
 382 002e 002B     		cmp	r3, #0
 383 0030 FBD0     		beq	.L39
  83:MotorDriver.c ****             timerDoneFlag = 0;
 384              		.loc 1 83 0 discriminator 2
 385 0032 FFF7FEFF 		bl	rotateClockwiseX
 386              	.LVL29:
  84:MotorDriver.c ****         }
 387              		.loc 1 84 0 discriminator 2
 388 0036 0022     		movs	r2, #0
 389 0038 154B     		ldr	r3, .L50+8
 390 003a 1A70     		strb	r2, [r3]
  79:MotorDriver.c ****             Timer_StepperX_Start();
 391              		.loc 1 79 0 discriminator 2
 392 003c 0134     		adds	r4, r4, #1
 393              	.LVL30:
 394 003e 00E0     		b	.L37
 395              	.LVL31:
 396              	.L46:
 397              	.LBE2:
 398 0040 0024     		movs	r4, #0
 399              	.LVL32:
 400              	.L37:
 401              	.LBB3:
  79:MotorDriver.c ****             Timer_StepperX_Start();
 402              		.loc 1 79 0 is_stmt 0 discriminator 1
 403 0042 AC42     		cmp	r4, r5
 404 0044 EFDB     		blt	.L40
 405 0046 38BD     		pop	{r3, r4, r5, pc}
 406              	.LVL33:
 407              	.L48:
 408              	.LBE3:
  87:MotorDriver.c ****         if(steps < (stepperPositionX * -1)) {    //Hvis antallet af steps der skal køres tilbage e
 409              		.loc 1 87 0 is_stmt 1
 410 0048 002D     		cmp	r5, #0
 411 004a 1ADA     		bge	.L36
  88:MotorDriver.c ****             resetPositionX();
 412              		.loc 1 88 0
 413 004c 114B     		ldr	r3, .L50+12
 414 004e 1B68     		ldr	r3, [r3]
 415 0050 5B42     		negs	r3, r3
 416 0052 9D42     		cmp	r5, r3
 417 0054 02DA     		bge	.L42
  89:MotorDriver.c ****         }
 418              		.loc 1 89 0
 419 0056 FFF7FEFF 		bl	resetPositionX
 420              	.LVL34:
 421 005a 38BD     		pop	{r3, r4, r5, pc}
 422              	.LVL35:
 423              	.L42:
  91:MotorDriver.c ****             for(int i = 0; i > steps; i--) {
 424              		.loc 1 91 0
 425 005c 9D42     		cmp	r5, r3
 426 005e 0DDC     		bgt	.L47
ARM GAS  C:\Users\jens1\AppData\Local\Temp\cc3LOES1.s 			page 11


 427              	.LBB4:
 428 0060 38BD     		pop	{r3, r4, r5, pc}
 429              	.LVL36:
 430              	.L45:
  93:MotorDriver.c ****                 while(timerDoneFlag == 0);
 431              		.loc 1 93 0
 432 0062 FFF7FEFF 		bl	Timer_StepperX_Start
 433              	.LVL37:
 434              	.L44:
  94:MotorDriver.c ****                 rotateCounterClockwiseX();
 435              		.loc 1 94 0 discriminator 1
 436 0066 0A4B     		ldr	r3, .L50+8
 437 0068 1B78     		ldrb	r3, [r3]	@ zero_extendqisi2
 438 006a 002B     		cmp	r3, #0
 439 006c FBD0     		beq	.L44
  95:MotorDriver.c ****                 timerDoneFlag = 0;
 440              		.loc 1 95 0 discriminator 2
 441 006e FFF7FEFF 		bl	rotateCounterClockwiseX
 442              	.LVL38:
  96:MotorDriver.c ****             }
 443              		.loc 1 96 0 discriminator 2
 444 0072 0022     		movs	r2, #0
 445 0074 064B     		ldr	r3, .L50+8
 446 0076 1A70     		strb	r2, [r3]
  92:MotorDriver.c ****                 Timer_StepperX_Start();
 447              		.loc 1 92 0 discriminator 2
 448 0078 013C     		subs	r4, r4, #1
 449              	.LVL39:
 450 007a 00E0     		b	.L43
 451              	.LVL40:
 452              	.L47:
 453              	.LBE4:
 454 007c 0024     		movs	r4, #0
 455              	.LVL41:
 456              	.L43:
 457              	.LBB5:
  92:MotorDriver.c ****                 Timer_StepperX_Start();
 458              		.loc 1 92 0 is_stmt 0 discriminator 1
 459 007e AC42     		cmp	r4, r5
 460 0080 EFDC     		bgt	.L45
 461              	.LVL42:
 462              	.L36:
 463 0082 38BD     		pop	{r3, r4, r5, pc}
 464              	.LVL43:
 465              	.L51:
 466 0084 AFF30080 		.align	3
 467              	.L50:
 468 0088 CDCCCCCC 		.word	-858993459
 469 008c CCCCEC3F 		.word	1072483532
 470 0090 00000000 		.word	timerDoneFlag
 471 0094 00000000 		.word	stepperPositionX
 472              	.LBE5:
 473              		.cfi_endproc
 474              	.LFE68:
 475              		.size	moveDegreesX, .-moveDegreesX
 476              		.comm	stepperStateX,1,1
 477              		.comm	timerDoneFlag,1,1
ARM GAS  C:\Users\jens1\AppData\Local\Temp\cc3LOES1.s 			page 12


 478              		.comm	stepperPositionX,4,4
 479              		.section	.rodata.str1.4,"aMS",%progbits,1
 480              		.align	2
 481              	.LC0:
 482 0000 53746570 		.ascii	"Stepper reset\012\015\000"
 482      70657220 
 482      72657365 
 482      740A0D00 
 483              	.LC1:
 484 0010 526F7461 		.ascii	"Rotated clockwise once\012\015\000"
 484      74656420 
 484      636C6F63 
 484      6B776973 
 484      65206F6E 
 485              		.text
 486              	.Letext0:
 487              		.file 2 "c:\\program files (x86)\\cypress\\psoc creator\\4.2\\psoc creator\\import\\gnu\\arm\\5.4.
 488              		.file 3 "c:\\program files (x86)\\cypress\\psoc creator\\4.2\\psoc creator\\import\\gnu\\arm\\5.4.
 489              		.file 4 "Generated_Source\\PSoC5/cytypes.h"
 490              		.file 5 "Generated_Source\\PSoC5/core_cm3.h"
 491              		.file 6 "MotorDriver.h"
 492              		.file 7 "Generated_Source\\PSoC5/Timer_StepperX.h"
 493              		.file 8 "Generated_Source\\PSoC5/Pin_X1.h"
 494              		.file 9 "Generated_Source\\PSoC5/Pin_X2.h"
 495              		.file 10 "Generated_Source\\PSoC5/Pin_X3.h"
 496              		.file 11 "Generated_Source\\PSoC5/UART_1.h"
 497              		.file 12 "Generated_Source\\PSoC5/stepper_isr.h"
 498              		.file 13 "c:\\program files (x86)\\cypress\\psoc creator\\4.2\\psoc creator\\import\\gnu\\arm\\5.4