ARM GAS  C:\Users\midtg\AppData\Local\Temp\ccyTGE2x.s 			page 1


   1              		.syntax unified
   2              		.cpu cortex-m3
   3              		.fpu softvfp
   4              		.eabi_attribute 20, 1
   5              		.eabi_attribute 21, 1
   6              		.eabi_attribute 23, 3
   7              		.eabi_attribute 24, 1
   8              		.eabi_attribute 25, 1
   9              		.eabi_attribute 26, 1
  10              		.eabi_attribute 30, 1
  11              		.eabi_attribute 34, 1
  12              		.eabi_attribute 18, 4
  13              		.thumb
  14              		.syntax unified
  15              		.file	"SPI_driver_PSoC.c"
  16              		.text
  17              	.Ltext0:
  18              		.cfi_sections	.debug_frame
  19              		.section	.text.ISR_SPI_RX_handler,"ax",%progbits
  20              		.align	2
  21              		.global	ISR_SPI_RX_handler
  22              		.thumb
  23              		.thumb_func
  24              		.type	ISR_SPI_RX_handler, %function
  25              	ISR_SPI_RX_handler:
  26              	.LFB64:
  27              		.file 1 "SPI_driver_PSoC.c"
   1:SPI_driver_PSoC.c **** /* ========================================
   2:SPI_driver_PSoC.c ****  *
   3:SPI_driver_PSoC.c ****  * Copyright YOUR COMPANY, THE YEAR
   4:SPI_driver_PSoC.c ****  * All Rights Reserved
   5:SPI_driver_PSoC.c ****  * UNPUBLISHED, LICENSED SOFTWARE.
   6:SPI_driver_PSoC.c ****  *
   7:SPI_driver_PSoC.c ****  * CONFIDENTIAL AND PROPRIETARY INFORMATION
   8:SPI_driver_PSoC.c ****  * WHICH IS THE PROPERTY OF your company.
   9:SPI_driver_PSoC.c ****  *
  10:SPI_driver_PSoC.c ****  * ========================================
  11:SPI_driver_PSoC.c **** */
  12:SPI_driver_PSoC.c **** 
  13:SPI_driver_PSoC.c **** #include "SPI_driver_PSoC.h"
  14:SPI_driver_PSoC.c **** 
  15:SPI_driver_PSoC.c **** 
  16:SPI_driver_PSoC.c **** CY_ISR(ISR_SPI_RX_handler)
  17:SPI_driver_PSoC.c **** {
  28              		.loc 1 17 0
  29              		.cfi_startproc
  30              		@ args = 0, pretend = 0, frame = 0
  31              		@ frame_needed = 0, uses_anonymous_args = 0
  32 0000 08B5     		push	{r3, lr}
  33              		.cfi_def_cfa_offset 8
  34              		.cfi_offset 3, -8
  35              		.cfi_offset 14, -4
  18:SPI_driver_PSoC.c ****     UART_1_PutString("IN RX Handler");
  36              		.loc 1 18 0
  37 0002 0548     		ldr	r0, .L3
  38 0004 FFF7FEFF 		bl	UART_1_PutString
  39              	.LVL0:
ARM GAS  C:\Users\midtg\AppData\Local\Temp\ccyTGE2x.s 			page 2


  19:SPI_driver_PSoC.c ****     
  20:SPI_driver_PSoC.c ****     SPI_recieved = SPI_1_ReadRxData();
  40              		.loc 1 20 0
  41 0008 FFF7FEFF 		bl	SPI_1_ReadRxData
  42              	.LVL1:
  43 000c 034B     		ldr	r3, .L3+4
  44 000e 1870     		strb	r0, [r3]
  21:SPI_driver_PSoC.c ****     SPI_recieved_flag = 1;
  45              		.loc 1 21 0
  46 0010 0122     		movs	r2, #1
  47 0012 034B     		ldr	r3, .L3+8
  48 0014 1A70     		strb	r2, [r3]
  49 0016 08BD     		pop	{r3, pc}
  50              	.L4:
  51              		.align	2
  52              	.L3:
  53 0018 00000000 		.word	.LC0
  54 001c 00000000 		.word	SPI_recieved
  55 0020 00000000 		.word	SPI_recieved_flag
  56              		.cfi_endproc
  57              	.LFE64:
  58              		.size	ISR_SPI_RX_handler, .-ISR_SPI_RX_handler
  59              		.section	.text.SPI_start,"ax",%progbits
  60              		.align	2
  61              		.global	SPI_start
  62              		.thumb
  63              		.thumb_func
  64              		.type	SPI_start, %function
  65              	SPI_start:
  66              	.LFB65:
  22:SPI_driver_PSoC.c ****     
  23:SPI_driver_PSoC.c **** }
  24:SPI_driver_PSoC.c **** 
  25:SPI_driver_PSoC.c **** 
  26:SPI_driver_PSoC.c **** void SPI_start(){
  67              		.loc 1 26 0
  68              		.cfi_startproc
  69              		@ args = 0, pretend = 0, frame = 0
  70              		@ frame_needed = 0, uses_anonymous_args = 0
  71 0000 08B5     		push	{r3, lr}
  72              		.cfi_def_cfa_offset 8
  73              		.cfi_offset 3, -8
  74              		.cfi_offset 14, -4
  27:SPI_driver_PSoC.c ****       
  28:SPI_driver_PSoC.c ****     SPI_recieved_flag = 0;
  75              		.loc 1 28 0
  76 0002 0022     		movs	r2, #0
  77 0004 034B     		ldr	r3, .L7
  78 0006 1A70     		strb	r2, [r3]
  29:SPI_driver_PSoC.c ****     SPI_ISR_StartEx(ISR_SPI_RX_handler);
  79              		.loc 1 29 0
  80 0008 0348     		ldr	r0, .L7+4
  81 000a FFF7FEFF 		bl	SPI_ISR_StartEx
  82              	.LVL2:
  30:SPI_driver_PSoC.c ****     SPI_1_Start();
  83              		.loc 1 30 0
  84 000e FFF7FEFF 		bl	SPI_1_Start
ARM GAS  C:\Users\midtg\AppData\Local\Temp\ccyTGE2x.s 			page 3


  85              	.LVL3:
  86 0012 08BD     		pop	{r3, pc}
  87              	.L8:
  88              		.align	2
  89              	.L7:
  90 0014 00000000 		.word	SPI_recieved_flag
  91 0018 00000000 		.word	ISR_SPI_RX_handler
  92              		.cfi_endproc
  93              	.LFE65:
  94              		.size	SPI_start, .-SPI_start
  95              		.section	.text.SPI_send_pigeon_detected,"ax",%progbits
  96              		.align	2
  97              		.global	SPI_send_pigeon_detected
  98              		.thumb
  99              		.thumb_func
 100              		.type	SPI_send_pigeon_detected, %function
 101              	SPI_send_pigeon_detected:
 102              	.LFB66:
  31:SPI_driver_PSoC.c **** 
  32:SPI_driver_PSoC.c **** }
  33:SPI_driver_PSoC.c **** 
  34:SPI_driver_PSoC.c **** void SPI_send_pigeon_detected(){
 103              		.loc 1 34 0
 104              		.cfi_startproc
 105              		@ args = 0, pretend = 0, frame = 0
 106              		@ frame_needed = 0, uses_anonymous_args = 0
 107 0000 08B5     		push	{r3, lr}
 108              		.cfi_def_cfa_offset 8
 109              		.cfi_offset 3, -8
 110              		.cfi_offset 14, -4
  35:SPI_driver_PSoC.c ****             
  36:SPI_driver_PSoC.c ****             SPI_1_WriteTxDataZero('b');
 111              		.loc 1 36 0
 112 0002 6220     		movs	r0, #98
 113 0004 FFF7FEFF 		bl	SPI_1_WriteTxDataZero
 114              	.LVL4:
  37:SPI_driver_PSoC.c ****             
  38:SPI_driver_PSoC.c ****             //UART_1_PutString("Writing status - to Raspberry Pi");
  39:SPI_driver_PSoC.c ****             
  40:SPI_driver_PSoC.c ****             SPI_read_req_Write(1);
 115              		.loc 1 40 0
 116 0008 0120     		movs	r0, #1
 117 000a FFF7FEFF 		bl	SPI_read_req_Write
 118              	.LVL5:
  41:SPI_driver_PSoC.c ****             
  42:SPI_driver_PSoC.c ****             CyDelayUs(1);
 119              		.loc 1 42 0
 120 000e 0120     		movs	r0, #1
 121 0010 FFF7FEFF 		bl	CyDelayUs
 122              	.LVL6:
  43:SPI_driver_PSoC.c ****             
  44:SPI_driver_PSoC.c ****             SPI_read_req_Write(0);
 123              		.loc 1 44 0
 124 0014 0020     		movs	r0, #0
 125 0016 FFF7FEFF 		bl	SPI_read_req_Write
 126              	.LVL7:
 127 001a 08BD     		pop	{r3, pc}
ARM GAS  C:\Users\midtg\AppData\Local\Temp\ccyTGE2x.s 			page 4


 128              		.cfi_endproc
 129              	.LFE66:
 130              		.size	SPI_send_pigeon_detected, .-SPI_send_pigeon_detected
 131              		.section	.text.SPI_send_low_water,"ax",%progbits
 132              		.align	2
 133              		.global	SPI_send_low_water
 134              		.thumb
 135              		.thumb_func
 136              		.type	SPI_send_low_water, %function
 137              	SPI_send_low_water:
 138              	.LFB67:
  45:SPI_driver_PSoC.c ****             
  46:SPI_driver_PSoC.c **** }
  47:SPI_driver_PSoC.c **** 
  48:SPI_driver_PSoC.c **** 
  49:SPI_driver_PSoC.c **** void SPI_send_low_water(){
 139              		.loc 1 49 0
 140              		.cfi_startproc
 141              		@ args = 0, pretend = 0, frame = 0
 142              		@ frame_needed = 0, uses_anonymous_args = 0
 143 0000 08B5     		push	{r3, lr}
 144              		.cfi_def_cfa_offset 8
 145              		.cfi_offset 3, -8
 146              		.cfi_offset 14, -4
  50:SPI_driver_PSoC.c ****             
  51:SPI_driver_PSoC.c ****             SPI_1_WriteTxDataZero('c');
 147              		.loc 1 51 0
 148 0002 6320     		movs	r0, #99
 149 0004 FFF7FEFF 		bl	SPI_1_WriteTxDataZero
 150              	.LVL8:
  52:SPI_driver_PSoC.c ****             
  53:SPI_driver_PSoC.c ****             //UART_1_PutString("Writing status - to Raspberry Pi");
  54:SPI_driver_PSoC.c ****             
  55:SPI_driver_PSoC.c ****             SPI_read_req_Write(1);
 151              		.loc 1 55 0
 152 0008 0120     		movs	r0, #1
 153 000a FFF7FEFF 		bl	SPI_read_req_Write
 154              	.LVL9:
  56:SPI_driver_PSoC.c ****             
  57:SPI_driver_PSoC.c ****             CyDelayUs(1);
 155              		.loc 1 57 0
 156 000e 0120     		movs	r0, #1
 157 0010 FFF7FEFF 		bl	CyDelayUs
 158              	.LVL10:
  58:SPI_driver_PSoC.c ****             
  59:SPI_driver_PSoC.c ****             SPI_read_req_Write(0);
 159              		.loc 1 59 0
 160 0014 0020     		movs	r0, #0
 161 0016 FFF7FEFF 		bl	SPI_read_req_Write
 162              	.LVL11:
 163 001a 08BD     		pop	{r3, pc}
 164              		.cfi_endproc
 165              	.LFE67:
 166              		.size	SPI_send_low_water, .-SPI_send_low_water
 167              		.section	.text.SPI_send_water_empty,"ax",%progbits
 168              		.align	2
 169              		.global	SPI_send_water_empty
ARM GAS  C:\Users\midtg\AppData\Local\Temp\ccyTGE2x.s 			page 5


 170              		.thumb
 171              		.thumb_func
 172              		.type	SPI_send_water_empty, %function
 173              	SPI_send_water_empty:
 174              	.LFB68:
  60:SPI_driver_PSoC.c ****             
  61:SPI_driver_PSoC.c **** }
  62:SPI_driver_PSoC.c **** 
  63:SPI_driver_PSoC.c **** void SPI_send_water_empty(){
 175              		.loc 1 63 0
 176              		.cfi_startproc
 177              		@ args = 0, pretend = 0, frame = 0
 178              		@ frame_needed = 0, uses_anonymous_args = 0
 179 0000 08B5     		push	{r3, lr}
 180              		.cfi_def_cfa_offset 8
 181              		.cfi_offset 3, -8
 182              		.cfi_offset 14, -4
  64:SPI_driver_PSoC.c ****             SPI_1_WriteTxDataZero('d');
 183              		.loc 1 64 0
 184 0002 6420     		movs	r0, #100
 185 0004 FFF7FEFF 		bl	SPI_1_WriteTxDataZero
 186              	.LVL12:
  65:SPI_driver_PSoC.c ****             
  66:SPI_driver_PSoC.c ****             //UART_1_PutString("Writing status - to Raspberry Pi");
  67:SPI_driver_PSoC.c ****             
  68:SPI_driver_PSoC.c ****             SPI_read_req_Write(1);
 187              		.loc 1 68 0
 188 0008 0120     		movs	r0, #1
 189 000a FFF7FEFF 		bl	SPI_read_req_Write
 190              	.LVL13:
  69:SPI_driver_PSoC.c ****             
  70:SPI_driver_PSoC.c ****             CyDelayUs(1);
 191              		.loc 1 70 0
 192 000e 0120     		movs	r0, #1
 193 0010 FFF7FEFF 		bl	CyDelayUs
 194              	.LVL14:
  71:SPI_driver_PSoC.c ****             
  72:SPI_driver_PSoC.c ****             SPI_read_req_Write(0);
 195              		.loc 1 72 0
 196 0014 0020     		movs	r0, #0
 197 0016 FFF7FEFF 		bl	SPI_read_req_Write
 198              	.LVL15:
 199 001a 08BD     		pop	{r3, pc}
 200              		.cfi_endproc
 201              	.LFE68:
 202              		.size	SPI_send_water_empty, .-SPI_send_water_empty
 203              		.section	.text.SPI_send_flowers_watered,"ax",%progbits
 204              		.align	2
 205              		.global	SPI_send_flowers_watered
 206              		.thumb
 207              		.thumb_func
 208              		.type	SPI_send_flowers_watered, %function
 209              	SPI_send_flowers_watered:
 210              	.LFB69:
  73:SPI_driver_PSoC.c **** }
  74:SPI_driver_PSoC.c **** 
  75:SPI_driver_PSoC.c **** void SPI_send_flowers_watered(){
ARM GAS  C:\Users\midtg\AppData\Local\Temp\ccyTGE2x.s 			page 6


 211              		.loc 1 75 0
 212              		.cfi_startproc
 213              		@ args = 0, pretend = 0, frame = 0
 214              		@ frame_needed = 0, uses_anonymous_args = 0
 215 0000 08B5     		push	{r3, lr}
 216              		.cfi_def_cfa_offset 8
 217              		.cfi_offset 3, -8
 218              		.cfi_offset 14, -4
  76:SPI_driver_PSoC.c ****             SPI_1_WriteTxDataZero('e');
 219              		.loc 1 76 0
 220 0002 6520     		movs	r0, #101
 221 0004 FFF7FEFF 		bl	SPI_1_WriteTxDataZero
 222              	.LVL16:
  77:SPI_driver_PSoC.c ****             
  78:SPI_driver_PSoC.c ****             //UART_1_PutString("Writing status - to Raspberry Pi");
  79:SPI_driver_PSoC.c ****             
  80:SPI_driver_PSoC.c ****             SPI_read_req_Write(1);
 223              		.loc 1 80 0
 224 0008 0120     		movs	r0, #1
 225 000a FFF7FEFF 		bl	SPI_read_req_Write
 226              	.LVL17:
  81:SPI_driver_PSoC.c ****             
  82:SPI_driver_PSoC.c ****             CyDelayUs(1);
 227              		.loc 1 82 0
 228 000e 0120     		movs	r0, #1
 229 0010 FFF7FEFF 		bl	CyDelayUs
 230              	.LVL18:
  83:SPI_driver_PSoC.c ****             
  84:SPI_driver_PSoC.c ****             SPI_read_req_Write(0);
 231              		.loc 1 84 0
 232 0014 0020     		movs	r0, #0
 233 0016 FFF7FEFF 		bl	SPI_read_req_Write
 234              	.LVL19:
 235 001a 08BD     		pop	{r3, pc}
 236              		.cfi_endproc
 237              	.LFE69:
 238              		.size	SPI_send_flowers_watered, .-SPI_send_flowers_watered
 239              		.section	.text.SPI_send_pigeon_shot_position,"ax",%progbits
 240              		.align	2
 241              		.global	SPI_send_pigeon_shot_position
 242              		.thumb
 243              		.thumb_func
 244              		.type	SPI_send_pigeon_shot_position, %function
 245              	SPI_send_pigeon_shot_position:
 246              	.LFB70:
  85:SPI_driver_PSoC.c **** }
  86:SPI_driver_PSoC.c **** 
  87:SPI_driver_PSoC.c **** void SPI_send_pigeon_shot_position(char pigeon_position_x, char pigeon_position_y){
 247              		.loc 1 87 0
 248              		.cfi_startproc
 249              		@ args = 0, pretend = 0, frame = 0
 250              		@ frame_needed = 0, uses_anonymous_args = 0
 251              	.LVL20:
 252 0000 38B5     		push	{r3, r4, r5, lr}
 253              		.cfi_def_cfa_offset 16
 254              		.cfi_offset 3, -16
 255              		.cfi_offset 4, -12
ARM GAS  C:\Users\midtg\AppData\Local\Temp\ccyTGE2x.s 			page 7


 256              		.cfi_offset 5, -8
 257              		.cfi_offset 14, -4
 258 0002 0546     		mov	r5, r0
 259 0004 0C46     		mov	r4, r1
  88:SPI_driver_PSoC.c ****     
  89:SPI_driver_PSoC.c ****             SPI_1_WriteTxDataZero('a');
 260              		.loc 1 89 0
 261 0006 6120     		movs	r0, #97
 262              	.LVL21:
 263 0008 FFF7FEFF 		bl	SPI_1_WriteTxDataZero
 264              	.LVL22:
  90:SPI_driver_PSoC.c ****             
  91:SPI_driver_PSoC.c ****             SPI_read_req_Write(1);
 265              		.loc 1 91 0
 266 000c 0120     		movs	r0, #1
 267 000e FFF7FEFF 		bl	SPI_read_req_Write
 268              	.LVL23:
  92:SPI_driver_PSoC.c ****             
  93:SPI_driver_PSoC.c ****             CyDelayUs(1);
 269              		.loc 1 93 0
 270 0012 0120     		movs	r0, #1
 271 0014 FFF7FEFF 		bl	CyDelayUs
 272              	.LVL24:
  94:SPI_driver_PSoC.c ****             
  95:SPI_driver_PSoC.c ****             SPI_read_req_Write(0);
 273              		.loc 1 95 0
 274 0018 0020     		movs	r0, #0
 275 001a FFF7FEFF 		bl	SPI_read_req_Write
 276              	.LVL25:
  96:SPI_driver_PSoC.c ****             
  97:SPI_driver_PSoC.c ****             CyDelayUs(5000); //Thinking time for RPI
 277              		.loc 1 97 0
 278 001e 41F28830 		movw	r0, #5000
 279 0022 FFF7FEFF 		bl	CyDelayUs
 280              	.LVL26:
  98:SPI_driver_PSoC.c ****             
  99:SPI_driver_PSoC.c ****             //Sending position x
 100:SPI_driver_PSoC.c ****             
 101:SPI_driver_PSoC.c ****             SPI_1_WriteTxDataZero(pigeon_position_x);
 281              		.loc 1 101 0
 282 0026 2846     		mov	r0, r5
 283 0028 FFF7FEFF 		bl	SPI_1_WriteTxDataZero
 284              	.LVL27:
 102:SPI_driver_PSoC.c ****             
 103:SPI_driver_PSoC.c ****             SPI_read_req_Write(1);
 285              		.loc 1 103 0
 286 002c 0120     		movs	r0, #1
 287 002e FFF7FEFF 		bl	SPI_read_req_Write
 288              	.LVL28:
 104:SPI_driver_PSoC.c ****             
 105:SPI_driver_PSoC.c ****             CyDelayUs(1);
 289              		.loc 1 105 0
 290 0032 0120     		movs	r0, #1
 291 0034 FFF7FEFF 		bl	CyDelayUs
 292              	.LVL29:
 106:SPI_driver_PSoC.c ****             
 107:SPI_driver_PSoC.c ****             SPI_read_req_Write(0);
ARM GAS  C:\Users\midtg\AppData\Local\Temp\ccyTGE2x.s 			page 8


 293              		.loc 1 107 0
 294 0038 0020     		movs	r0, #0
 295 003a FFF7FEFF 		bl	SPI_read_req_Write
 296              	.LVL30:
 108:SPI_driver_PSoC.c ****             
 109:SPI_driver_PSoC.c ****             CyDelayUs(5000); //Thinking time for RPI
 297              		.loc 1 109 0
 298 003e 41F28830 		movw	r0, #5000
 299 0042 FFF7FEFF 		bl	CyDelayUs
 300              	.LVL31:
 110:SPI_driver_PSoC.c ****             
 111:SPI_driver_PSoC.c ****             //Sending position y
 112:SPI_driver_PSoC.c ****             
 113:SPI_driver_PSoC.c ****             SPI_1_WriteTxDataZero(pigeon_position_y);
 301              		.loc 1 113 0
 302 0046 2046     		mov	r0, r4
 303 0048 FFF7FEFF 		bl	SPI_1_WriteTxDataZero
 304              	.LVL32:
 114:SPI_driver_PSoC.c ****             
 115:SPI_driver_PSoC.c ****             SPI_read_req_Write(1);
 305              		.loc 1 115 0
 306 004c 0120     		movs	r0, #1
 307 004e FFF7FEFF 		bl	SPI_read_req_Write
 308              	.LVL33:
 116:SPI_driver_PSoC.c ****             
 117:SPI_driver_PSoC.c ****             CyDelayUs(1);
 309              		.loc 1 117 0
 310 0052 0120     		movs	r0, #1
 311 0054 FFF7FEFF 		bl	CyDelayUs
 312              	.LVL34:
 118:SPI_driver_PSoC.c ****             
 119:SPI_driver_PSoC.c ****             SPI_read_req_Write(0);
 313              		.loc 1 119 0
 314 0058 0020     		movs	r0, #0
 315 005a FFF7FEFF 		bl	SPI_read_req_Write
 316              	.LVL35:
 120:SPI_driver_PSoC.c ****             
 121:SPI_driver_PSoC.c ****             CyDelayUs(5000); //Thinking time for RPI
 317              		.loc 1 121 0
 318 005e 41F28830 		movw	r0, #5000
 319 0062 FFF7FEFF 		bl	CyDelayUs
 320              	.LVL36:
 321 0066 38BD     		pop	{r3, r4, r5, pc}
 322              		.cfi_endproc
 323              	.LFE70:
 324              		.size	SPI_send_pigeon_shot_position, .-SPI_send_pigeon_shot_position
 325              		.section	.text.Handle_SPI_recieved,"ax",%progbits
 326              		.align	2
 327              		.global	Handle_SPI_recieved
 328              		.thumb
 329              		.thumb_func
 330              		.type	Handle_SPI_recieved, %function
 331              	Handle_SPI_recieved:
 332              	.LFB71:
 122:SPI_driver_PSoC.c ****             
 123:SPI_driver_PSoC.c ****             
 124:SPI_driver_PSoC.c **** }
ARM GAS  C:\Users\midtg\AppData\Local\Temp\ccyTGE2x.s 			page 9


 125:SPI_driver_PSoC.c **** 
 126:SPI_driver_PSoC.c **** void Handle_SPI_recieved(){
 333              		.loc 1 126 0
 334              		.cfi_startproc
 335              		@ args = 0, pretend = 0, frame = 0
 336              		@ frame_needed = 0, uses_anonymous_args = 0
 337              		@ link register save eliminated.
 127:SPI_driver_PSoC.c ****     SPI_recieved_flag = 0;
 338              		.loc 1 127 0
 339 0000 0022     		movs	r2, #0
 340 0002 014B     		ldr	r3, .L20
 341 0004 1A70     		strb	r2, [r3]
 342 0006 7047     		bx	lr
 343              	.L21:
 344              		.align	2
 345              	.L20:
 346 0008 00000000 		.word	SPI_recieved_flag
 347              		.cfi_endproc
 348              	.LFE71:
 349              		.size	Handle_SPI_recieved, .-Handle_SPI_recieved
 350              		.comm	SPI_recieved,1,1
 351              		.comm	SPI_recieved_flag,1,1
 352              		.section	.rodata.str1.4,"aMS",%progbits,1
 353              		.align	2
 354              	.LC0:
 355 0000 494E2052 		.ascii	"IN RX Handler\000"
 355      58204861 
 355      6E646C65 
 355      7200
 356              		.text
 357              	.Letext0:
 358              		.file 2 "c:\\program files (x86)\\cypress\\psoc creator\\4.2\\psoc creator\\import\\gnu\\arm\\5.4.
 359              		.file 3 "c:\\program files (x86)\\cypress\\psoc creator\\4.2\\psoc creator\\import\\gnu\\arm\\5.4.
 360              		.file 4 "Generated_Source\\PSoC5/core_cm3.h"
 361              		.file 5 "SPI_driver_PSoC.h"
 362              		.file 6 "Generated_Source\\PSoC5/UART_1.h"
 363              		.file 7 "Generated_Source\\PSoC5/SPI_1.h"
 364              		.file 8 "Generated_Source\\PSoC5/SPI_ISR.h"
 365              		.file 9 "Generated_Source\\PSoC5/SPI_read_req.h"
 366              		.file 10 "Generated_Source\\PSoC5/CyLib.h"