ARM GAS  C:\Users\midtg\AppData\Local\Temp\ccCU4D1H.s 			page 1


   1              		.syntax unified
   2              		.cpu cortex-m3
   3              		.fpu softvfp
   4              		.eabi_attribute 20, 1
   5              		.eabi_attribute 21, 1
   6              		.eabi_attribute 23, 3
   7              		.eabi_attribute 24, 1
   8              		.eabi_attribute 25, 1
   9              		.eabi_attribute 26, 1
  10              		.eabi_attribute 30, 1
  11              		.eabi_attribute 34, 1
  12              		.eabi_attribute 18, 4
  13              		.thumb
  14              		.syntax unified
  15              		.file	"main.c"
  16              		.text
  17              	.Ltext0:
  18              		.cfi_sections	.debug_frame
  19              		.section	.text.main,"ax",%progbits
  20              		.align	2
  21              		.global	main
  22              		.thumb
  23              		.thumb_func
  24              		.type	main, %function
  25              	main:
  26              	.LFB64:
  27              		.file 1 "main.c"
   1:main.c        **** /* ========================================
   2:main.c        ****  *
   3:main.c        ****  * Copyright YOUR COMPANY, THE YEAR
   4:main.c        ****  * All Rights Reserved
   5:main.c        ****  * UNPUBLISHED, LICENSED SOFTWARE.
   6:main.c        ****  *
   7:main.c        ****  * CONFIDENTIAL AND PROPRIETARY INFORMATION
   8:main.c        ****  * WHICH IS THE PROPERTY OF your company.
   9:main.c        ****  *
  10:main.c        ****  * ========================================
  11:main.c        **** */
  12:main.c        **** 
  13:main.c        **** #include <stdio.h>
  14:main.c        **** #include "SPI_driver_PSoC.h"
  15:main.c        **** #include "project.h"
  16:main.c        **** static char outputBuffer[256];
  17:main.c        **** 
  18:main.c        **** CY_ISR_PROTO(ISR_UART_RX_handler);
  19:main.c        **** CY_ISR_PROTO(ISR_SPI_RX_handler);
  20:main.c        **** 
  21:main.c        **** void handleByteReceived(uint8_t);
  22:main.c        **** 
  23:main.c        **** 
  24:main.c        **** int main(void)
  25:main.c        **** {
  28              		.loc 1 25 0
  29              		.cfi_startproc
  30              		@ Volatile: function does not return.
  31              		@ args = 0, pretend = 0, frame = 0
  32              		@ frame_needed = 0, uses_anonymous_args = 0
ARM GAS  C:\Users\midtg\AppData\Local\Temp\ccCU4D1H.s 			page 2


  33 0000 08B5     		push	{r3, lr}
  34              		.cfi_def_cfa_offset 8
  35              		.cfi_offset 3, -8
  36              		.cfi_offset 14, -4
  26:main.c        ****     CyGlobalIntEnable; /* Enable global interrupts. */
  37              		.loc 1 26 0
  38              		.syntax unified
  39              	@ 26 "main.c" 1
  40 0002 62B6     		CPSIE   i
  41              	@ 0 "" 2
  27:main.c        ****     /* Place your initialization/startup code here (e.g. MyInst_Start()) */
  28:main.c        ****     
  29:main.c        ****     SPI_start();
  42              		.loc 1 29 0
  43              		.thumb
  44              		.syntax unified
  45 0004 FFF7FEFF 		bl	SPI_start
  46              	.LVL0:
  30:main.c        ****     UART_RX_interrupt_StartEx(ISR_UART_RX_handler);
  47              		.loc 1 30 0
  48 0008 0E48     		ldr	r0, .L5
  49 000a FFF7FEFF 		bl	UART_RX_interrupt_StartEx
  50              	.LVL1:
  31:main.c        ****     UART_1_Start();
  51              		.loc 1 31 0
  52 000e FFF7FEFF 		bl	UART_1_Start
  53              	.LVL2:
  32:main.c        ****     
  33:main.c        ****     
  34:main.c        ****     UART_1_PutString("Program Startet");
  54              		.loc 1 34 0
  55 0012 0D48     		ldr	r0, .L5+4
  56 0014 FFF7FEFF 		bl	UART_1_PutString
  57              	.LVL3:
  58              	.L2:
  35:main.c        ****     
  36:main.c        ****     
  37:main.c        ****     for(;;)
  38:main.c        ****     {
  39:main.c        ****        
  40:main.c        ****         if (SPI_recieved_flag == 1){
  59              		.loc 1 40 0
  60 0018 0C4B     		ldr	r3, .L5+8
  61 001a 1B78     		ldrb	r3, [r3]	@ zero_extendqisi2
  62 001c 012B     		cmp	r3, #1
  63 001e FBD1     		bne	.L2
  41:main.c        ****             Handle_SPI_recieved();
  64              		.loc 1 41 0
  65 0020 FFF7FEFF 		bl	Handle_SPI_recieved
  66              	.LVL4:
  42:main.c        ****             UART_1_PutString("Something recieved");
  67              		.loc 1 42 0
  68 0024 0A48     		ldr	r0, .L5+12
  69 0026 FFF7FEFF 		bl	UART_1_PutString
  70              	.LVL5:
  43:main.c        ****             snprintf(outputBuffer, sizeof(outputBuffer), "Data recived from pi: %c\n\r", SPI_reciev
  71              		.loc 1 43 0
ARM GAS  C:\Users\midtg\AppData\Local\Temp\ccCU4D1H.s 			page 3


  72 002a 0A4C     		ldr	r4, .L5+16
  73 002c 0A4B     		ldr	r3, .L5+20
  74 002e 1B78     		ldrb	r3, [r3]	@ zero_extendqisi2
  75 0030 0A4A     		ldr	r2, .L5+24
  76 0032 4FF48071 		mov	r1, #256
  77 0036 2046     		mov	r0, r4
  78 0038 FFF7FEFF 		bl	snprintf
  79              	.LVL6:
  44:main.c        ****             UART_1_PutString(outputBuffer);
  80              		.loc 1 44 0
  81 003c 2046     		mov	r0, r4
  82 003e FFF7FEFF 		bl	UART_1_PutString
  83              	.LVL7:
  84 0042 E9E7     		b	.L2
  85              	.L6:
  86              		.align	2
  87              	.L5:
  88 0044 00000000 		.word	ISR_UART_RX_handler
  89 0048 00000000 		.word	.LC0
  90 004c 00000000 		.word	SPI_recieved_flag
  91 0050 10000000 		.word	.LC1
  92 0054 00000000 		.word	.LANCHOR0
  93 0058 00000000 		.word	SPI_recieved
  94 005c 24000000 		.word	.LC2
  95              		.cfi_endproc
  96              	.LFE64:
  97              		.size	main, .-main
  98              		.section	.text.handleByteReceived,"ax",%progbits
  99              		.align	2
 100              		.global	handleByteReceived
 101              		.thumb
 102              		.thumb_func
 103              		.type	handleByteReceived, %function
 104              	handleByteReceived:
 105              	.LFB66:
  45:main.c        ****             
  46:main.c        ****         }
  47:main.c        ****     }
  48:main.c        **** }
  49:main.c        **** 
  50:main.c        **** 
  51:main.c        **** 
  52:main.c        **** CY_ISR(ISR_UART_RX_handler) //interrupt rutine til at læse UART input
  53:main.c        **** {
  54:main.c        ****     uint8_t bytesToRead = UART_1_GetRxBufferSize();
  55:main.c        ****     while (bytesToRead > 0)
  56:main.c        ****     {
  57:main.c        ****         uint8_t byteReceived = UART_1_ReadRxData();
  58:main.c        ****         UART_1_WriteTxData(byteReceived); // echo back
  59:main.c        ****         
  60:main.c        ****         handleByteReceived(byteReceived);
  61:main.c        ****         
  62:main.c        ****         bytesToRead--;
  63:main.c        ****     }
  64:main.c        **** }
  65:main.c        **** 
  66:main.c        **** void handleByteReceived(uint8_t byteReceived)// funktion til at håndterer modtaget UART data
ARM GAS  C:\Users\midtg\AppData\Local\Temp\ccCU4D1H.s 			page 4


  67:main.c        **** {
 106              		.loc 1 67 0
 107              		.cfi_startproc
 108              		@ args = 0, pretend = 0, frame = 0
 109              		@ frame_needed = 0, uses_anonymous_args = 0
 110              	.LVL8:
 111 0000 08B5     		push	{r3, lr}
 112              		.cfi_def_cfa_offset 8
 113              		.cfi_offset 3, -8
 114              		.cfi_offset 14, -4
  68:main.c        ****     switch(byteReceived)
 115              		.loc 1 68 0
 116 0002 6128     		cmp	r0, #97
 117 0004 02D0     		beq	.L9
 118 0006 6228     		cmp	r0, #98
 119 0008 05D0     		beq	.L10
 120 000a 08BD     		pop	{r3, pc}
 121              	.L9:
  69:main.c        ****     {
  70:main.c        ****         case 'a' :
  71:main.c        ****         {
  72:main.c        ****             //SPI_send_pigeon_shot_position(55,3);
  73:main.c        ****             SPI_send_pigeon_shot_position(55,3);        
 122              		.loc 1 73 0
 123 000c 0321     		movs	r1, #3
 124 000e 3720     		movs	r0, #55
 125              	.LVL9:
 126 0010 FFF7FEFF 		bl	SPI_send_pigeon_shot_position
 127              	.LVL10:
  74:main.c        ****         }
  75:main.c        ****         break;
 128              		.loc 1 75 0
 129 0014 08BD     		pop	{r3, pc}
 130              	.LVL11:
 131              	.L10:
  76:main.c        **** 
  77:main.c        ****         case 'b' :
  78:main.c        ****         {
  79:main.c        ****            SPI_send_low_water();
 132              		.loc 1 79 0
 133 0016 FFF7FEFF 		bl	SPI_send_low_water
 134              	.LVL12:
 135 001a 08BD     		pop	{r3, pc}
 136              		.cfi_endproc
 137              	.LFE66:
 138              		.size	handleByteReceived, .-handleByteReceived
 139              		.section	.text.ISR_UART_RX_handler,"ax",%progbits
 140              		.align	2
 141              		.global	ISR_UART_RX_handler
 142              		.thumb
 143              		.thumb_func
 144              		.type	ISR_UART_RX_handler, %function
 145              	ISR_UART_RX_handler:
 146              	.LFB65:
  53:main.c        ****     uint8_t bytesToRead = UART_1_GetRxBufferSize();
 147              		.loc 1 53 0
 148              		.cfi_startproc
ARM GAS  C:\Users\midtg\AppData\Local\Temp\ccCU4D1H.s 			page 5


 149              		@ args = 0, pretend = 0, frame = 0
 150              		@ frame_needed = 0, uses_anonymous_args = 0
 151 0000 38B5     		push	{r3, r4, r5, lr}
 152              		.cfi_def_cfa_offset 16
 153              		.cfi_offset 3, -16
 154              		.cfi_offset 4, -12
 155              		.cfi_offset 5, -8
 156              		.cfi_offset 14, -4
  54:main.c        ****     while (bytesToRead > 0)
 157              		.loc 1 54 0
 158 0002 FFF7FEFF 		bl	UART_1_GetRxBufferSize
 159              	.LVL13:
 160 0006 0446     		mov	r4, r0
 161              	.LVL14:
  55:main.c        ****     {
 162              		.loc 1 55 0
 163 0008 09E0     		b	.L13
 164              	.L14:
 165              	.LBB2:
  57:main.c        ****         UART_1_WriteTxData(byteReceived); // echo back
 166              		.loc 1 57 0
 167 000a FFF7FEFF 		bl	UART_1_ReadRxData
 168              	.LVL15:
 169 000e 0546     		mov	r5, r0
 170              	.LVL16:
  58:main.c        ****         
 171              		.loc 1 58 0
 172 0010 FFF7FEFF 		bl	UART_1_WriteTxData
 173              	.LVL17:
  60:main.c        ****         
 174              		.loc 1 60 0
 175 0014 2846     		mov	r0, r5
 176 0016 FFF7FEFF 		bl	handleByteReceived
 177              	.LVL18:
  62:main.c        ****     }
 178              		.loc 1 62 0
 179 001a 013C     		subs	r4, r4, #1
 180              	.LVL19:
 181 001c E4B2     		uxtb	r4, r4
 182              	.LVL20:
 183              	.L13:
 184              	.LBE2:
  55:main.c        ****     {
 185              		.loc 1 55 0
 186 001e 002C     		cmp	r4, #0
 187 0020 F3D1     		bne	.L14
  64:main.c        **** 
 188              		.loc 1 64 0
 189 0022 38BD     		pop	{r3, r4, r5, pc}
 190              		.cfi_endproc
 191              	.LFE65:
 192              		.size	ISR_UART_RX_handler, .-ISR_UART_RX_handler
 193              		.comm	SPI_recieved,1,1
 194              		.comm	SPI_recieved_flag,1,1
 195              		.section	.rodata.str1.4,"aMS",%progbits,1
 196              		.align	2
 197              	.LC0:
ARM GAS  C:\Users\midtg\AppData\Local\Temp\ccCU4D1H.s 			page 6


 198 0000 50726F67 		.ascii	"Program Startet\000"
 198      72616D20 
 198      53746172 
 198      74657400 
 199              	.LC1:
 200 0010 536F6D65 		.ascii	"Something recieved\000"
 200      7468696E 
 200      67207265 
 200      63696576 
 200      656400
 201 0023 00       		.space	1
 202              	.LC2:
 203 0024 44617461 		.ascii	"Data recived from pi: %c\012\015\000"
 203      20726563 
 203      69766564 
 203      2066726F 
 203      6D207069 
 204              		.bss
 205              		.align	2
 206              		.set	.LANCHOR0,. + 0
 207              		.type	outputBuffer, %object
 208              		.size	outputBuffer, 256
 209              	outputBuffer:
 210 0000 00000000 		.space	256
 210      00000000 
 210      00000000 
 210      00000000 
 210      00000000 
 211              		.text
 212              	.Letext0:
 213              		.file 2 "c:\\program files (x86)\\cypress\\psoc creator\\4.2\\psoc creator\\import\\gnu\\arm\\5.4.
 214              		.file 3 "c:\\program files (x86)\\cypress\\psoc creator\\4.2\\psoc creator\\import\\gnu\\arm\\5.4.
 215              		.file 4 "Generated_Source\\PSoC5/core_cm3.h"
 216              		.file 5 "SPI_driver_PSoC.h"
 217              		.file 6 "Generated_Source\\PSoC5/UART_RX_interrupt.h"
 218              		.file 7 "Generated_Source\\PSoC5/UART_1.h"
 219              		.file 8 "c:\\program files (x86)\\cypress\\psoc creator\\4.2\\psoc creator\\import\\gnu\\arm\\5.4.