ARM GAS  C:\Users\Lasse\AppData\Local\Temp\ccBNyjE1.s 			page 1


   1              		.syntax unified
   2              		.cpu cortex-m3
   3              		.fpu softvfp
   4              		.eabi_attribute 20, 1
   5              		.eabi_attribute 21, 1
   6              		.eabi_attribute 23, 3
   7              		.eabi_attribute 24, 1
   8              		.eabi_attribute 25, 1
   9              		.eabi_attribute 26, 1
  10              		.eabi_attribute 30, 1
  11              		.eabi_attribute 34, 1
  12              		.eabi_attribute 18, 4
  13              		.thumb
  14              		.syntax unified
  15              		.file	"CircularBuffer.c"
  16              		.text
  17              	.Ltext0:
  18              		.cfi_sections	.debug_frame
  19              		.section	.text.isEmpty,"ax",%progbits
  20              		.align	2
  21              		.thumb
  22              		.thumb_func
  23              		.type	isEmpty, %function
  24              	isEmpty:
  25              	.LFB64:
  26              		.file 1 "CircularBuffer.c"
   1:CircularBuffer.c **** /* ========================================
   2:CircularBuffer.c ****  * PIGEON EXTERMINATION SYSTEM
   3:CircularBuffer.c ****  * CircularBuffer.c
   4:CircularBuffer.c ****  * 
   5:CircularBuffer.c ****  * Author: Lasse Krarup
   6:CircularBuffer.c ****  * Date: 26-11-2018
   7:CircularBuffer.c ****  * ========================================
   8:CircularBuffer.c **** */
   9:CircularBuffer.c **** #include "CircularBuffer.h"
  10:CircularBuffer.c **** #include "project.h"
  11:CircularBuffer.c **** 
  12:CircularBuffer.c **** static uint8 isFull(struct CircBuf * circ_ptr){
  13:CircularBuffer.c ****     if ((circ_ptr->rear + 1) % circ_ptr->maxLength ==  circ_ptr->front) {
  14:CircularBuffer.c ****         UART_1_PutString("Buffer full\n\r");
  15:CircularBuffer.c ****         return 1;
  16:CircularBuffer.c ****     } else
  17:CircularBuffer.c ****         return 0;
  18:CircularBuffer.c **** }
  19:CircularBuffer.c **** 
  20:CircularBuffer.c **** static uint8 isEmpty(struct CircBuf * circ_ptr){
  27              		.loc 1 20 0
  28              		.cfi_startproc
  29              		@ args = 0, pretend = 0, frame = 0
  30              		@ frame_needed = 0, uses_anonymous_args = 0
  31              		@ link register save eliminated.
  32              	.LVL0:
  21:CircularBuffer.c ****     if (circ_ptr->rear == -1 && circ_ptr->front == -1) {
  33              		.loc 1 21 0
  34 0000 B0F9B430 		ldrsh	r3, [r0, #180]
  35 0004 B3F1FF3F 		cmp	r3, #-1
  36 0008 01D1     		bne	.L3
ARM GAS  C:\Users\Lasse\AppData\Local\Temp\ccBNyjE1.s 			page 2


  22:CircularBuffer.c **** //        UART_1_PutString("Buffer empty\n\r");
  23:CircularBuffer.c ****         return 1;
  37              		.loc 1 23 0
  38 000a 0120     		movs	r0, #1
  39              	.LVL1:
  40 000c 7047     		bx	lr
  41              	.LVL2:
  42              	.L3:
  24:CircularBuffer.c ****     } else
  25:CircularBuffer.c ****         return 0;
  43              		.loc 1 25 0
  44 000e 0020     		movs	r0, #0
  45              	.LVL3:
  26:CircularBuffer.c **** }
  46              		.loc 1 26 0
  47 0010 7047     		bx	lr
  48              		.cfi_endproc
  49              	.LFE64:
  50              		.size	isEmpty, .-isEmpty
  51 0012 00BF     		.section	.text.clearBuffer,"ax",%progbits
  52              		.align	2
  53              		.thumb
  54              		.thumb_func
  55              		.type	clearBuffer, %function
  56              	clearBuffer:
  57              	.LFB67:
  27:CircularBuffer.c **** 
  28:CircularBuffer.c **** void push(struct CircBuf * circ_ptr, void (*newFuncPtr)(), int newParam) {
  29:CircularBuffer.c ****     struct queueElement * QIhandle;
  30:CircularBuffer.c ****     
  31:CircularBuffer.c ****     if (isFull(circ_ptr)) {
  32:CircularBuffer.c ****         ; //do nothing
  33:CircularBuffer.c ****     } else if (isEmpty(circ_ptr)) {
  34:CircularBuffer.c ****         UART_1_PutString("Pushing first element in buffer\n\r");
  35:CircularBuffer.c ****         circ_ptr->front = 0;
  36:CircularBuffer.c ****         circ_ptr->rear = 0;
  37:CircularBuffer.c ****         QIhandle = &circ_ptr->queueItem[circ_ptr->rear];
  38:CircularBuffer.c ****         QIhandle->funcPtr = newFuncPtr;
  39:CircularBuffer.c ****         QIhandle->param = newParam;
  40:CircularBuffer.c ****     } else {
  41:CircularBuffer.c ****         UART_1_PutString("Pushing element\n\r");
  42:CircularBuffer.c ****         circ_ptr->rear = (circ_ptr->rear + 1) % circ_ptr->maxLength;
  43:CircularBuffer.c ****         QIhandle = &circ_ptr->queueItem[circ_ptr->rear];
  44:CircularBuffer.c ****         QIhandle->funcPtr = newFuncPtr; //place function pointer in queue
  45:CircularBuffer.c ****         QIhandle->param = newParam; //place parameter in queue
  46:CircularBuffer.c ****     }
  47:CircularBuffer.c **** };
  48:CircularBuffer.c **** 
  49:CircularBuffer.c **** void pop(struct CircBuf * circ_ptr) {
  50:CircularBuffer.c ****     struct queueElement * QIhandle = &circ_ptr->queueItem[circ_ptr->front];
  51:CircularBuffer.c ****     
  52:CircularBuffer.c ****     if (!isEmpty(circ_ptr)) {
  53:CircularBuffer.c ****         UART_1_PutString("Popping element\n\r");
  54:CircularBuffer.c ****         (*QIhandle->funcPtr)(QIhandle->param); //perform operation in queue
  55:CircularBuffer.c ****         
  56:CircularBuffer.c ****         if (circ_ptr->front == circ_ptr->rear) {
  57:CircularBuffer.c ****             circ_ptr->front = -1;
ARM GAS  C:\Users\Lasse\AppData\Local\Temp\ccBNyjE1.s 			page 3


  58:CircularBuffer.c ****             circ_ptr->rear = -1;
  59:CircularBuffer.c ****         } else {
  60:CircularBuffer.c ****             circ_ptr->front = (circ_ptr->front + 1) % circ_ptr->maxLength;
  61:CircularBuffer.c ****         }
  62:CircularBuffer.c ****     }
  63:CircularBuffer.c **** };
  64:CircularBuffer.c **** 
  65:CircularBuffer.c **** static void clearBuffer(struct CircBuf * circ_ptr) {
  58              		.loc 1 65 0
  59              		.cfi_startproc
  60              		@ args = 0, pretend = 0, frame = 0
  61              		@ frame_needed = 0, uses_anonymous_args = 0
  62              		@ link register save eliminated.
  63              	.LVL4:
  66:CircularBuffer.c ****     circ_ptr->front = -1;
  64              		.loc 1 66 0
  65 0000 FF23     		movs	r3, #255
  66 0002 80F8B430 		strb	r3, [r0, #180]
  67:CircularBuffer.c ****     circ_ptr->rear = -1;
  67              		.loc 1 67 0
  68 0006 80F8B530 		strb	r3, [r0, #181]
  69 000a 7047     		bx	lr
  70              		.cfi_endproc
  71              	.LFE67:
  72              		.size	clearBuffer, .-clearBuffer
  73              		.section	.text.isFull,"ax",%progbits
  74              		.align	2
  75              		.thumb
  76              		.thumb_func
  77              		.type	isFull, %function
  78              	isFull:
  79              	.LFB63:
  12:CircularBuffer.c ****     if ((circ_ptr->rear + 1) % circ_ptr->maxLength ==  circ_ptr->front) {
  80              		.loc 1 12 0
  81              		.cfi_startproc
  82              		@ args = 0, pretend = 0, frame = 0
  83              		@ frame_needed = 0, uses_anonymous_args = 0
  84              	.LVL5:
  85 0000 08B5     		push	{r3, lr}
  86              		.cfi_def_cfa_offset 8
  87              		.cfi_offset 3, -8
  88              		.cfi_offset 14, -4
  13:CircularBuffer.c ****         UART_1_PutString("Buffer full\n\r");
  89              		.loc 1 13 0
  90 0002 90F9B530 		ldrsb	r3, [r0, #181]
  91 0006 0133     		adds	r3, r3, #1
  92 0008 90F8B610 		ldrb	r1, [r0, #182]	@ zero_extendqisi2
  93 000c 93FBF1F2 		sdiv	r2, r3, r1
  94 0010 01FB1233 		mls	r3, r1, r2, r3
  95 0014 90F9B420 		ldrsb	r2, [r0, #180]
  96 0018 9342     		cmp	r3, r2
  97 001a 04D1     		bne	.L7
  14:CircularBuffer.c ****         return 1;
  98              		.loc 1 14 0
  99 001c 0348     		ldr	r0, .L9
 100              	.LVL6:
 101 001e FFF7FEFF 		bl	UART_1_PutString
ARM GAS  C:\Users\Lasse\AppData\Local\Temp\ccBNyjE1.s 			page 4


 102              	.LVL7:
  15:CircularBuffer.c ****     } else
 103              		.loc 1 15 0
 104 0022 0120     		movs	r0, #1
 105 0024 08BD     		pop	{r3, pc}
 106              	.LVL8:
 107              	.L7:
  17:CircularBuffer.c **** }
 108              		.loc 1 17 0
 109 0026 0020     		movs	r0, #0
 110              	.LVL9:
  18:CircularBuffer.c **** 
 111              		.loc 1 18 0
 112 0028 08BD     		pop	{r3, pc}
 113              	.L10:
 114 002a 00BF     		.align	2
 115              	.L9:
 116 002c 00000000 		.word	.LC0
 117              		.cfi_endproc
 118              	.LFE63:
 119              		.size	isFull, .-isFull
 120              		.section	.text.push,"ax",%progbits
 121              		.align	2
 122              		.global	push
 123              		.thumb
 124              		.thumb_func
 125              		.type	push, %function
 126              	push:
 127              	.LFB65:
  28:CircularBuffer.c ****     struct queueElement * QIhandle;
 128              		.loc 1 28 0
 129              		.cfi_startproc
 130              		@ args = 0, pretend = 0, frame = 0
 131              		@ frame_needed = 0, uses_anonymous_args = 0
 132              	.LVL10:
 133 0000 70B5     		push	{r4, r5, r6, lr}
 134              		.cfi_def_cfa_offset 16
 135              		.cfi_offset 4, -16
 136              		.cfi_offset 5, -12
 137              		.cfi_offset 6, -8
 138              		.cfi_offset 14, -4
 139 0002 0446     		mov	r4, r0
 140 0004 0E46     		mov	r6, r1
 141 0006 1546     		mov	r5, r2
  31:CircularBuffer.c ****         ; //do nothing
 142              		.loc 1 31 0
 143 0008 FFF7FEFF 		bl	isFull
 144              	.LVL11:
 145 000c 10BB     		cbnz	r0, .L11
  33:CircularBuffer.c ****         UART_1_PutString("Pushing first element in buffer\n\r");
 146              		.loc 1 33 0
 147 000e 2046     		mov	r0, r4
 148 0010 FFF7FEFF 		bl	isEmpty
 149              	.LVL12:
 150 0014 50B1     		cbz	r0, .L13
  34:CircularBuffer.c ****         circ_ptr->front = 0;
 151              		.loc 1 34 0
ARM GAS  C:\Users\Lasse\AppData\Local\Temp\ccBNyjE1.s 			page 5


 152 0016 1048     		ldr	r0, .L15
 153 0018 FFF7FEFF 		bl	UART_1_PutString
 154              	.LVL13:
  35:CircularBuffer.c ****         circ_ptr->rear = 0;
 155              		.loc 1 35 0
 156 001c 0023     		movs	r3, #0
 157 001e 84F8B430 		strb	r3, [r4, #180]
  36:CircularBuffer.c ****         QIhandle = &circ_ptr->queueItem[circ_ptr->rear];
 158              		.loc 1 36 0
 159 0022 84F8B530 		strb	r3, [r4, #181]
 160              	.LVL14:
  38:CircularBuffer.c ****         QIhandle->param = newParam;
 161              		.loc 1 38 0
 162 0026 2660     		str	r6, [r4]
  39:CircularBuffer.c ****     } else {
 163              		.loc 1 39 0
 164 0028 6560     		str	r5, [r4, #4]
 165 002a 70BD     		pop	{r4, r5, r6, pc}
 166              	.LVL15:
 167              	.L13:
  41:CircularBuffer.c ****         circ_ptr->rear = (circ_ptr->rear + 1) % circ_ptr->maxLength;
 168              		.loc 1 41 0
 169 002c 0B48     		ldr	r0, .L15+4
 170 002e FFF7FEFF 		bl	UART_1_PutString
 171              	.LVL16:
  42:CircularBuffer.c ****         QIhandle = &circ_ptr->queueItem[circ_ptr->rear];
 172              		.loc 1 42 0
 173 0032 94F9B530 		ldrsb	r3, [r4, #181]
 174 0036 0133     		adds	r3, r3, #1
 175 0038 94F8B610 		ldrb	r1, [r4, #182]	@ zero_extendqisi2
 176 003c 93FBF1F2 		sdiv	r2, r3, r1
 177 0040 01FB1233 		mls	r3, r1, r2, r3
 178 0044 5BB2     		sxtb	r3, r3
 179 0046 84F8B530 		strb	r3, [r4, #181]
 180              	.LVL17:
  44:CircularBuffer.c ****         QIhandle->param = newParam; //place parameter in queue
 181              		.loc 1 44 0
 182 004a 44F83360 		str	r6, [r4, r3, lsl #3]
  45:CircularBuffer.c ****     }
 183              		.loc 1 45 0
 184 004e 04EBC304 		add	r4, r4, r3, lsl #3
 185              	.LVL18:
 186 0052 6560     		str	r5, [r4, #4]
 187              	.LVL19:
 188              	.L11:
 189 0054 70BD     		pop	{r4, r5, r6, pc}
 190              	.LVL20:
 191              	.L16:
 192 0056 00BF     		.align	2
 193              	.L15:
 194 0058 10000000 		.word	.LC1
 195 005c 34000000 		.word	.LC2
 196              		.cfi_endproc
 197              	.LFE65:
 198              		.size	push, .-push
 199              		.section	.text.pop,"ax",%progbits
 200              		.align	2
ARM GAS  C:\Users\Lasse\AppData\Local\Temp\ccBNyjE1.s 			page 6


 201              		.global	pop
 202              		.thumb
 203              		.thumb_func
 204              		.type	pop, %function
 205              	pop:
 206              	.LFB66:
  49:CircularBuffer.c ****     struct queueElement * QIhandle = &circ_ptr->queueItem[circ_ptr->front];
 207              		.loc 1 49 0
 208              		.cfi_startproc
 209              		@ args = 0, pretend = 0, frame = 0
 210              		@ frame_needed = 0, uses_anonymous_args = 0
 211              	.LVL21:
 212 0000 38B5     		push	{r3, r4, r5, lr}
 213              		.cfi_def_cfa_offset 16
 214              		.cfi_offset 3, -16
 215              		.cfi_offset 4, -12
 216              		.cfi_offset 5, -8
 217              		.cfi_offset 14, -4
 218 0002 0446     		mov	r4, r0
  50:CircularBuffer.c ****     
 219              		.loc 1 50 0
 220 0004 90F9B450 		ldrsb	r5, [r0, #180]
 221              	.LVL22:
  52:CircularBuffer.c ****         UART_1_PutString("Popping element\n\r");
 222              		.loc 1 52 0
 223 0008 FFF7FEFF 		bl	isEmpty
 224              	.LVL23:
 225 000c E8B9     		cbnz	r0, .L17
  53:CircularBuffer.c ****         (*QIhandle->funcPtr)(QIhandle->param); //perform operation in queue
 226              		.loc 1 53 0
 227 000e 0F48     		ldr	r0, .L21
 228 0010 FFF7FEFF 		bl	UART_1_PutString
 229              	.LVL24:
  54:CircularBuffer.c ****         
 230              		.loc 1 54 0
 231 0014 04EBC502 		add	r2, r4, r5, lsl #3
 232 0018 54F83530 		ldr	r3, [r4, r5, lsl #3]
 233 001c 5068     		ldr	r0, [r2, #4]
 234 001e 9847     		blx	r3
 235              	.LVL25:
  56:CircularBuffer.c ****             circ_ptr->front = -1;
 236              		.loc 1 56 0
 237 0020 94F9B430 		ldrsb	r3, [r4, #180]
 238 0024 94F9B520 		ldrsb	r2, [r4, #181]
 239 0028 9342     		cmp	r3, r2
 240 002a 05D1     		bne	.L19
  57:CircularBuffer.c ****             circ_ptr->rear = -1;
 241              		.loc 1 57 0
 242 002c FF23     		movs	r3, #255
 243 002e 84F8B430 		strb	r3, [r4, #180]
  58:CircularBuffer.c ****         } else {
 244              		.loc 1 58 0
 245 0032 84F8B530 		strb	r3, [r4, #181]
 246 0036 38BD     		pop	{r3, r4, r5, pc}
 247              	.LVL26:
 248              	.L19:
  60:CircularBuffer.c ****         }
ARM GAS  C:\Users\Lasse\AppData\Local\Temp\ccBNyjE1.s 			page 7


 249              		.loc 1 60 0
 250 0038 0133     		adds	r3, r3, #1
 251 003a 94F8B610 		ldrb	r1, [r4, #182]	@ zero_extendqisi2
 252 003e 93FBF1F2 		sdiv	r2, r3, r1
 253 0042 01FB1233 		mls	r3, r1, r2, r3
 254 0046 84F8B430 		strb	r3, [r4, #180]
 255              	.L17:
 256 004a 38BD     		pop	{r3, r4, r5, pc}
 257              	.LVL27:
 258              	.L22:
 259              		.align	2
 260              	.L21:
 261 004c 48000000 		.word	.LC3
 262              		.cfi_endproc
 263              	.LFE66:
 264              		.size	pop, .-pop
 265              		.section	.text.initCircbuf,"ax",%progbits
 266              		.align	2
 267              		.global	initCircbuf
 268              		.thumb
 269              		.thumb_func
 270              		.type	initCircbuf, %function
 271              	initCircbuf:
 272              	.LFB68:
  68:CircularBuffer.c **** }
  69:CircularBuffer.c **** 
  70:CircularBuffer.c **** void initCircbuf(struct CircBuf * circ_ptr) {
 273              		.loc 1 70 0
 274              		.cfi_startproc
 275              		@ args = 0, pretend = 0, frame = 0
 276              		@ frame_needed = 0, uses_anonymous_args = 0
 277              	.LVL28:
 278 0000 10B5     		push	{r4, lr}
 279              		.cfi_def_cfa_offset 8
 280              		.cfi_offset 4, -8
 281              		.cfi_offset 14, -4
 282 0002 0446     		mov	r4, r0
  71:CircularBuffer.c ****     UART_1_PutString("Buffer initializing\n\r");
 283              		.loc 1 71 0
 284 0004 0D48     		ldr	r0, .L25
 285              	.LVL29:
 286 0006 FFF7FEFF 		bl	UART_1_PutString
 287              	.LVL30:
  72:CircularBuffer.c ****     
  73:CircularBuffer.c ****     circ_ptr->maxLength = CIRCBUF_MAX_LENGTH;
 288              		.loc 1 73 0
 289 000a 1423     		movs	r3, #20
 290 000c 84F8B630 		strb	r3, [r4, #182]
  74:CircularBuffer.c ****     circ_ptr->front = -1;
 291              		.loc 1 74 0
 292 0010 FF23     		movs	r3, #255
 293 0012 84F8B430 		strb	r3, [r4, #180]
  75:CircularBuffer.c ****     circ_ptr->rear = -1;
 294              		.loc 1 75 0
 295 0016 84F8B530 		strb	r3, [r4, #181]
  76:CircularBuffer.c ****     circ_ptr->isFull = isFull;
 296              		.loc 1 76 0
ARM GAS  C:\Users\Lasse\AppData\Local\Temp\ccBNyjE1.s 			page 8


 297 001a 094B     		ldr	r3, .L25+4
 298 001c C4F8A830 		str	r3, [r4, #168]
  77:CircularBuffer.c ****     circ_ptr->isEmpty = isEmpty;
 299              		.loc 1 77 0
 300 0020 084B     		ldr	r3, .L25+8
 301 0022 C4F8AC30 		str	r3, [r4, #172]
  78:CircularBuffer.c ****     circ_ptr->clearBuffer = clearBuffer;
 302              		.loc 1 78 0
 303 0026 084B     		ldr	r3, .L25+12
 304 0028 C4F8B030 		str	r3, [r4, #176]
  79:CircularBuffer.c ****     circ_ptr->push = push;
 305              		.loc 1 79 0
 306 002c 074B     		ldr	r3, .L25+16
 307 002e C4F8A430 		str	r3, [r4, #164]
  80:CircularBuffer.c ****     circ_ptr->pop = pop;
 308              		.loc 1 80 0
 309 0032 074B     		ldr	r3, .L25+20
 310 0034 C4F8A030 		str	r3, [r4, #160]
 311 0038 10BD     		pop	{r4, pc}
 312              	.LVL31:
 313              	.L26:
 314 003a 00BF     		.align	2
 315              	.L25:
 316 003c 5C000000 		.word	.LC4
 317 0040 00000000 		.word	isFull
 318 0044 00000000 		.word	isEmpty
 319 0048 00000000 		.word	clearBuffer
 320 004c 00000000 		.word	push
 321 0050 00000000 		.word	pop
 322              		.cfi_endproc
 323              	.LFE68:
 324              		.size	initCircbuf, .-initCircbuf
 325              		.section	.rodata.str1.4,"aMS",%progbits,1
 326              		.align	2
 327              	.LC0:
 328 0000 42756666 		.ascii	"Buffer full\012\015\000"
 328      65722066 
 328      756C6C0A 
 328      0D00
 329 000e 0000     		.space	2
 330              	.LC1:
 331 0010 50757368 		.ascii	"Pushing first element in buffer\012\015\000"
 331      696E6720 
 331      66697273 
 331      7420656C 
 331      656D656E 
 332 0032 0000     		.space	2
 333              	.LC2:
 334 0034 50757368 		.ascii	"Pushing element\012\015\000"
 334      696E6720 
 334      656C656D 
 334      656E740A 
 334      0D00
 335 0046 0000     		.space	2
 336              	.LC3:
 337 0048 506F7070 		.ascii	"Popping element\012\015\000"
 337      696E6720 
ARM GAS  C:\Users\Lasse\AppData\Local\Temp\ccBNyjE1.s 			page 9


 337      656C656D 
 337      656E740A 
 337      0D00
 338 005a 0000     		.space	2
 339              	.LC4:
 340 005c 42756666 		.ascii	"Buffer initializing\012\015\000"
 340      65722069 
 340      6E697469 
 340      616C697A 
 340      696E670A 
 341              		.text
 342              	.Letext0:
 343              		.file 2 "c:\\program files (x86)\\cypress\\psoc creator\\4.2\\psoc creator\\import\\gnu\\arm\\5.4.
 344              		.file 3 "c:\\program files (x86)\\cypress\\psoc creator\\4.2\\psoc creator\\import\\gnu\\arm\\5.4.
 345              		.file 4 "Generated_Source\\PSoC5/cytypes.h"
 346              		.file 5 "CircularBuffer.h"
 347              		.file 6 "Generated_Source\\PSoC5/core_cm3.h"
 348              		.file 7 "Generated_Source\\PSoC5/UART_1.h"