ARM GAS  C:\Users\Lasse\AppData\Local\Temp\ccCzw5ym.s 			page 1


   1              		.syntax unified
   2              		.cpu cortex-m3
   3              		.fpu softvfp
   4              		.eabi_attribute 20, 1
   5              		.eabi_attribute 21, 1
   6              		.eabi_attribute 23, 3
   7              		.eabi_attribute 24, 1
   8              		.eabi_attribute 25, 1
   9              		.eabi_attribute 26, 1
  10              		.eabi_attribute 30, 1
  11              		.eabi_attribute 34, 1
  12              		.eabi_attribute 18, 4
  13              		.thumb
  14              		.syntax unified
  15              		.file	"main.c"
  16              		.text
  17              	.Ltext0:
  18              		.cfi_sections	.debug_frame
  19              		.section	.text.manualMode,"ax",%progbits
  20              		.align	2
  21              		.global	manualMode
  22              		.thumb
  23              		.thumb_func
  24              		.type	manualMode, %function
  25              	manualMode:
  26              	.LFB75:
  27              		.file 1 "main.c"
   1:main.c        **** /* ========================================
   2:main.c        ****  * PIGEON EXTERMINATION SYSTEM
   3:main.c        ****  * 
   4:main.c        ****  * PSoCcontroller Source File
   5:main.c        ****  * 
   6:main.c        ****  * Author: Lasse Krarup
   7:main.c        ****  * Version: 1.0
   8:main.c        ****  *
   9:main.c        ****  * ========================================
  10:main.c        **** */
  11:main.c        **** 
  12:main.c        **** // ========================== INCLUDES ===================================
  13:main.c        **** #include "project.h"
  14:main.c        **** #include "SonarDriver.h"
  15:main.c        **** #include "WaterPump.h"
  16:main.c        **** #include "MotorDriverX.h"
  17:main.c        **** #include "MotorDriverY.h"
  18:main.c        **** #include "WaterSensor.h"
  19:main.c        **** #include "CircularBuffer.h"
  20:main.c        **** #include "MoistureSensor.h"
  21:main.c        **** #include "SPI_driver_PSoC.h"
  22:main.c        **** #include "PSoCcontroller.h"
  23:main.c        **** 
  24:main.c        **** //Array of function pointer for ability to iterate through modes if necessary
  25:main.c        **** void (*states[5])(void) = {normalMode, powersavingMode, manualMode, automatiskVanding, standbyMode}
  26:main.c        **** 
  27:main.c        **** // =========== FOR TESTING ===========
  28:main.c        **** CY_ISR_PROTO( UARTisr );
  29:main.c        **** char msg[256];
  30:main.c        **** 
ARM GAS  C:\Users\Lasse\AppData\Local\Temp\ccCzw5ym.s 			page 2


  31:main.c        **** // ===================== START MAIN ===================================
  32:main.c        **** int main(void)
  33:main.c        **** {
  34:main.c        ****     CyGlobalIntEnable; /* Enable global interrupts. */
  35:main.c        ****     
  36:main.c        ****     // ~~~~~~~~~~~~ INITIALIZATION ~~~~~~~~~~~~~~~~
  37:main.c        ****     UART_1_Start();
  38:main.c        ****     
  39:main.c        ****     
  40:main.c        ****     //ISR_WaterLevel_StartEx( WaterLevelISRhandler ); //DONT LEAVE FLOATING!!! WILL CAUSE INTERRUPT
  41:main.c        ****     ISR_delay_StartEx( DelayTimerInterrupt );
  42:main.c        ****     initStepperX();
  43:main.c        ****     initStepperY();
  44:main.c        ****     initCircbuf(&circBuf);
  45:main.c        ****     Sonar_Start();
  46:main.c        ****     WaSensInit();
  47:main.c        ****     initWaterPump();
  48:main.c        ****     MoistureSensor_init();
  49:main.c        ****     SPI_start();
  50:main.c        ****     
  51:main.c        ****     SPI_send_resetToDefault();
  52:main.c        ****     CyDelay(1);
  53:main.c        ****     setMode(NORMAL_MODE); //default initial state
  54:main.c        ****     noWater = FALSE;
  55:main.c        ****     while(1) {
  56:main.c        **** //        if(Pin_ISR_WaSens_Read() == 1){//noWater == TRUE) {
  57:main.c        **** //            WaterPump_fireWater(FALSE);
  58:main.c        **** //            SPI_send_waterlevel(0);
  59:main.c        **** //            Pin_Low_WL_Write(1);
  60:main.c        **** //            setMode(STANDBY_MODE);
  61:main.c        **** //        }
  62:main.c        **** //        else {
  63:main.c        **** //            noWater = FALSE;
  64:main.c        **** //            Pin_Low_WL_Write(0);
  65:main.c        **** //        }
  66:main.c        ****         
  67:main.c        ****         if (SPI_recieved_flag == 1) {
  68:main.c        ****             Handle_SPI_recieved();
  69:main.c        ****         }
  70:main.c        ****         
  71:main.c        ****         currentState();
  72:main.c        ****         
  73:main.c        ****     }
  74:main.c        **** }
  75:main.c        **** 
  76:main.c        **** // ================ FOR TESTING ============
  77:main.c        **** CY_ISR(UARTisr) {
  78:main.c        ****     char input = UART_1_ReadRxData();
  79:main.c        ****     UART_1_PutString("Command received from UART\n\r");
  80:main.c        ****     switch(input) {
  81:main.c        ****         case 'A': //NORMAL MODE
  82:main.c        ****             setMode(NORMAL_MODE);
  83:main.c        ****             UART_1_PutString("Setting mode to Normal mode\n\r");
  84:main.c        ****             break;
  85:main.c        ****         case 'B': //MANUAL MODE
  86:main.c        ****             setMode(MANUAL_MODE);
  87:main.c        ****             UART_1_PutString("Setting mode to Manual mode\n\r");
ARM GAS  C:\Users\Lasse\AppData\Local\Temp\ccCzw5ym.s 			page 3


  88:main.c        ****             break; 
  89:main.c        ****         case 'C': //POWERSAVING MODE
  90:main.c        ****             setMode(POWERSAVING_MODE);
  91:main.c        ****             UART_1_PutString("Setting mode to Powersaving mode\n\r");
  92:main.c        ****             break;
  93:main.c        ****         case 'D': //STANDBY MODE
  94:main.c        ****             setMode(STANDBY_MODE);
  95:main.c        ****             UART_1_PutString("Setting mode to Standby mode\n\r");
  96:main.c        ****             break;
  97:main.c        ****         case 'E': //AUTOMATISK VANDING
  98:main.c        ****             setMode(AUTOMATISK_VANDING);
  99:main.c        ****             UART_1_PutString("Setting mode to Automatisk vanding mode\n\r");
 100:main.c        ****             break;
 101:main.c        ****         case 'F': //LEFT
 102:main.c        ****             if (mode == MANUAL_MODE) {
 103:main.c        ****                 circBuf.push(&circBuf, moveDegreesX, -5);
 104:main.c        ****             }
 105:main.c        ****             break;
 106:main.c        ****         case 'G': //RIGHT
 107:main.c        ****             if (mode == MANUAL_MODE) {
 108:main.c        ****                 circBuf.push(&circBuf, moveDegreesX, 5);
 109:main.c        ****             }
 110:main.c        ****             break;
 111:main.c        ****         case 'H': //UP
 112:main.c        ****             if (mode == MANUAL_MODE) {
 113:main.c        ****                 circBuf.push(&circBuf, moveDegreesY, 5);
 114:main.c        ****             }
 115:main.c        ****             break;
 116:main.c        ****         case 'I': //DOWN
 117:main.c        ****             if (mode == MANUAL_MODE) {
 118:main.c        ****                 circBuf.push(&circBuf, moveDegreesY, -5);
 119:main.c        ****             }
 120:main.c        ****             break;
 121:main.c        ****         case 'J': //START FIRING
 122:main.c        ****             if (mode == MANUAL_MODE) {
 123:main.c        ****                 circBuf.push(&circBuf, WaterPump_fireWater, TRUE);
 124:main.c        ****             }
 125:main.c        ****             break;
 126:main.c        ****         case 'K': //STOP FIRING
 127:main.c        ****             if (mode == MANUAL_MODE) {
 128:main.c        ****                 circBuf.push(&circBuf, WaterPump_fireWater, FALSE);
 129:main.c        ****             }
 130:main.c        ****             break;
 131:main.c        ****         case 'L': //test
 132:main.c        ****             UART_1_PutString("Send pigeon detected\n\r");
 133:main.c        ****             SPI_send_pigeon_detected();
 134:main.c        ****             break;
 135:main.c        ****         default:
 136:main.c        ****             break;
 137:main.c        ****     }
 138:main.c        **** }
 139:main.c        **** 
 140:main.c        **** // =================== INTERRUPT SERVICE ROUTINES ==============================
 141:main.c        **** 
 142:main.c        **** CY_ISR( DelayTimerInterrupt ) {
 143:main.c        ****     Delay_Timer_Stop(); //stop timer
 144:main.c        ****     Delay_Timer_ReadStatusRegister(); //clear interrupt
ARM GAS  C:\Users\Lasse\AppData\Local\Temp\ccCzw5ym.s 			page 4


 145:main.c        **** }
 146:main.c        **** 
 147:main.c        **** CY_ISR( WaterLevelISRhandler ) {
 148:main.c        ****     noWater = TRUE;   
 149:main.c        **** }
 150:main.c        **** 
 151:main.c        **** CY_ISR( stepperX_interrupt_handler ){
 152:main.c        ****     Timer_StepperX_Stop();
 153:main.c        ****     timerDoneFlagX = 1;
 154:main.c        **** }
 155:main.c        **** 
 156:main.c        **** CY_ISR( stepperY_interrupt_handler) {
 157:main.c        ****     Timer_StepperY_Stop();
 158:main.c        ****     timerDoneFlagY = 1;
 159:main.c        **** }
 160:main.c        **** 
 161:main.c        **** CY_ISR(ISR_SPI_RX_handler)
 162:main.c        **** {
 163:main.c        ****     SPI_1_ReadRxStatus();
 164:main.c        ****     //SPI_1_ClearRxBuffer();
 165:main.c        ****     
 166:main.c        ****     SPI_recieved = SPI_1_ReadRxData();
 167:main.c        ****     SPI_recieved_flag = 1;
 168:main.c        **** }
 169:main.c        **** // ===================== FUNCTION DEFINITIONS ===================================
 170:main.c        **** void setMode(enum Mode newMode){
 171:main.c        ****     if (mode >= NORMAL_MODE && mode <= STANDBY_MODE) {
 172:main.c        ****         currentState = states[newMode];
 173:main.c        ****         mode = newMode;
 174:main.c        ****     }
 175:main.c        **** }
 176:main.c        **** 
 177:main.c        **** void checkForPigeonAndShoot(void) {
 178:main.c        ****     
 179:main.c        ****     pigeonPosition = Sonar_GetPosition();
 180:main.c        ****     struct position detectedPosition = pigeonPosition;
 181:main.c        ****     
 182:main.c        ****     if (pigeonPosition.detected == 1) {
 183:main.c        ****         SPI_send_pigeon_detected(); //log
 184:main.c        ****         SPI_send_waterlevel(WaSensMeasure());
 185:main.c        ****         while(pigeonPosition.detected == 1) { //if pigeon detected...
 186:main.c        ****             
 187:main.c        ****             int targetX, targetY; //assign target X position
 188:main.c        ****             switch(pigeonPosition.width){
 189:main.c        ****                 case 1:
 190:main.c        ****                     targetX = (90-35) + pigeonPosition.distance/3;
 191:main.c        ****                     break;
 192:main.c        ****                 case 2:
 193:main.c        ****                     targetX = (90-30);
 194:main.c        ****                     break;
 195:main.c        ****                 case 3:
 196:main.c        ****                     targetX = (90-25) - pigeonPosition.distance/3;
 197:main.c        ****                     break;
 198:main.c        ****                 default: break;
 199:main.c        ****             }
 200:main.c        ****             
 201:main.c        ****             if (pigeonPosition.distance < 20) { //assign target Y position
ARM GAS  C:\Users\Lasse\AppData\Local\Temp\ccCzw5ym.s 			page 5


 202:main.c        ****                 targetY = -90;
 203:main.c        ****             } else if (pigeonPosition.distance > 20 && pigeonPosition.distance < 40) {
 204:main.c        ****                 targetY = -80;
 205:main.c        ****             } else if (pigeonPosition.distance > 40) {
 206:main.c        ****                 targetY = -70;   
 207:main.c        ****             } else {
 208:main.c        ****                 targetY = stepperPositionY;
 209:main.c        ****             }
 210:main.c        ****             
 211:main.c        ****             moveDegreesX(targetX - stepperPositionX); //move steppers...
 212:main.c        ****             moveDegreesY(targetY - stepperPositionY);
 213:main.c        ****             
 214:main.c        ****             while(  detectedPosition.width == pigeonPosition.width &&
 215:main.c        ****                     round(detectedPosition.distance)+5 > round(pigeonPosition.distance) &&
 216:main.c        ****                     round(detectedPosition.distance)-5 < round(pigeonPosition.distance)) { //fire w
 217:main.c        ****                 if (noWater == FALSE)
 218:main.c        ****                     WaterPump_fireWater(TRUE);
 219:main.c        ****                 else if (noWater == TRUE) {
 220:main.c        ****                     WaterPump_fireWater(FALSE);
 221:main.c        ****                 }    
 222:main.c        ****                 pigeonPosition = Sonar_GetPosition(); //renew position
 223:main.c        ****             }
 224:main.c        ****                    
 225:main.c        ****                     
 226:main.c        ****             pigeonPosition = Sonar_GetPosition(); //renew position
 227:main.c        ****         }
 228:main.c        ****         SPI_send_pigeon_shot_position((char)detectedPosition.width, (char) round(detectedPosition.d
 229:main.c        ****         WaterPump_fireWater(FALSE);
 230:main.c        ****     }
 231:main.c        ****     //exit_noWater:
 232:main.c        ****        // WaterPump_fireWater(FALSE);
 233:main.c        **** }
 234:main.c        **** 
 235:main.c        **** // ===================== STATE FUNCTIONS =========================================
 236:main.c        **** void normalMode(void) {
 237:main.c        ****     checkForPigeonAndShoot();
 238:main.c        ****     
 239:main.c        ****     Delay_Timer_Stop();
 240:main.c        ****     Delay_Timer_WritePeriod(DELAY_NORMAL_MODE_MS); //set period
 241:main.c        ****     Delay_Timer_WriteCounter(DELAY_NORMAL_MODE_MS); //reset
 242:main.c        ****     Delay_Timer_Start();
 243:main.c        ****     CyPmAltAct(PM_ALT_ACT_TIME_NONE, PM_ALT_ACT_SRC_INTERRUPT);
 244:main.c        **** }
 245:main.c        **** 
 246:main.c        **** void powersavingMode(void) {
 247:main.c        ****     checkForPigeonAndShoot();
 248:main.c        ****     CyDelay(5);
 249:main.c        ****     
 250:main.c        ****     Delay_Timer_Stop();
 251:main.c        ****     Delay_Timer_WritePeriod(DELAY_POWERSAVING_MODE_MS);
 252:main.c        ****     Delay_Timer_WriteCounter(DELAY_POWERSAVING_MODE_MS);
 253:main.c        ****     Delay_Timer_Start();
 254:main.c        ****     CyPmAltAct(PM_ALT_ACT_TIME_NONE, PM_ALT_ACT_SRC_INTERRUPT);
 255:main.c        **** }
 256:main.c        **** 
 257:main.c        **** void manualMode(void) {
  28              		.loc 1 257 0
ARM GAS  C:\Users\Lasse\AppData\Local\Temp\ccCzw5ym.s 			page 6


  29              		.cfi_startproc
  30              		@ args = 0, pretend = 0, frame = 0
  31              		@ frame_needed = 0, uses_anonymous_args = 0
  32 0000 08B5     		push	{r3, lr}
  33              		.cfi_def_cfa_offset 8
  34              		.cfi_offset 3, -8
  35              		.cfi_offset 14, -4
 258:main.c        ****     circBuf.pop(&circBuf); //pop from queue. pop function checks for empty queue and does nothing i
  36              		.loc 1 258 0
  37 0002 0448     		ldr	r0, .L3
  38 0004 D0F8A030 		ldr	r3, [r0, #160]
  39 0008 9847     		blx	r3
  40              	.LVL0:
 259:main.c        ****     CyDelay(10); //introduce small delay to reduce risk of getting trapped in interrupt
  41              		.loc 1 259 0
  42 000a 0A20     		movs	r0, #10
  43 000c FFF7FEFF 		bl	CyDelay
  44              	.LVL1:
  45 0010 08BD     		pop	{r3, pc}
  46              	.L4:
  47 0012 00BF     		.align	2
  48              	.L3:
  49 0014 00000000 		.word	circBuf
  50              		.cfi_endproc
  51              	.LFE75:
  52              		.size	manualMode, .-manualMode
  53              		.section	.text.DelayTimerInterrupt,"ax",%progbits
  54              		.align	2
  55              		.global	DelayTimerInterrupt
  56              		.thumb
  57              		.thumb_func
  58              		.type	DelayTimerInterrupt, %function
  59              	DelayTimerInterrupt:
  60              	.LFB66:
 142:main.c        ****     Delay_Timer_Stop(); //stop timer
  61              		.loc 1 142 0
  62              		.cfi_startproc
  63              		@ args = 0, pretend = 0, frame = 0
  64              		@ frame_needed = 0, uses_anonymous_args = 0
  65 0000 08B5     		push	{r3, lr}
  66              		.cfi_def_cfa_offset 8
  67              		.cfi_offset 3, -8
  68              		.cfi_offset 14, -4
 143:main.c        ****     Delay_Timer_ReadStatusRegister(); //clear interrupt
  69              		.loc 1 143 0
  70 0002 FFF7FEFF 		bl	Delay_Timer_Stop
  71              	.LVL2:
 144:main.c        **** }
  72              		.loc 1 144 0
  73 0006 FFF7FEFF 		bl	Delay_Timer_ReadStatusRegister
  74              	.LVL3:
  75 000a 08BD     		pop	{r3, pc}
  76              		.cfi_endproc
  77              	.LFE66:
  78              		.size	DelayTimerInterrupt, .-DelayTimerInterrupt
  79              		.section	.text.automatiskVanding,"ax",%progbits
  80              		.align	2
ARM GAS  C:\Users\Lasse\AppData\Local\Temp\ccCzw5ym.s 			page 7


  81              		.global	automatiskVanding
  82              		.thumb
  83              		.thumb_func
  84              		.type	automatiskVanding, %function
  85              	automatiskVanding:
  86              	.LFB76:
 260:main.c        **** }
 261:main.c        **** 
 262:main.c        **** void automatiskVanding(void) {
  87              		.loc 1 262 0
  88              		.cfi_startproc
  89              		@ args = 0, pretend = 0, frame = 0
  90              		@ frame_needed = 0, uses_anonymous_args = 0
  91 0000 08B5     		push	{r3, lr}
  92              		.cfi_def_cfa_offset 8
  93              		.cfi_offset 3, -8
  94              		.cfi_offset 14, -4
 263:main.c        ****     SPI_send_flowers_watered();
  95              		.loc 1 263 0
  96 0002 FFF7FEFF 		bl	SPI_send_flowers_watered
  97              	.LVL4:
 264:main.c        ****     if (MoistureSensor_getResult() > MOISTURE_THRESHOLD) {
  98              		.loc 1 264 0
  99 0006 FFF7FEFF 		bl	MoistureSensor_getResult
 100              	.LVL5:
 101 000a B0F57A7F 		cmp	r0, #1000
 102 000e 03DC     		bgt	.L8
 103 0010 08BD     		pop	{r3, pc}
 104              	.L10:
 265:main.c        ****         while ( MoistureSensor_getResult() > MOISTURE_THRESHOLD ){
 266:main.c        ****             WaterPump_fireWater(TRUE);//start firing
 105              		.loc 1 266 0
 106 0012 0120     		movs	r0, #1
 107 0014 FFF7FEFF 		bl	WaterPump_fireWater
 108              	.LVL6:
 109              	.L8:
 265:main.c        ****         while ( MoistureSensor_getResult() > MOISTURE_THRESHOLD ){
 110              		.loc 1 265 0
 111 0018 FFF7FEFF 		bl	MoistureSensor_getResult
 112              	.LVL7:
 113 001c B0F57A7F 		cmp	r0, #1000
 114 0020 F7DC     		bgt	.L10
 267:main.c        ****         }
 268:main.c        ****         WaterPump_fireWater(FALSE);//stop firing
 115              		.loc 1 268 0
 116 0022 0020     		movs	r0, #0
 117 0024 FFF7FEFF 		bl	WaterPump_fireWater
 118              	.LVL8:
 269:main.c        ****         SPI_send_flowers_watered();
 119              		.loc 1 269 0
 120 0028 FFF7FEFF 		bl	SPI_send_flowers_watered
 121              	.LVL9:
 122 002c 08BD     		pop	{r3, pc}
 123              		.cfi_endproc
 124              	.LFE76:
 125              		.size	automatiskVanding, .-automatiskVanding
 126 002e 00BF     		.section	.text.standbyMode,"ax",%progbits
ARM GAS  C:\Users\Lasse\AppData\Local\Temp\ccCzw5ym.s 			page 8


 127              		.align	2
 128              		.global	standbyMode
 129              		.thumb
 130              		.thumb_func
 131              		.type	standbyMode, %function
 132              	standbyMode:
 133              	.LFB77:
 270:main.c        ****     }
 271:main.c        **** }
 272:main.c        **** 
 273:main.c        **** void standbyMode(void) {
 134              		.loc 1 273 0
 135              		.cfi_startproc
 136              		@ args = 0, pretend = 0, frame = 0
 137              		@ frame_needed = 0, uses_anonymous_args = 0
 138 0000 08B5     		push	{r3, lr}
 139              		.cfi_def_cfa_offset 8
 140              		.cfi_offset 3, -8
 141              		.cfi_offset 14, -4
 274:main.c        ****     CyPmHibernate(); //Hibernate - use hardware reset to start PSoC again
 142              		.loc 1 274 0
 143 0002 FFF7FEFF 		bl	CyPmHibernate
 144              	.LVL10:
 145 0006 08BD     		pop	{r3, pc}
 146              		.cfi_endproc
 147              	.LFE77:
 148              		.size	standbyMode, .-standbyMode
 149              		.section	.text.WaterLevelISRhandler,"ax",%progbits
 150              		.align	2
 151              		.global	WaterLevelISRhandler
 152              		.thumb
 153              		.thumb_func
 154              		.type	WaterLevelISRhandler, %function
 155              	WaterLevelISRhandler:
 156              	.LFB67:
 147:main.c        ****     noWater = TRUE;   
 157              		.loc 1 147 0
 158              		.cfi_startproc
 159              		@ args = 0, pretend = 0, frame = 0
 160              		@ frame_needed = 0, uses_anonymous_args = 0
 161              		@ link register save eliminated.
 148:main.c        **** }
 162              		.loc 1 148 0
 163 0000 0122     		movs	r2, #1
 164 0002 014B     		ldr	r3, .L15
 165 0004 1A60     		str	r2, [r3]
 166 0006 7047     		bx	lr
 167              	.L16:
 168              		.align	2
 169              	.L15:
 170 0008 00000000 		.word	noWater
 171              		.cfi_endproc
 172              	.LFE67:
 173              		.size	WaterLevelISRhandler, .-WaterLevelISRhandler
 174              		.section	.text.stepperX_interrupt_handler,"ax",%progbits
 175              		.align	2
 176              		.global	stepperX_interrupt_handler
ARM GAS  C:\Users\Lasse\AppData\Local\Temp\ccCzw5ym.s 			page 9


 177              		.thumb
 178              		.thumb_func
 179              		.type	stepperX_interrupt_handler, %function
 180              	stepperX_interrupt_handler:
 181              	.LFB68:
 151:main.c        ****     Timer_StepperX_Stop();
 182              		.loc 1 151 0
 183              		.cfi_startproc
 184              		@ args = 0, pretend = 0, frame = 0
 185              		@ frame_needed = 0, uses_anonymous_args = 0
 186 0000 08B5     		push	{r3, lr}
 187              		.cfi_def_cfa_offset 8
 188              		.cfi_offset 3, -8
 189              		.cfi_offset 14, -4
 152:main.c        ****     timerDoneFlagX = 1;
 190              		.loc 1 152 0
 191 0002 FFF7FEFF 		bl	Timer_StepperX_Stop
 192              	.LVL11:
 153:main.c        **** }
 193              		.loc 1 153 0
 194 0006 0122     		movs	r2, #1
 195 0008 014B     		ldr	r3, .L19
 196 000a 1A70     		strb	r2, [r3]
 197 000c 08BD     		pop	{r3, pc}
 198              	.L20:
 199 000e 00BF     		.align	2
 200              	.L19:
 201 0010 00000000 		.word	timerDoneFlagX
 202              		.cfi_endproc
 203              	.LFE68:
 204              		.size	stepperX_interrupt_handler, .-stepperX_interrupt_handler
 205              		.section	.text.stepperY_interrupt_handler,"ax",%progbits
 206              		.align	2
 207              		.global	stepperY_interrupt_handler
 208              		.thumb
 209              		.thumb_func
 210              		.type	stepperY_interrupt_handler, %function
 211              	stepperY_interrupt_handler:
 212              	.LFB69:
 156:main.c        ****     Timer_StepperY_Stop();
 213              		.loc 1 156 0
 214              		.cfi_startproc
 215              		@ args = 0, pretend = 0, frame = 0
 216              		@ frame_needed = 0, uses_anonymous_args = 0
 217 0000 08B5     		push	{r3, lr}
 218              		.cfi_def_cfa_offset 8
 219              		.cfi_offset 3, -8
 220              		.cfi_offset 14, -4
 157:main.c        ****     timerDoneFlagY = 1;
 221              		.loc 1 157 0
 222 0002 FFF7FEFF 		bl	Timer_StepperY_Stop
 223              	.LVL12:
 158:main.c        **** }
 224              		.loc 1 158 0
 225 0006 0122     		movs	r2, #1
 226 0008 014B     		ldr	r3, .L23
 227 000a 1A70     		strb	r2, [r3]
ARM GAS  C:\Users\Lasse\AppData\Local\Temp\ccCzw5ym.s 			page 10


 228 000c 08BD     		pop	{r3, pc}
 229              	.L24:
 230 000e 00BF     		.align	2
 231              	.L23:
 232 0010 00000000 		.word	timerDoneFlagY
 233              		.cfi_endproc
 234              	.LFE69:
 235              		.size	stepperY_interrupt_handler, .-stepperY_interrupt_handler
 236              		.section	.text.ISR_SPI_RX_handler,"ax",%progbits
 237              		.align	2
 238              		.global	ISR_SPI_RX_handler
 239              		.thumb
 240              		.thumb_func
 241              		.type	ISR_SPI_RX_handler, %function
 242              	ISR_SPI_RX_handler:
 243              	.LFB70:
 162:main.c        ****     SPI_1_ReadRxStatus();
 244              		.loc 1 162 0
 245              		.cfi_startproc
 246              		@ args = 0, pretend = 0, frame = 0
 247              		@ frame_needed = 0, uses_anonymous_args = 0
 248 0000 08B5     		push	{r3, lr}
 249              		.cfi_def_cfa_offset 8
 250              		.cfi_offset 3, -8
 251              		.cfi_offset 14, -4
 163:main.c        ****     //SPI_1_ClearRxBuffer();
 252              		.loc 1 163 0
 253 0002 FFF7FEFF 		bl	SPI_1_ReadRxStatus
 254              	.LVL13:
 166:main.c        ****     SPI_recieved_flag = 1;
 255              		.loc 1 166 0
 256 0006 FFF7FEFF 		bl	SPI_1_ReadRxData
 257              	.LVL14:
 258 000a 034B     		ldr	r3, .L27
 259 000c 1870     		strb	r0, [r3]
 167:main.c        **** }
 260              		.loc 1 167 0
 261 000e 0122     		movs	r2, #1
 262 0010 024B     		ldr	r3, .L27+4
 263 0012 1A70     		strb	r2, [r3]
 264 0014 08BD     		pop	{r3, pc}
 265              	.L28:
 266 0016 00BF     		.align	2
 267              	.L27:
 268 0018 00000000 		.word	SPI_recieved
 269 001c 00000000 		.word	SPI_recieved_flag
 270              		.cfi_endproc
 271              	.LFE70:
 272              		.size	ISR_SPI_RX_handler, .-ISR_SPI_RX_handler
 273              		.section	.text.setMode,"ax",%progbits
 274              		.align	2
 275              		.global	setMode
 276              		.thumb
 277              		.thumb_func
 278              		.type	setMode, %function
 279              	setMode:
 280              	.LFB71:
ARM GAS  C:\Users\Lasse\AppData\Local\Temp\ccCzw5ym.s 			page 11


 170:main.c        ****     if (mode >= NORMAL_MODE && mode <= STANDBY_MODE) {
 281              		.loc 1 170 0
 282              		.cfi_startproc
 283              		@ args = 0, pretend = 0, frame = 0
 284              		@ frame_needed = 0, uses_anonymous_args = 0
 285              		@ link register save eliminated.
 286              	.LVL15:
 171:main.c        ****         currentState = states[newMode];
 287              		.loc 1 171 0
 288 0000 054B     		ldr	r3, .L31
 289 0002 1B78     		ldrb	r3, [r3]	@ zero_extendqisi2
 290 0004 042B     		cmp	r3, #4
 291 0006 06D8     		bhi	.L29
 172:main.c        ****         mode = newMode;
 292              		.loc 1 172 0
 293 0008 044B     		ldr	r3, .L31+4
 294 000a 53F82020 		ldr	r2, [r3, r0, lsl #2]
 295 000e 044B     		ldr	r3, .L31+8
 296 0010 1A60     		str	r2, [r3]
 173:main.c        ****     }
 297              		.loc 1 173 0
 298 0012 014B     		ldr	r3, .L31
 299 0014 1870     		strb	r0, [r3]
 300              	.L29:
 301 0016 7047     		bx	lr
 302              	.L32:
 303              		.align	2
 304              	.L31:
 305 0018 00000000 		.word	mode
 306 001c 00000000 		.word	.LANCHOR0
 307 0020 00000000 		.word	currentState
 308              		.cfi_endproc
 309              	.LFE71:
 310              		.size	setMode, .-setMode
 311              		.section	.text.main,"ax",%progbits
 312              		.align	2
 313              		.global	main
 314              		.thumb
 315              		.thumb_func
 316              		.type	main, %function
 317              	main:
 318              	.LFB64:
  33:main.c        ****     CyGlobalIntEnable; /* Enable global interrupts. */
 319              		.loc 1 33 0
 320              		.cfi_startproc
 321              		@ Volatile: function does not return.
 322              		@ args = 0, pretend = 0, frame = 0
 323              		@ frame_needed = 0, uses_anonymous_args = 0
 324 0000 08B5     		push	{r3, lr}
 325              		.cfi_def_cfa_offset 8
 326              		.cfi_offset 3, -8
 327              		.cfi_offset 14, -4
  34:main.c        ****     
 328              		.loc 1 34 0
 329              		.syntax unified
 330              	@ 34 "main.c" 1
 331 0002 62B6     		CPSIE   i
ARM GAS  C:\Users\Lasse\AppData\Local\Temp\ccCzw5ym.s 			page 12


 332              	@ 0 "" 2
  37:main.c        ****     
 333              		.loc 1 37 0
 334              		.thumb
 335              		.syntax unified
 336 0004 FFF7FEFF 		bl	UART_1_Start
 337              	.LVL16:
  41:main.c        ****     initStepperX();
 338              		.loc 1 41 0
 339 0008 1448     		ldr	r0, .L37
 340 000a FFF7FEFF 		bl	ISR_delay_StartEx
 341              	.LVL17:
  42:main.c        ****     initStepperY();
 342              		.loc 1 42 0
 343 000e FFF7FEFF 		bl	initStepperX
 344              	.LVL18:
  43:main.c        ****     initCircbuf(&circBuf);
 345              		.loc 1 43 0
 346 0012 FFF7FEFF 		bl	initStepperY
 347              	.LVL19:
  44:main.c        ****     Sonar_Start();
 348              		.loc 1 44 0
 349 0016 1248     		ldr	r0, .L37+4
 350 0018 FFF7FEFF 		bl	initCircbuf
 351              	.LVL20:
  45:main.c        ****     WaSensInit();
 352              		.loc 1 45 0
 353 001c FFF7FEFF 		bl	Sonar_Start
 354              	.LVL21:
  46:main.c        ****     initWaterPump();
 355              		.loc 1 46 0
 356 0020 FFF7FEFF 		bl	WaSensInit
 357              	.LVL22:
  47:main.c        ****     MoistureSensor_init();
 358              		.loc 1 47 0
 359 0024 FFF7FEFF 		bl	initWaterPump
 360              	.LVL23:
  48:main.c        ****     SPI_start();
 361              		.loc 1 48 0
 362 0028 FFF7FEFF 		bl	MoistureSensor_init
 363              	.LVL24:
  49:main.c        ****     
 364              		.loc 1 49 0
 365 002c FFF7FEFF 		bl	SPI_start
 366              	.LVL25:
  51:main.c        ****     CyDelay(1);
 367              		.loc 1 51 0
 368 0030 FFF7FEFF 		bl	SPI_send_resetToDefault
 369              	.LVL26:
  52:main.c        ****     setMode(NORMAL_MODE); //default initial state
 370              		.loc 1 52 0
 371 0034 0120     		movs	r0, #1
 372 0036 FFF7FEFF 		bl	CyDelay
 373              	.LVL27:
  53:main.c        ****     noWater = FALSE;
 374              		.loc 1 53 0
 375 003a 0020     		movs	r0, #0
ARM GAS  C:\Users\Lasse\AppData\Local\Temp\ccCzw5ym.s 			page 13


 376 003c FFF7FEFF 		bl	setMode
 377              	.LVL28:
  54:main.c        ****     while(1) {
 378              		.loc 1 54 0
 379 0040 0022     		movs	r2, #0
 380 0042 084B     		ldr	r3, .L37+8
 381 0044 1A60     		str	r2, [r3]
 382              	.L35:
  67:main.c        ****             Handle_SPI_recieved();
 383              		.loc 1 67 0
 384 0046 084B     		ldr	r3, .L37+12
 385 0048 1B78     		ldrb	r3, [r3]	@ zero_extendqisi2
 386 004a 012B     		cmp	r3, #1
 387 004c 01D1     		bne	.L34
  68:main.c        ****         }
 388              		.loc 1 68 0
 389 004e FFF7FEFF 		bl	Handle_SPI_recieved
 390              	.LVL29:
 391              	.L34:
  71:main.c        ****         
 392              		.loc 1 71 0
 393 0052 064B     		ldr	r3, .L37+16
 394 0054 1B68     		ldr	r3, [r3]
 395 0056 9847     		blx	r3
 396              	.LVL30:
  73:main.c        **** }
 397              		.loc 1 73 0
 398 0058 F5E7     		b	.L35
 399              	.L38:
 400 005a 00BF     		.align	2
 401              	.L37:
 402 005c 00000000 		.word	DelayTimerInterrupt
 403 0060 00000000 		.word	circBuf
 404 0064 00000000 		.word	noWater
 405 0068 00000000 		.word	SPI_recieved_flag
 406 006c 00000000 		.word	currentState
 407              		.cfi_endproc
 408              	.LFE64:
 409              		.size	main, .-main
 410              		.section	.text.UARTisr,"ax",%progbits
 411              		.align	2
 412              		.global	UARTisr
 413              		.thumb
 414              		.thumb_func
 415              		.type	UARTisr, %function
 416              	UARTisr:
 417              	.LFB65:
  77:main.c        ****     char input = UART_1_ReadRxData();
 418              		.loc 1 77 0
 419              		.cfi_startproc
 420              		@ args = 0, pretend = 0, frame = 0
 421              		@ frame_needed = 0, uses_anonymous_args = 0
 422 0000 10B5     		push	{r4, lr}
 423              		.cfi_def_cfa_offset 8
 424              		.cfi_offset 4, -8
 425              		.cfi_offset 14, -4
  78:main.c        ****     UART_1_PutString("Command received from UART\n\r");
ARM GAS  C:\Users\Lasse\AppData\Local\Temp\ccCzw5ym.s 			page 14


 426              		.loc 1 78 0
 427 0002 FFF7FEFF 		bl	UART_1_ReadRxData
 428              	.LVL31:
 429 0006 0446     		mov	r4, r0
 430              	.LVL32:
  79:main.c        ****     switch(input) {
 431              		.loc 1 79 0
 432 0008 3D48     		ldr	r0, .L55
 433 000a FFF7FEFF 		bl	UART_1_PutString
 434              	.LVL33:
  80:main.c        ****         case 'A': //NORMAL MODE
 435              		.loc 1 80 0
 436 000e A4F14100 		sub	r0, r4, #65
 437 0012 0B28     		cmp	r0, #11
 438 0014 73D8     		bhi	.L39
 439 0016 DFE800F0 		tbb	[pc, r0]
 440              	.L42:
 441 001a 06       		.byte	(.L41-.L42)/2
 442 001b 0D       		.byte	(.L43-.L42)/2
 443 001c 14       		.byte	(.L44-.L42)/2
 444 001d 1B       		.byte	(.L45-.L42)/2
 445 001e 22       		.byte	(.L46-.L42)/2
 446 001f 29       		.byte	(.L47-.L42)/2
 447 0020 35       		.byte	(.L48-.L42)/2
 448 0021 40       		.byte	(.L49-.L42)/2
 449 0022 4B       		.byte	(.L50-.L42)/2
 450 0023 57       		.byte	(.L51-.L42)/2
 451 0024 62       		.byte	(.L52-.L42)/2
 452 0025 6D       		.byte	(.L53-.L42)/2
 453              		.p2align 1
 454              	.L41:
  82:main.c        ****             UART_1_PutString("Setting mode to Normal mode\n\r");
 455              		.loc 1 82 0
 456 0026 0020     		movs	r0, #0
 457 0028 FFF7FEFF 		bl	setMode
 458              	.LVL34:
  83:main.c        ****             break;
 459              		.loc 1 83 0
 460 002c 3548     		ldr	r0, .L55+4
 461 002e FFF7FEFF 		bl	UART_1_PutString
 462              	.LVL35:
  84:main.c        ****         case 'B': //MANUAL MODE
 463              		.loc 1 84 0
 464 0032 10BD     		pop	{r4, pc}
 465              	.LVL36:
 466              	.L43:
  86:main.c        ****             UART_1_PutString("Setting mode to Manual mode\n\r");
 467              		.loc 1 86 0
 468 0034 0220     		movs	r0, #2
 469 0036 FFF7FEFF 		bl	setMode
 470              	.LVL37:
  87:main.c        ****             break; 
 471              		.loc 1 87 0
 472 003a 3348     		ldr	r0, .L55+8
 473 003c FFF7FEFF 		bl	UART_1_PutString
 474              	.LVL38:
  88:main.c        ****         case 'C': //POWERSAVING MODE
ARM GAS  C:\Users\Lasse\AppData\Local\Temp\ccCzw5ym.s 			page 15


 475              		.loc 1 88 0
 476 0040 10BD     		pop	{r4, pc}
 477              	.LVL39:
 478              	.L44:
  90:main.c        ****             UART_1_PutString("Setting mode to Powersaving mode\n\r");
 479              		.loc 1 90 0
 480 0042 0120     		movs	r0, #1
 481 0044 FFF7FEFF 		bl	setMode
 482              	.LVL40:
  91:main.c        ****             break;
 483              		.loc 1 91 0
 484 0048 3048     		ldr	r0, .L55+12
 485 004a FFF7FEFF 		bl	UART_1_PutString
 486              	.LVL41:
  92:main.c        ****         case 'D': //STANDBY MODE
 487              		.loc 1 92 0
 488 004e 10BD     		pop	{r4, pc}
 489              	.LVL42:
 490              	.L45:
  94:main.c        ****             UART_1_PutString("Setting mode to Standby mode\n\r");
 491              		.loc 1 94 0
 492 0050 0420     		movs	r0, #4
 493 0052 FFF7FEFF 		bl	setMode
 494              	.LVL43:
  95:main.c        ****             break;
 495              		.loc 1 95 0
 496 0056 2E48     		ldr	r0, .L55+16
 497 0058 FFF7FEFF 		bl	UART_1_PutString
 498              	.LVL44:
  96:main.c        ****         case 'E': //AUTOMATISK VANDING
 499              		.loc 1 96 0
 500 005c 10BD     		pop	{r4, pc}
 501              	.LVL45:
 502              	.L46:
  98:main.c        ****             UART_1_PutString("Setting mode to Automatisk vanding mode\n\r");
 503              		.loc 1 98 0
 504 005e 0320     		movs	r0, #3
 505 0060 FFF7FEFF 		bl	setMode
 506              	.LVL46:
  99:main.c        ****             break;
 507              		.loc 1 99 0
 508 0064 2B48     		ldr	r0, .L55+20
 509 0066 FFF7FEFF 		bl	UART_1_PutString
 510              	.LVL47:
 100:main.c        ****         case 'F': //LEFT
 511              		.loc 1 100 0
 512 006a 10BD     		pop	{r4, pc}
 513              	.LVL48:
 514              	.L47:
 102:main.c        ****                 circBuf.push(&circBuf, moveDegreesX, -5);
 515              		.loc 1 102 0
 516 006c 2A4B     		ldr	r3, .L55+24
 517 006e 1B78     		ldrb	r3, [r3]	@ zero_extendqisi2
 518 0070 022B     		cmp	r3, #2
 519 0072 44D1     		bne	.L39
 103:main.c        ****             }
 520              		.loc 1 103 0
ARM GAS  C:\Users\Lasse\AppData\Local\Temp\ccCzw5ym.s 			page 16


 521 0074 2948     		ldr	r0, .L55+28
 522 0076 D0F8A430 		ldr	r3, [r0, #164]
 523 007a 6FF00402 		mvn	r2, #4
 524 007e 2849     		ldr	r1, .L55+32
 525 0080 9847     		blx	r3
 526              	.LVL49:
 527 0082 10BD     		pop	{r4, pc}
 528              	.LVL50:
 529              	.L48:
 107:main.c        ****                 circBuf.push(&circBuf, moveDegreesX, 5);
 530              		.loc 1 107 0
 531 0084 244B     		ldr	r3, .L55+24
 532 0086 1B78     		ldrb	r3, [r3]	@ zero_extendqisi2
 533 0088 022B     		cmp	r3, #2
 534 008a 38D1     		bne	.L39
 108:main.c        ****             }
 535              		.loc 1 108 0
 536 008c 2348     		ldr	r0, .L55+28
 537 008e D0F8A430 		ldr	r3, [r0, #164]
 538 0092 0522     		movs	r2, #5
 539 0094 2249     		ldr	r1, .L55+32
 540 0096 9847     		blx	r3
 541              	.LVL51:
 542 0098 10BD     		pop	{r4, pc}
 543              	.LVL52:
 544              	.L49:
 112:main.c        ****                 circBuf.push(&circBuf, moveDegreesY, 5);
 545              		.loc 1 112 0
 546 009a 1F4B     		ldr	r3, .L55+24
 547 009c 1B78     		ldrb	r3, [r3]	@ zero_extendqisi2
 548 009e 022B     		cmp	r3, #2
 549 00a0 2DD1     		bne	.L39
 113:main.c        ****             }
 550              		.loc 1 113 0
 551 00a2 1E48     		ldr	r0, .L55+28
 552 00a4 D0F8A430 		ldr	r3, [r0, #164]
 553 00a8 0522     		movs	r2, #5
 554 00aa 1E49     		ldr	r1, .L55+36
 555 00ac 9847     		blx	r3
 556              	.LVL53:
 557 00ae 10BD     		pop	{r4, pc}
 558              	.LVL54:
 559              	.L50:
 117:main.c        ****                 circBuf.push(&circBuf, moveDegreesY, -5);
 560              		.loc 1 117 0
 561 00b0 194B     		ldr	r3, .L55+24
 562 00b2 1B78     		ldrb	r3, [r3]	@ zero_extendqisi2
 563 00b4 022B     		cmp	r3, #2
 564 00b6 22D1     		bne	.L39
 118:main.c        ****             }
 565              		.loc 1 118 0
 566 00b8 1848     		ldr	r0, .L55+28
 567 00ba D0F8A430 		ldr	r3, [r0, #164]
 568 00be 6FF00402 		mvn	r2, #4
 569 00c2 1849     		ldr	r1, .L55+36
 570 00c4 9847     		blx	r3
 571              	.LVL55:
ARM GAS  C:\Users\Lasse\AppData\Local\Temp\ccCzw5ym.s 			page 17


 572 00c6 10BD     		pop	{r4, pc}
 573              	.LVL56:
 574              	.L51:
 122:main.c        ****                 circBuf.push(&circBuf, WaterPump_fireWater, TRUE);
 575              		.loc 1 122 0
 576 00c8 134B     		ldr	r3, .L55+24
 577 00ca 1B78     		ldrb	r3, [r3]	@ zero_extendqisi2
 578 00cc 022B     		cmp	r3, #2
 579 00ce 16D1     		bne	.L39
 123:main.c        ****             }
 580              		.loc 1 123 0
 581 00d0 1248     		ldr	r0, .L55+28
 582 00d2 D0F8A430 		ldr	r3, [r0, #164]
 583 00d6 0122     		movs	r2, #1
 584 00d8 1349     		ldr	r1, .L55+40
 585 00da 9847     		blx	r3
 586              	.LVL57:
 587 00dc 10BD     		pop	{r4, pc}
 588              	.LVL58:
 589              	.L52:
 127:main.c        ****                 circBuf.push(&circBuf, WaterPump_fireWater, FALSE);
 590              		.loc 1 127 0
 591 00de 0E4B     		ldr	r3, .L55+24
 592 00e0 1B78     		ldrb	r3, [r3]	@ zero_extendqisi2
 593 00e2 022B     		cmp	r3, #2
 594 00e4 0BD1     		bne	.L39
 128:main.c        ****             }
 595              		.loc 1 128 0
 596 00e6 0D48     		ldr	r0, .L55+28
 597 00e8 D0F8A430 		ldr	r3, [r0, #164]
 598 00ec 0022     		movs	r2, #0
 599 00ee 0E49     		ldr	r1, .L55+40
 600 00f0 9847     		blx	r3
 601              	.LVL59:
 602 00f2 10BD     		pop	{r4, pc}
 603              	.LVL60:
 604              	.L53:
 132:main.c        ****             SPI_send_pigeon_detected();
 605              		.loc 1 132 0
 606 00f4 0D48     		ldr	r0, .L55+44
 607 00f6 FFF7FEFF 		bl	UART_1_PutString
 608              	.LVL61:
 133:main.c        ****             break;
 609              		.loc 1 133 0
 610 00fa FFF7FEFF 		bl	SPI_send_pigeon_detected
 611              	.LVL62:
 612              	.L39:
 613 00fe 10BD     		pop	{r4, pc}
 614              	.LVL63:
 615              	.L56:
 616              		.align	2
 617              	.L55:
 618 0100 00000000 		.word	.LC0
 619 0104 20000000 		.word	.LC1
 620 0108 40000000 		.word	.LC2
 621 010c 60000000 		.word	.LC3
 622 0110 84000000 		.word	.LC4
ARM GAS  C:\Users\Lasse\AppData\Local\Temp\ccCzw5ym.s 			page 18


 623 0114 A4000000 		.word	.LC5
 624 0118 00000000 		.word	mode
 625 011c 00000000 		.word	circBuf
 626 0120 00000000 		.word	moveDegreesX
 627 0124 00000000 		.word	moveDegreesY
 628 0128 00000000 		.word	WaterPump_fireWater
 629 012c D0000000 		.word	.LC6
 630              		.cfi_endproc
 631              	.LFE65:
 632              		.size	UARTisr, .-UARTisr
 633              		.global	__aeabi_ddiv
 634              		.global	__aeabi_dadd
 635              		.global	__aeabi_d2iz
 636              		.global	__aeabi_dsub
 637              		.global	__aeabi_dcmplt
 638              		.global	__aeabi_dcmpgt
 639              		.global	__aeabi_d2uiz
 640              		.section	.text.checkForPigeonAndShoot,"ax",%progbits
 641              		.align	2
 642              		.global	checkForPigeonAndShoot
 643              		.thumb
 644              		.thumb_func
 645              		.type	checkForPigeonAndShoot, %function
 646              	checkForPigeonAndShoot:
 647              	.LFB72:
 177:main.c        ****     
 648              		.loc 1 177 0
 649              		.cfi_startproc
 650              		@ args = 0, pretend = 0, frame = 32
 651              		@ frame_needed = 0, uses_anonymous_args = 0
 652 0000 2DE9F047 		push	{r4, r5, r6, r7, r8, r9, r10, lr}
 653              		.cfi_def_cfa_offset 32
 654              		.cfi_offset 4, -32
 655              		.cfi_offset 5, -28
 656              		.cfi_offset 6, -24
 657              		.cfi_offset 7, -20
 658              		.cfi_offset 8, -16
 659              		.cfi_offset 9, -12
 660              		.cfi_offset 10, -8
 661              		.cfi_offset 14, -4
 662 0004 88B0     		sub	sp, sp, #32
 663              		.cfi_def_cfa_offset 64
 179:main.c        ****     struct position detectedPosition = pigeonPosition;
 664              		.loc 1 179 0
 665 0006 6B4C     		ldr	r4, .L81
 666 0008 6846     		mov	r0, sp
 667 000a FFF7FEFF 		bl	Sonar_GetPosition
 668              	.LVL64:
 669 000e 9DE80F00 		ldmia	sp, {r0, r1, r2, r3}
 670 0012 84E80F00 		stmia	r4, {r0, r1, r2, r3}
 180:main.c        ****     
 671              		.loc 1 180 0
 672 0016 08AD     		add	r5, sp, #32
 673 0018 05E90F00 		stmdb	r5, {r0, r1, r2, r3}
 182:main.c        ****         SPI_send_pigeon_detected(); //log
 674              		.loc 1 182 0
 675 001c 2378     		ldrb	r3, [r4]	@ zero_extendqisi2
ARM GAS  C:\Users\Lasse\AppData\Local\Temp\ccCzw5ym.s 			page 19


 676 001e 012B     		cmp	r3, #1
 677 0020 40F0C480 		bne	.L57
 183:main.c        ****         SPI_send_waterlevel(WaSensMeasure());
 678              		.loc 1 183 0
 679 0024 FFF7FEFF 		bl	SPI_send_pigeon_detected
 680              	.LVL65:
 184:main.c        ****         while(pigeonPosition.detected == 1) { //if pigeon detected...
 681              		.loc 1 184 0
 682 0028 FFF7FEFF 		bl	WaSensMeasure
 683              	.LVL66:
 684 002c C0B2     		uxtb	r0, r0
 685 002e FFF7FEFF 		bl	SPI_send_waterlevel
 686              	.LVL67:
 185:main.c        ****             
 687              		.loc 1 185 0
 688 0032 A8E0     		b	.L59
 689              	.LVL68:
 690              	.L73:
 691              	.LBB2:
 188:main.c        ****                 case 1:
 692              		.loc 1 188 0
 693 0034 5F4B     		ldr	r3, .L81
 694 0036 5B68     		ldr	r3, [r3, #4]
 695 0038 022B     		cmp	r3, #2
 696 003a 23D0     		beq	.L74
 697 003c 032B     		cmp	r3, #3
 698 003e 10D0     		beq	.L62
 699 0040 012B     		cmp	r3, #1
 700 0042 21D1     		bne	.L61
 190:main.c        ****                     break;
 701              		.loc 1 190 0
 702 0044 0022     		movs	r2, #0
 703 0046 5C4B     		ldr	r3, .L81+4
 704 0048 5A49     		ldr	r1, .L81
 705 004a D1E90201 		ldrd	r0, [r1, #8]
 706 004e FFF7FEFF 		bl	__aeabi_ddiv
 707              	.LVL69:
 708 0052 0022     		movs	r2, #0
 709 0054 594B     		ldr	r3, .L81+8
 710 0056 FFF7FEFF 		bl	__aeabi_dadd
 711              	.LVL70:
 712 005a FFF7FEFF 		bl	__aeabi_d2iz
 713              	.LVL71:
 714 005e 8246     		mov	r10, r0
 715              	.LVL72:
 191:main.c        ****                 case 2:
 716              		.loc 1 191 0
 717 0060 12E0     		b	.L61
 718              	.LVL73:
 719              	.L62:
 196:main.c        ****                     break;
 720              		.loc 1 196 0
 721 0062 0022     		movs	r2, #0
 722 0064 544B     		ldr	r3, .L81+4
 723 0066 5349     		ldr	r1, .L81
 724 0068 D1E90201 		ldrd	r0, [r1, #8]
 725 006c FFF7FEFF 		bl	__aeabi_ddiv
ARM GAS  C:\Users\Lasse\AppData\Local\Temp\ccCzw5ym.s 			page 20


 726              	.LVL74:
 727 0070 0246     		mov	r2, r0
 728 0072 0B46     		mov	r3, r1
 729 0074 0020     		movs	r0, #0
 730 0076 5249     		ldr	r1, .L81+12
 731 0078 FFF7FEFF 		bl	__aeabi_dsub
 732              	.LVL75:
 733 007c FFF7FEFF 		bl	__aeabi_d2iz
 734              	.LVL76:
 735 0080 8246     		mov	r10, r0
 736              	.LVL77:
 197:main.c        ****                 default: break;
 737              		.loc 1 197 0
 738 0082 01E0     		b	.L61
 739              	.LVL78:
 740              	.L74:
 193:main.c        ****                     break;
 741              		.loc 1 193 0
 742 0084 4FF03C0A 		mov	r10, #60
 743              	.LVL79:
 744              	.L61:
 201:main.c        ****                 targetY = -90;
 745              		.loc 1 201 0
 746 0088 4A4B     		ldr	r3, .L81
 747 008a D3E90245 		ldrd	r4, [r3, #8]
 748 008e 0022     		movs	r2, #0
 749 0090 4C4B     		ldr	r3, .L81+16
 750 0092 2046     		mov	r0, r4
 751 0094 2946     		mov	r1, r5
 752 0096 FFF7FEFF 		bl	__aeabi_dcmplt
 753              	.LVL80:
 754 009a B8B9     		cbnz	r0, .L75
 203:main.c        ****                 targetY = -80;
 755              		.loc 1 203 0
 756 009c 0022     		movs	r2, #0
 757 009e 494B     		ldr	r3, .L81+16
 758 00a0 2046     		mov	r0, r4
 759 00a2 2946     		mov	r1, r5
 760 00a4 FFF7FEFF 		bl	__aeabi_dcmpgt
 761              	.LVL81:
 762 00a8 30B1     		cbz	r0, .L65
 203:main.c        ****                 targetY = -80;
 763              		.loc 1 203 0 is_stmt 0 discriminator 1
 764 00aa 0022     		movs	r2, #0
 765 00ac 464B     		ldr	r3, .L81+20
 766 00ae 2046     		mov	r0, r4
 767 00b0 2946     		mov	r1, r5
 768 00b2 FFF7FEFF 		bl	__aeabi_dcmplt
 769              	.LVL82:
 770 00b6 60B9     		cbnz	r0, .L76
 771              	.L65:
 205:main.c        ****                 targetY = -70;   
 772              		.loc 1 205 0 is_stmt 1
 773 00b8 0022     		movs	r2, #0
 774 00ba 434B     		ldr	r3, .L81+20
 775 00bc 2046     		mov	r0, r4
 776 00be 2946     		mov	r1, r5
ARM GAS  C:\Users\Lasse\AppData\Local\Temp\ccCzw5ym.s 			page 21


 777 00c0 FFF7FEFF 		bl	__aeabi_dcmpgt
 778              	.LVL83:
 779 00c4 40B9     		cbnz	r0, .L77
 208:main.c        ****             }
 780              		.loc 1 208 0
 781 00c6 414B     		ldr	r3, .L81+24
 782 00c8 1C68     		ldr	r4, [r3]
 783              	.LVL84:
 784 00ca 07E0     		b	.L64
 785              	.LVL85:
 786              	.L75:
 202:main.c        ****             } else if (pigeonPosition.distance > 20 && pigeonPosition.distance < 40) {
 787              		.loc 1 202 0
 788 00cc 6FF05904 		mvn	r4, #89
 789 00d0 04E0     		b	.L64
 790              	.L76:
 204:main.c        ****             } else if (pigeonPosition.distance > 40) {
 791              		.loc 1 204 0
 792 00d2 6FF04F04 		mvn	r4, #79
 793 00d6 01E0     		b	.L64
 794              	.L77:
 206:main.c        ****             } else {
 795              		.loc 1 206 0
 796 00d8 6FF04504 		mvn	r4, #69
 797              	.L64:
 798              	.LVL86:
 211:main.c        ****             moveDegreesY(targetY - stepperPositionY);
 799              		.loc 1 211 0
 800 00dc 3C4B     		ldr	r3, .L81+28
 801 00de 1868     		ldr	r0, [r3]
 802 00e0 C0EB0A00 		rsb	r0, r0, r10
 803 00e4 FFF7FEFF 		bl	moveDegreesX
 804              	.LVL87:
 212:main.c        ****             
 805              		.loc 1 212 0
 806 00e8 384B     		ldr	r3, .L81+24
 807 00ea 1868     		ldr	r0, [r3]
 808 00ec 201A     		subs	r0, r4, r0
 809 00ee FFF7FEFF 		bl	moveDegreesY
 810              	.LVL88:
 214:main.c        ****                     round(detectedPosition.distance)+5 > round(pigeonPosition.distance) &&
 811              		.loc 1 214 0
 812 00f2 13E0     		b	.L67
 813              	.LVL89:
 814              	.L72:
 217:main.c        ****                     WaterPump_fireWater(TRUE);
 815              		.loc 1 217 0
 816 00f4 374B     		ldr	r3, .L81+32
 817 00f6 1B68     		ldr	r3, [r3]
 818 00f8 1BB9     		cbnz	r3, .L68
 218:main.c        ****                 else if (noWater == TRUE) {
 819              		.loc 1 218 0
 820 00fa 0120     		movs	r0, #1
 821 00fc FFF7FEFF 		bl	WaterPump_fireWater
 822              	.LVL90:
 823 0100 04E0     		b	.L69
 824              	.L68:
ARM GAS  C:\Users\Lasse\AppData\Local\Temp\ccCzw5ym.s 			page 22


 219:main.c        ****                     WaterPump_fireWater(FALSE);
 825              		.loc 1 219 0
 826 0102 012B     		cmp	r3, #1
 827 0104 02D1     		bne	.L69
 220:main.c        ****                 }    
 828              		.loc 1 220 0
 829 0106 0020     		movs	r0, #0
 830 0108 FFF7FEFF 		bl	WaterPump_fireWater
 831              	.LVL91:
 832              	.L69:
 222:main.c        ****             }
 833              		.loc 1 222 0
 834 010c 294D     		ldr	r5, .L81
 835 010e 6846     		mov	r0, sp
 836 0110 FFF7FEFF 		bl	Sonar_GetPosition
 837              	.LVL92:
 838 0114 9DE80F00 		ldmia	sp, {r0, r1, r2, r3}
 839 0118 85E80F00 		stmia	r5, {r0, r1, r2, r3}
 840              	.L67:
 214:main.c        ****                     round(detectedPosition.distance)+5 > round(pigeonPosition.distance) &&
 841              		.loc 1 214 0
 842 011c 254B     		ldr	r3, .L81
 843 011e 5B68     		ldr	r3, [r3, #4]
 844 0120 059A     		ldr	r2, [sp, #20]
 845 0122 9A42     		cmp	r2, r3
 846 0124 27D1     		bne	.L70
 215:main.c        ****                     round(detectedPosition.distance)-5 < round(pigeonPosition.distance)) { //fire w
 847              		.loc 1 215 0 discriminator 1
 848 0126 DDE90601 		ldrd	r0, [sp, #24]
 849 012a FFF7FEFF 		bl	round
 850              	.LVL93:
 851 012e 8046     		mov	r8, r0
 852 0130 8946     		mov	r9, r1
 853 0132 0022     		movs	r2, #0
 854 0134 284B     		ldr	r3, .L81+36
 855 0136 FFF7FEFF 		bl	__aeabi_dadd
 856              	.LVL94:
 857 013a 0646     		mov	r6, r0
 858 013c 0F46     		mov	r7, r1
 859 013e 1D4B     		ldr	r3, .L81
 860 0140 D3E90201 		ldrd	r0, [r3, #8]
 861 0144 FFF7FEFF 		bl	round
 862              	.LVL95:
 863 0148 0446     		mov	r4, r0
 864 014a 0D46     		mov	r5, r1
 214:main.c        ****                     round(detectedPosition.distance)+5 > round(pigeonPosition.distance) &&
 865              		.loc 1 214 0 discriminator 1
 866 014c 0246     		mov	r2, r0
 867 014e 0B46     		mov	r3, r1
 868 0150 3046     		mov	r0, r6
 869 0152 3946     		mov	r1, r7
 870 0154 FFF7FEFF 		bl	__aeabi_dcmpgt
 871              	.LVL96:
 872 0158 68B1     		cbz	r0, .L70
 216:main.c        ****                 if (noWater == FALSE)
 873              		.loc 1 216 0
 874 015a 0022     		movs	r2, #0
ARM GAS  C:\Users\Lasse\AppData\Local\Temp\ccCzw5ym.s 			page 23


 875 015c 1E4B     		ldr	r3, .L81+36
 876 015e 4046     		mov	r0, r8
 877 0160 4946     		mov	r1, r9
 878 0162 FFF7FEFF 		bl	__aeabi_dsub
 879              	.LVL97:
 215:main.c        ****                     round(detectedPosition.distance)-5 < round(pigeonPosition.distance)) { //fire w
 880              		.loc 1 215 0
 881 0166 0246     		mov	r2, r0
 882 0168 0B46     		mov	r3, r1
 883 016a 2046     		mov	r0, r4
 884 016c 2946     		mov	r1, r5
 885 016e FFF7FEFF 		bl	__aeabi_dcmpgt
 886              	.LVL98:
 887 0172 0028     		cmp	r0, #0
 888 0174 BED1     		bne	.L72
 889              	.L70:
 226:main.c        ****         }
 890              		.loc 1 226 0
 891 0176 0F4D     		ldr	r5, .L81
 892 0178 6846     		mov	r0, sp
 893 017a FFF7FEFF 		bl	Sonar_GetPosition
 894              	.LVL99:
 895 017e 9DE80F00 		ldmia	sp, {r0, r1, r2, r3}
 896 0182 85E80F00 		stmia	r5, {r0, r1, r2, r3}
 897              	.LVL100:
 898              	.L59:
 899              	.LBE2:
 185:main.c        ****             
 900              		.loc 1 185 0
 901 0186 0B4B     		ldr	r3, .L81
 902 0188 1B78     		ldrb	r3, [r3]	@ zero_extendqisi2
 903 018a 012B     		cmp	r3, #1
 904 018c 3FF452AF 		beq	.L73
 228:main.c        ****         WaterPump_fireWater(FALSE);
 905              		.loc 1 228 0
 906 0190 059C     		ldr	r4, [sp, #20]
 907 0192 DDE90601 		ldrd	r0, [sp, #24]
 908 0196 FFF7FEFF 		bl	round
 909              	.LVL101:
 910 019a FFF7FEFF 		bl	__aeabi_d2uiz
 911              	.LVL102:
 912 019e C1B2     		uxtb	r1, r0
 913 01a0 E0B2     		uxtb	r0, r4
 914 01a2 FFF7FEFF 		bl	SPI_send_pigeon_shot_position
 915              	.LVL103:
 229:main.c        ****     }
 916              		.loc 1 229 0
 917 01a6 0020     		movs	r0, #0
 918 01a8 FFF7FEFF 		bl	WaterPump_fireWater
 919              	.LVL104:
 920              	.L57:
 233:main.c        **** 
 921              		.loc 1 233 0
 922 01ac 08B0     		add	sp, sp, #32
 923              		.cfi_def_cfa_offset 32
 924              		@ sp needed
 925 01ae BDE8F087 		pop	{r4, r5, r6, r7, r8, r9, r10, pc}
ARM GAS  C:\Users\Lasse\AppData\Local\Temp\ccCzw5ym.s 			page 24


 926              	.L82:
 927 01b2 00BF     		.align	2
 928              	.L81:
 929 01b4 00000000 		.word	pigeonPosition
 930 01b8 00000840 		.word	1074266112
 931 01bc 00804B40 		.word	1078689792
 932 01c0 00405040 		.word	1079001088
 933 01c4 00003440 		.word	1077149696
 934 01c8 00004440 		.word	1078198272
 935 01cc 00000000 		.word	stepperPositionY
 936 01d0 00000000 		.word	stepperPositionX
 937 01d4 00000000 		.word	noWater
 938 01d8 00001440 		.word	1075052544
 939              		.cfi_endproc
 940              	.LFE72:
 941              		.size	checkForPigeonAndShoot, .-checkForPigeonAndShoot
 942              		.section	.text.normalMode,"ax",%progbits
 943              		.align	2
 944              		.global	normalMode
 945              		.thumb
 946              		.thumb_func
 947              		.type	normalMode, %function
 948              	normalMode:
 949              	.LFB73:
 236:main.c        ****     checkForPigeonAndShoot();
 950              		.loc 1 236 0
 951              		.cfi_startproc
 952              		@ args = 0, pretend = 0, frame = 0
 953              		@ frame_needed = 0, uses_anonymous_args = 0
 954 0000 08B5     		push	{r3, lr}
 955              		.cfi_def_cfa_offset 8
 956              		.cfi_offset 3, -8
 957              		.cfi_offset 14, -4
 237:main.c        ****     
 958              		.loc 1 237 0
 959 0002 FFF7FEFF 		bl	checkForPigeonAndShoot
 960              	.LVL105:
 239:main.c        ****     Delay_Timer_WritePeriod(DELAY_NORMAL_MODE_MS); //set period
 961              		.loc 1 239 0
 962 0006 FFF7FEFF 		bl	Delay_Timer_Stop
 963              	.LVL106:
 240:main.c        ****     Delay_Timer_WriteCounter(DELAY_NORMAL_MODE_MS); //reset
 964              		.loc 1 240 0
 965 000a 40F6B830 		movw	r0, #3000
 966 000e FFF7FEFF 		bl	Delay_Timer_WritePeriod
 967              	.LVL107:
 241:main.c        ****     Delay_Timer_Start();
 968              		.loc 1 241 0
 969 0012 40F6B830 		movw	r0, #3000
 970 0016 FFF7FEFF 		bl	Delay_Timer_WriteCounter
 971              	.LVL108:
 242:main.c        ****     CyPmAltAct(PM_ALT_ACT_TIME_NONE, PM_ALT_ACT_SRC_INTERRUPT);
 972              		.loc 1 242 0
 973 001a FFF7FEFF 		bl	Delay_Timer_Start
 974              	.LVL109:
 243:main.c        **** }
 975              		.loc 1 243 0
ARM GAS  C:\Users\Lasse\AppData\Local\Temp\ccCzw5ym.s 			page 25


 976 001e 1021     		movs	r1, #16
 977 0020 0020     		movs	r0, #0
 978 0022 FFF7FEFF 		bl	CyPmAltAct
 979              	.LVL110:
 980 0026 08BD     		pop	{r3, pc}
 981              		.cfi_endproc
 982              	.LFE73:
 983              		.size	normalMode, .-normalMode
 984              		.section	.text.powersavingMode,"ax",%progbits
 985              		.align	2
 986              		.global	powersavingMode
 987              		.thumb
 988              		.thumb_func
 989              		.type	powersavingMode, %function
 990              	powersavingMode:
 991              	.LFB74:
 246:main.c        ****     checkForPigeonAndShoot();
 992              		.loc 1 246 0
 993              		.cfi_startproc
 994              		@ args = 0, pretend = 0, frame = 0
 995              		@ frame_needed = 0, uses_anonymous_args = 0
 996 0000 08B5     		push	{r3, lr}
 997              		.cfi_def_cfa_offset 8
 998              		.cfi_offset 3, -8
 999              		.cfi_offset 14, -4
 247:main.c        ****     CyDelay(5);
 1000              		.loc 1 247 0
 1001 0002 FFF7FEFF 		bl	checkForPigeonAndShoot
 1002              	.LVL111:
 248:main.c        ****     
 1003              		.loc 1 248 0
 1004 0006 0520     		movs	r0, #5
 1005 0008 FFF7FEFF 		bl	CyDelay
 1006              	.LVL112:
 250:main.c        ****     Delay_Timer_WritePeriod(DELAY_POWERSAVING_MODE_MS);
 1007              		.loc 1 250 0
 1008 000c FFF7FEFF 		bl	Delay_Timer_Stop
 1009              	.LVL113:
 251:main.c        ****     Delay_Timer_WriteCounter(DELAY_POWERSAVING_MODE_MS);
 1010              		.loc 1 251 0
 1011 0010 4EF66020 		movw	r0, #60000
 1012 0014 FFF7FEFF 		bl	Delay_Timer_WritePeriod
 1013              	.LVL114:
 252:main.c        ****     Delay_Timer_Start();
 1014              		.loc 1 252 0
 1015 0018 4EF66020 		movw	r0, #60000
 1016 001c FFF7FEFF 		bl	Delay_Timer_WriteCounter
 1017              	.LVL115:
 253:main.c        ****     CyPmAltAct(PM_ALT_ACT_TIME_NONE, PM_ALT_ACT_SRC_INTERRUPT);
 1018              		.loc 1 253 0
 1019 0020 FFF7FEFF 		bl	Delay_Timer_Start
 1020              	.LVL116:
 254:main.c        **** }
 1021              		.loc 1 254 0
 1022 0024 1021     		movs	r1, #16
 1023 0026 0020     		movs	r0, #0
 1024 0028 FFF7FEFF 		bl	CyPmAltAct
ARM GAS  C:\Users\Lasse\AppData\Local\Temp\ccCzw5ym.s 			page 26


 1025              	.LVL117:
 1026 002c 08BD     		pop	{r3, pc}
 1027              		.cfi_endproc
 1028              	.LFE74:
 1029              		.size	powersavingMode, .-powersavingMode
 1030              		.comm	msg,256,4
 1031              		.global	states
 1032              		.comm	currentState,4,4
 1033              		.comm	circBuf,184,4
 1034              		.comm	pigeonPosition,16,8
 1035              		.comm	noWater,4,4
 1036              		.comm	mode,1,1
 1037              		.comm	SPI_recieved,1,1
 1038              		.comm	SPI_recieved_flag,1,1
 1039              		.comm	stepperStateY,1,1
 1040              		.comm	timerDoneFlagY,1,1
 1041              		.comm	stepperPositionY,4,4
 1042              		.comm	stepperStateX,1,1
 1043              		.comm	timerDoneFlagX,1,1
 1044              		.comm	stepperPositionX,4,4
 1045              		.comm	sonarTimerDone,1,1
 1046 002e 00BF     		.data
 1047              		.align	2
 1048              		.set	.LANCHOR0,. + 0
 1049              		.type	states, %object
 1050              		.size	states, 20
 1051              	states:
 1052 0000 00000000 		.word	normalMode
 1053 0004 00000000 		.word	powersavingMode
 1054 0008 00000000 		.word	manualMode
 1055 000c 00000000 		.word	automatiskVanding
 1056 0010 00000000 		.word	standbyMode
 1057              		.section	.rodata.str1.4,"aMS",%progbits,1
 1058              		.align	2
 1059              	.LC0:
 1060 0000 436F6D6D 		.ascii	"Command received from UART\012\015\000"
 1060      616E6420 
 1060      72656365 
 1060      69766564 
 1060      2066726F 
 1061 001d 000000   		.space	3
 1062              	.LC1:
 1063 0020 53657474 		.ascii	"Setting mode to Normal mode\012\015\000"
 1063      696E6720 
 1063      6D6F6465 
 1063      20746F20 
 1063      4E6F726D 
 1064 003e 0000     		.space	2
 1065              	.LC2:
 1066 0040 53657474 		.ascii	"Setting mode to Manual mode\012\015\000"
 1066      696E6720 
 1066      6D6F6465 
 1066      20746F20 
 1066      4D616E75 
 1067 005e 0000     		.space	2
 1068              	.LC3:
 1069 0060 53657474 		.ascii	"Setting mode to Powersaving mode\012\015\000"
ARM GAS  C:\Users\Lasse\AppData\Local\Temp\ccCzw5ym.s 			page 27


 1069      696E6720 
 1069      6D6F6465 
 1069      20746F20 
 1069      506F7765 
 1070 0083 00       		.space	1
 1071              	.LC4:
 1072 0084 53657474 		.ascii	"Setting mode to Standby mode\012\015\000"
 1072      696E6720 
 1072      6D6F6465 
 1072      20746F20 
 1072      5374616E 
 1073 00a3 00       		.space	1
 1074              	.LC5:
 1075 00a4 53657474 		.ascii	"Setting mode to Automatisk vanding mode\012\015\000"
 1075      696E6720 
 1075      6D6F6465 
 1075      20746F20 
 1075      4175746F 
 1076 00ce 0000     		.space	2
 1077              	.LC6:
 1078 00d0 53656E64 		.ascii	"Send pigeon detected\012\015\000"
 1078      20706967 
 1078      656F6E20 
 1078      64657465 
 1078      63746564 
 1079              		.text
 1080              	.Letext0:
 1081              		.file 2 "c:\\program files (x86)\\cypress\\psoc creator\\4.2\\psoc creator\\import\\gnu\\arm\\5.4.
 1082              		.file 3 "c:\\program files (x86)\\cypress\\psoc creator\\4.2\\psoc creator\\import\\gnu\\arm\\5.4.
 1083              		.file 4 "Generated_Source\\PSoC5/cytypes.h"
 1084              		.file 5 "SonarDriver.h"
 1085              		.file 6 "CircularBuffer.h"
 1086              		.file 7 "MotorDriverX.h"
 1087              		.file 8 "PSoCcontroller.h"
 1088              		.file 9 "Generated_Source\\PSoC5/core_cm3.h"
 1089              		.file 10 "MotorDriverY.h"
 1090              		.file 11 "SPI_driver_PSoC.h"
 1091              		.file 12 "Generated_Source\\PSoC5/CyLib.h"
 1092              		.file 13 "Generated_Source\\PSoC5/Delay_Timer.h"
 1093              		.file 14 "MoistureSensor.h"
 1094              		.file 15 "WaterPump.h"
 1095              		.file 16 "Generated_Source\\PSoC5/cyPm.h"
 1096              		.file 17 "Generated_Source\\PSoC5/Timer_StepperX.h"
 1097              		.file 18 "Generated_Source\\PSoC5/Timer_StepperY.h"
 1098              		.file 19 "Generated_Source\\PSoC5/SPI_1.h"
 1099              		.file 20 "Generated_Source\\PSoC5/UART_1.h"
 1100              		.file 21 "Generated_Source\\PSoC5/ISR_delay.h"
 1101              		.file 22 "WaterSensor.h"
 1102              		.file 23 "c:\\program files (x86)\\cypress\\psoc creator\\4.2\\psoc creator\\import\\gnu\\arm\\5.4