ARM GAS  C:\Users\jens1\AppData\Local\Temp\ccFhmsHh.s 			page 1


   1              		.syntax unified
   2              		.cpu cortex-m3
   3              		.fpu softvfp
   4              		.eabi_attribute 20, 1
   5              		.eabi_attribute 21, 1
   6              		.eabi_attribute 23, 3
   7              		.eabi_attribute 24, 1
   8              		.eabi_attribute 25, 1
   9              		.eabi_attribute 26, 1
  10              		.eabi_attribute 30, 1
  11              		.eabi_attribute 34, 1
  12              		.eabi_attribute 18, 4
  13              		.thumb
  14              		.syntax unified
  15              		.file	"main.c"
  16              		.text
  17              	.Ltext0:
  18              		.cfi_sections	.debug_frame
  19              		.section	.text.manualMode,"ax",%progbits
  20              		.align	2
  21              		.global	manualMode
  22              		.thumb
  23              		.thumb_func
  24              		.type	manualMode, %function
  25              	manualMode:
  26              	.LFB75:
  27              		.file 1 "main.c"
   1:main.c        **** /* ========================================
   2:main.c        ****  * PIGEON EXTERMINATION SYSTEM
   3:main.c        ****  * 
   4:main.c        ****  * PSoCcontroller Source File
   5:main.c        ****  * 
   6:main.c        ****  * Author: Lasse Krarup
   7:main.c        ****  * Version: 1.0
   8:main.c        ****  *
   9:main.c        ****  * ========================================
  10:main.c        **** */
  11:main.c        **** 
  12:main.c        **** // ========================== INCLUDES ===================================
  13:main.c        **** #include "project.h"
  14:main.c        **** #include "SonarDriver.h"
  15:main.c        **** #include "WaterPump.h"
  16:main.c        **** #include "MotorDriverX.h"
  17:main.c        **** #include "MotorDriverY.h"
  18:main.c        **** #include "WaterSensor.h"
  19:main.c        **** #include "CircularBuffer.h"
  20:main.c        **** #include "MoistureSensor.h"
  21:main.c        **** #include "SPI_driver_PSoC.h"
  22:main.c        **** #include "PSoCcontroller.h"
  23:main.c        **** 
  24:main.c        **** //Array of function pointer for ability to iterate through modes if necessary
  25:main.c        **** void (*states[5])(void) = {normalMode, powersavingMode, manualMode, automatiskVanding, standbyMode}
  26:main.c        **** 
  27:main.c        **** // =========== FOR TESTING ===========
  28:main.c        **** CY_ISR_PROTO( UARTisr );
  29:main.c        **** char msg[256];
  30:main.c        **** 
ARM GAS  C:\Users\jens1\AppData\Local\Temp\ccFhmsHh.s 			page 2


  31:main.c        **** // ===================== START MAIN ===================================
  32:main.c        **** int main(void)
  33:main.c        **** {
  34:main.c        ****     CyGlobalIntEnable; /* Enable global interrupts. */
  35:main.c        ****     
  36:main.c        ****     // ~~~~~~~~~~~~ INITIALIZATION ~~~~~~~~~~~~~~~~
  37:main.c        ****     
  38:main.c        ****     
  39:main.c        ****     
  40:main.c        ****     //ISR_WaterLevel_StartEx( WaterLevelISRhandler ); //DONT LEAVE FLOATING!!! WILL CAUSE INTERRUPT
  41:main.c        ****     ISR_delay_StartEx( DelayTimerInterrupt );
  42:main.c        ****     initStepperX();
  43:main.c        ****     initStepperY();
  44:main.c        ****     initCircbuf(&circBuf);
  45:main.c        ****     Sonar_Start();
  46:main.c        ****     WaSensInit();
  47:main.c        ****     initWaterPump();
  48:main.c        ****     MoistureSensor_init();
  49:main.c        ****     SPI_start();
  50:main.c        ****     
  51:main.c        ****     SPI_send_resetToDefault();
  52:main.c        ****     CyDelay(1);
  53:main.c        ****     setMode(NORMAL_MODE); //default initial state
  54:main.c        ****     noWater = FALSE;
  55:main.c        ****     while(1) {
  56:main.c        **** //        if(Pin_ISR_WaSens_Read() == 1){//noWater == TRUE) {
  57:main.c        **** //            WaterPump_fireWater(FALSE);
  58:main.c        **** //            SPI_send_waterlevel(0);
  59:main.c        **** //            Pin_Low_WL_Write(1);
  60:main.c        **** //            setMode(STANDBY_MODE);
  61:main.c        **** //        }
  62:main.c        **** //        else {
  63:main.c        **** //            noWater = FALSE;
  64:main.c        **** //            Pin_Low_WL_Write(0);
  65:main.c        **** //        }
  66:main.c        ****         
  67:main.c        ****         if (SPI_recieved_flag == 1) {
  68:main.c        ****             Handle_SPI_recieved();
  69:main.c        ****         }
  70:main.c        ****         
  71:main.c        ****         currentState();
  72:main.c        ****         
  73:main.c        ****     }
  74:main.c        **** }
  75:main.c        **** 
  76:main.c        **** // ================ FOR TESTING ============
  77:main.c        **** CY_ISR(UARTisr) {
  78:main.c        ****     char input = UART_1_ReadRxData();
  79:main.c        ****     UART_1_PutString("Command received from UART\n\r");
  80:main.c        ****     switch(input) {
  81:main.c        ****         case 'A': //NORMAL MODE
  82:main.c        ****             setMode(NORMAL_MODE);
  83:main.c        ****             UART_1_PutString("Setting mode to Normal mode\n\r");
  84:main.c        ****             break;
  85:main.c        ****         case 'B': //MANUAL MODE
  86:main.c        ****             setMode(MANUAL_MODE);
  87:main.c        ****             UART_1_PutString("Setting mode to Manual mode\n\r");
ARM GAS  C:\Users\jens1\AppData\Local\Temp\ccFhmsHh.s 			page 3


  88:main.c        ****             break; 
  89:main.c        ****         case 'C': //POWERSAVING MODE
  90:main.c        ****             setMode(POWERSAVING_MODE);
  91:main.c        ****             UART_1_PutString("Setting mode to Powersaving mode\n\r");
  92:main.c        ****             break;
  93:main.c        ****         case 'D': //STANDBY MODE
  94:main.c        ****             setMode(STANDBY_MODE);
  95:main.c        ****             UART_1_PutString("Setting mode to Standby mode\n\r");
  96:main.c        ****             break;
  97:main.c        ****         case 'E': //AUTOMATISK VANDING
  98:main.c        ****             setMode(AUTOMATISK_VANDING);
  99:main.c        ****             UART_1_PutString("Setting mode to Automatisk vanding mode\n\r");
 100:main.c        ****             break;
 101:main.c        ****         case 'F': //LEFT
 102:main.c        ****             if (mode == MANUAL_MODE) {
 103:main.c        ****                 circBuf.push(&circBuf, moveDegreesX, -5);
 104:main.c        ****             }
 105:main.c        ****             break;
 106:main.c        ****         case 'G': //RIGHT
 107:main.c        ****             if (mode == MANUAL_MODE) {
 108:main.c        ****                 circBuf.push(&circBuf, moveDegreesX, 5);
 109:main.c        ****             }
 110:main.c        ****             break;
 111:main.c        ****         case 'H': //UP
 112:main.c        ****             if (mode == MANUAL_MODE) {
 113:main.c        ****                 circBuf.push(&circBuf, moveDegreesY, 5);
 114:main.c        ****             }
 115:main.c        ****             break;
 116:main.c        ****         case 'I': //DOWN
 117:main.c        ****             if (mode == MANUAL_MODE) {
 118:main.c        ****                 circBuf.push(&circBuf, moveDegreesY, -5);
 119:main.c        ****             }
 120:main.c        ****             break;
 121:main.c        ****         case 'J': //START FIRING
 122:main.c        ****             if (mode == MANUAL_MODE) {
 123:main.c        ****                 circBuf.push(&circBuf, WaterPump_fireWater, TRUE);
 124:main.c        ****             }
 125:main.c        ****             break;
 126:main.c        ****         case 'K': //STOP FIRING
 127:main.c        ****             if (mode == MANUAL_MODE) {
 128:main.c        ****                 circBuf.push(&circBuf, WaterPump_fireWater, FALSE);
 129:main.c        ****             }
 130:main.c        ****             break;
 131:main.c        ****         case 'L': //test
 132:main.c        ****             UART_1_PutString("Send pigeon detected\n\r");
 133:main.c        ****             SPI_send_pigeon_detected();
 134:main.c        ****             break;
 135:main.c        ****         default:
 136:main.c        ****             break;
 137:main.c        ****     }
 138:main.c        **** }
 139:main.c        **** 
 140:main.c        **** // =================== INTERRUPT SERVICE ROUTINES ==============================
 141:main.c        **** 
 142:main.c        **** CY_ISR( DelayTimerInterrupt ) {
 143:main.c        ****     Delay_Timer_Stop(); //stop timer
 144:main.c        ****     Delay_Timer_ReadStatusRegister(); //clear interrupt
ARM GAS  C:\Users\jens1\AppData\Local\Temp\ccFhmsHh.s 			page 4


 145:main.c        **** }
 146:main.c        **** 
 147:main.c        **** CY_ISR( WaterLevelISRhandler ) {
 148:main.c        ****     noWater = TRUE;   
 149:main.c        **** }
 150:main.c        **** 
 151:main.c        **** CY_ISR( stepperX_interrupt_handler ){
 152:main.c        ****     Timer_StepperX_Stop();
 153:main.c        ****     timerDoneFlagX = 1;
 154:main.c        **** }
 155:main.c        **** 
 156:main.c        **** CY_ISR( stepperY_interrupt_handler) {
 157:main.c        ****     Timer_StepperY_Stop();
 158:main.c        ****     timerDoneFlagY = 1;
 159:main.c        **** }
 160:main.c        **** 
 161:main.c        **** CY_ISR(ISR_SPI_RX_handler)
 162:main.c        **** {
 163:main.c        ****     SPI_1_ReadRxStatus();
 164:main.c        ****     //SPI_1_ClearRxBuffer();
 165:main.c        ****     
 166:main.c        ****     SPI_recieved = SPI_1_ReadRxData();
 167:main.c        ****     SPI_recieved_flag = 1;
 168:main.c        **** }
 169:main.c        **** // ===================== FUNCTION DEFINITIONS ===================================
 170:main.c        **** void setMode(enum Mode newMode){
 171:main.c        ****     if (mode >= NORMAL_MODE && mode <= STANDBY_MODE) {
 172:main.c        ****         currentState = states[newMode];
 173:main.c        ****         mode = newMode;
 174:main.c        ****     }
 175:main.c        **** }
 176:main.c        **** 
 177:main.c        **** void checkForPigeonAndShoot(void) {
 178:main.c        ****     
 179:main.c        ****     pigeonPosition = Sonar_GetPosition();
 180:main.c        ****     struct position detectedPosition = pigeonPosition;
 181:main.c        ****     
 182:main.c        ****     if (pigeonPosition.detected == 1) {
 183:main.c        ****         SPI_send_pigeon_detected(); //log
 184:main.c        ****         SPI_send_waterlevel(WaSensMeasure());
 185:main.c        ****         while(pigeonPosition.detected == 1) { //if pigeon detected...
 186:main.c        ****             
 187:main.c        ****             int targetX, targetY; //assign target X position
 188:main.c        ****             switch(pigeonPosition.width){
 189:main.c        ****                 case 1:
 190:main.c        ****                     targetX = (90-20) + pigeonPosition.distance/3;
 191:main.c        ****                     break;
 192:main.c        ****                 case 2:
 193:main.c        ****                     targetX = (90-25);
 194:main.c        ****                     break;
 195:main.c        ****                 case 3:
 196:main.c        ****                     targetX = (90-30) - pigeonPosition.distance/3;
 197:main.c        ****                     break;
 198:main.c        ****                 default: break;
 199:main.c        ****             }
 200:main.c        ****             
 201:main.c        ****             if (pigeonPosition.distance < 20) { //assign target Y position
ARM GAS  C:\Users\jens1\AppData\Local\Temp\ccFhmsHh.s 			page 5


 202:main.c        ****                 targetY = -80;
 203:main.c        ****             } else if (pigeonPosition.distance > 20 && pigeonPosition.distance < 40) {
 204:main.c        ****                 targetY = -70;
 205:main.c        ****             } else if (pigeonPosition.distance > 40) {
 206:main.c        ****                 targetY = -60;   
 207:main.c        ****             } else {
 208:main.c        ****                 targetY = stepperPositionY;
 209:main.c        ****             }
 210:main.c        ****             
 211:main.c        ****             moveDegreesX(targetX - stepperPositionX); //move steppers...
 212:main.c        ****             moveDegreesY(targetY - stepperPositionY);
 213:main.c        ****             
 214:main.c        ****             while(  detectedPosition.width == pigeonPosition.width &&
 215:main.c        ****                     round(detectedPosition.distance)+5 > round(pigeonPosition.distance) &&
 216:main.c        ****                     round(detectedPosition.distance)-5 < round(pigeonPosition.distance)) { //fire w
 217:main.c        ****                 if (noWater == FALSE)
 218:main.c        ****                     WaterPump_fireWater(TRUE);
 219:main.c        ****                 else if (noWater == TRUE) {
 220:main.c        ****                     WaterPump_fireWater(FALSE);
 221:main.c        ****                 }    
 222:main.c        ****                 pigeonPosition = Sonar_GetPosition(); //renew position
 223:main.c        ****             }
 224:main.c        ****                    
 225:main.c        ****                     
 226:main.c        ****             pigeonPosition = Sonar_GetPosition(); //renew position
 227:main.c        ****         }
 228:main.c        ****         SPI_send_pigeon_shot_position((char)detectedPosition.width, (char) round(detectedPosition.d
 229:main.c        ****         WaterPump_fireWater(FALSE);
 230:main.c        ****     }
 231:main.c        ****     //exit_noWater:
 232:main.c        ****        // WaterPump_fireWater(FALSE);
 233:main.c        **** }
 234:main.c        **** 
 235:main.c        **** // ===================== STATE FUNCTIONS =========================================
 236:main.c        **** void normalMode(void) {
 237:main.c        ****     checkForPigeonAndShoot();
 238:main.c        ****     
 239:main.c        ****     Delay_Timer_Stop();
 240:main.c        ****     Delay_Timer_WritePeriod(DELAY_NORMAL_MODE_MS); //set period
 241:main.c        ****     Delay_Timer_WriteCounter(DELAY_NORMAL_MODE_MS); //reset
 242:main.c        ****     Delay_Timer_Start();
 243:main.c        ****     CyPmAltAct(PM_ALT_ACT_TIME_NONE, PM_ALT_ACT_SRC_INTERRUPT);
 244:main.c        **** }
 245:main.c        **** 
 246:main.c        **** void powersavingMode(void) {
 247:main.c        ****     checkForPigeonAndShoot();
 248:main.c        ****     CyDelay(5);
 249:main.c        ****     
 250:main.c        ****     Delay_Timer_Stop();
 251:main.c        ****     Delay_Timer_WritePeriod(DELAY_POWERSAVING_MODE_MS);
 252:main.c        ****     Delay_Timer_WriteCounter(DELAY_POWERSAVING_MODE_MS);
 253:main.c        ****     Delay_Timer_Start();
 254:main.c        ****     CyPmAltAct(PM_ALT_ACT_TIME_NONE, PM_ALT_ACT_SRC_INTERRUPT);
 255:main.c        **** }
 256:main.c        **** 
 257:main.c        **** void manualMode(void) {
  28              		.loc 1 257 0
ARM GAS  C:\Users\jens1\AppData\Local\Temp\ccFhmsHh.s 			page 6


  29              		.cfi_startproc
  30              		@ args = 0, pretend = 0, frame = 0
  31              		@ frame_needed = 0, uses_anonymous_args = 0
  32 0000 08B5     		push	{r3, lr}
  33              		.cfi_def_cfa_offset 8
  34              		.cfi_offset 3, -8
  35              		.cfi_offset 14, -4
 258:main.c        ****     circBuf.pop(&circBuf); //pop from queue. pop function checks for empty queue and does nothing i
  36              		.loc 1 258 0
  37 0002 0448     		ldr	r0, .L3
  38 0004 D0F8A030 		ldr	r3, [r0, #160]
  39 0008 9847     		blx	r3
  40              	.LVL0:
 259:main.c        ****     CyDelay(10); //introduce small delay to reduce risk of getting trapped in interrupt
  41              		.loc 1 259 0
  42 000a 0A20     		movs	r0, #10
  43 000c FFF7FEFF 		bl	CyDelay
  44              	.LVL1:
  45 0010 08BD     		pop	{r3, pc}
  46              	.L4:
  47 0012 00BF     		.align	2
  48              	.L3:
  49 0014 00000000 		.word	circBuf
  50              		.cfi_endproc
  51              	.LFE75:
  52              		.size	manualMode, .-manualMode
  53              		.section	.text.DelayTimerInterrupt,"ax",%progbits
  54              		.align	2
  55              		.global	DelayTimerInterrupt
  56              		.thumb
  57              		.thumb_func
  58              		.type	DelayTimerInterrupt, %function
  59              	DelayTimerInterrupt:
  60              	.LFB66:
 142:main.c        ****     Delay_Timer_Stop(); //stop timer
  61              		.loc 1 142 0
  62              		.cfi_startproc
  63              		@ args = 0, pretend = 0, frame = 0
  64              		@ frame_needed = 0, uses_anonymous_args = 0
  65 0000 08B5     		push	{r3, lr}
  66              		.cfi_def_cfa_offset 8
  67              		.cfi_offset 3, -8
  68              		.cfi_offset 14, -4
 143:main.c        ****     Delay_Timer_ReadStatusRegister(); //clear interrupt
  69              		.loc 1 143 0
  70 0002 FFF7FEFF 		bl	Delay_Timer_Stop
  71              	.LVL2:
 144:main.c        **** }
  72              		.loc 1 144 0
  73 0006 FFF7FEFF 		bl	Delay_Timer_ReadStatusRegister
  74              	.LVL3:
  75 000a 08BD     		pop	{r3, pc}
  76              		.cfi_endproc
  77              	.LFE66:
  78              		.size	DelayTimerInterrupt, .-DelayTimerInterrupt
  79              		.section	.text.automatiskVanding,"ax",%progbits
  80              		.align	2
ARM GAS  C:\Users\jens1\AppData\Local\Temp\ccFhmsHh.s 			page 7


  81              		.global	automatiskVanding
  82              		.thumb
  83              		.thumb_func
  84              		.type	automatiskVanding, %function
  85              	automatiskVanding:
  86              	.LFB76:
 260:main.c        **** }
 261:main.c        **** 
 262:main.c        **** void automatiskVanding(void) {
  87              		.loc 1 262 0
  88              		.cfi_startproc
  89              		@ args = 0, pretend = 0, frame = 0
  90              		@ frame_needed = 0, uses_anonymous_args = 0
  91 0000 08B5     		push	{r3, lr}
  92              		.cfi_def_cfa_offset 8
  93              		.cfi_offset 3, -8
  94              		.cfi_offset 14, -4
 263:main.c        ****     if (MoistureSensor_getResult() > MOISTURE_THRESHOLD) {
  95              		.loc 1 263 0
  96 0002 FFF7FEFF 		bl	MoistureSensor_getResult
  97              	.LVL4:
  98 0006 40F6B833 		movw	r3, #3000
  99 000a 9842     		cmp	r0, r3
 100 000c 03DC     		bgt	.L8
 101 000e 08BD     		pop	{r3, pc}
 102              	.L10:
 264:main.c        ****         while ( MoistureSensor_getResult() > MOISTURE_THRESHOLD ){
 265:main.c        ****             WaterPump_fireWater(TRUE);//start firing
 103              		.loc 1 265 0
 104 0010 0120     		movs	r0, #1
 105 0012 FFF7FEFF 		bl	WaterPump_fireWater
 106              	.LVL5:
 107              	.L8:
 264:main.c        ****         while ( MoistureSensor_getResult() > MOISTURE_THRESHOLD ){
 108              		.loc 1 264 0
 109 0016 FFF7FEFF 		bl	MoistureSensor_getResult
 110              	.LVL6:
 111 001a 40F6B833 		movw	r3, #3000
 112 001e 9842     		cmp	r0, r3
 113 0020 F6DC     		bgt	.L10
 266:main.c        ****         }
 267:main.c        ****         WaterPump_fireWater(FALSE);//stop firing
 114              		.loc 1 267 0
 115 0022 0020     		movs	r0, #0
 116 0024 FFF7FEFF 		bl	WaterPump_fireWater
 117              	.LVL7:
 268:main.c        ****         SPI_send_flowers_watered();
 118              		.loc 1 268 0
 119 0028 FFF7FEFF 		bl	SPI_send_flowers_watered
 120              	.LVL8:
 121 002c 08BD     		pop	{r3, pc}
 122              		.cfi_endproc
 123              	.LFE76:
 124              		.size	automatiskVanding, .-automatiskVanding
 125 002e 00BF     		.section	.text.standbyMode,"ax",%progbits
 126              		.align	2
 127              		.global	standbyMode
ARM GAS  C:\Users\jens1\AppData\Local\Temp\ccFhmsHh.s 			page 8


 128              		.thumb
 129              		.thumb_func
 130              		.type	standbyMode, %function
 131              	standbyMode:
 132              	.LFB77:
 269:main.c        ****     }
 270:main.c        **** }
 271:main.c        **** 
 272:main.c        **** void standbyMode(void) {
 133              		.loc 1 272 0
 134              		.cfi_startproc
 135              		@ args = 0, pretend = 0, frame = 0
 136              		@ frame_needed = 0, uses_anonymous_args = 0
 137 0000 08B5     		push	{r3, lr}
 138              		.cfi_def_cfa_offset 8
 139              		.cfi_offset 3, -8
 140              		.cfi_offset 14, -4
 273:main.c        ****     CyPmHibernate(); //Hibernate - use hardware reset to start PSoC again
 141              		.loc 1 273 0
 142 0002 FFF7FEFF 		bl	CyPmHibernate
 143              	.LVL9:
 144 0006 08BD     		pop	{r3, pc}
 145              		.cfi_endproc
 146              	.LFE77:
 147              		.size	standbyMode, .-standbyMode
 148              		.section	.text.WaterLevelISRhandler,"ax",%progbits
 149              		.align	2
 150              		.global	WaterLevelISRhandler
 151              		.thumb
 152              		.thumb_func
 153              		.type	WaterLevelISRhandler, %function
 154              	WaterLevelISRhandler:
 155              	.LFB67:
 147:main.c        ****     noWater = TRUE;   
 156              		.loc 1 147 0
 157              		.cfi_startproc
 158              		@ args = 0, pretend = 0, frame = 0
 159              		@ frame_needed = 0, uses_anonymous_args = 0
 160              		@ link register save eliminated.
 148:main.c        **** }
 161              		.loc 1 148 0
 162 0000 0122     		movs	r2, #1
 163 0002 014B     		ldr	r3, .L15
 164 0004 1A60     		str	r2, [r3]
 165 0006 7047     		bx	lr
 166              	.L16:
 167              		.align	2
 168              	.L15:
 169 0008 00000000 		.word	noWater
 170              		.cfi_endproc
 171              	.LFE67:
 172              		.size	WaterLevelISRhandler, .-WaterLevelISRhandler
 173              		.section	.text.stepperX_interrupt_handler,"ax",%progbits
 174              		.align	2
 175              		.global	stepperX_interrupt_handler
 176              		.thumb
 177              		.thumb_func
ARM GAS  C:\Users\jens1\AppData\Local\Temp\ccFhmsHh.s 			page 9


 178              		.type	stepperX_interrupt_handler, %function
 179              	stepperX_interrupt_handler:
 180              	.LFB68:
 151:main.c        ****     Timer_StepperX_Stop();
 181              		.loc 1 151 0
 182              		.cfi_startproc
 183              		@ args = 0, pretend = 0, frame = 0
 184              		@ frame_needed = 0, uses_anonymous_args = 0
 185 0000 08B5     		push	{r3, lr}
 186              		.cfi_def_cfa_offset 8
 187              		.cfi_offset 3, -8
 188              		.cfi_offset 14, -4
 152:main.c        ****     timerDoneFlagX = 1;
 189              		.loc 1 152 0
 190 0002 FFF7FEFF 		bl	Timer_StepperX_Stop
 191              	.LVL10:
 153:main.c        **** }
 192              		.loc 1 153 0
 193 0006 0122     		movs	r2, #1
 194 0008 014B     		ldr	r3, .L19
 195 000a 1A70     		strb	r2, [r3]
 196 000c 08BD     		pop	{r3, pc}
 197              	.L20:
 198 000e 00BF     		.align	2
 199              	.L19:
 200 0010 00000000 		.word	timerDoneFlagX
 201              		.cfi_endproc
 202              	.LFE68:
 203              		.size	stepperX_interrupt_handler, .-stepperX_interrupt_handler
 204              		.section	.text.stepperY_interrupt_handler,"ax",%progbits
 205              		.align	2
 206              		.global	stepperY_interrupt_handler
 207              		.thumb
 208              		.thumb_func
 209              		.type	stepperY_interrupt_handler, %function
 210              	stepperY_interrupt_handler:
 211              	.LFB69:
 156:main.c        ****     Timer_StepperY_Stop();
 212              		.loc 1 156 0
 213              		.cfi_startproc
 214              		@ args = 0, pretend = 0, frame = 0
 215              		@ frame_needed = 0, uses_anonymous_args = 0
 216 0000 08B5     		push	{r3, lr}
 217              		.cfi_def_cfa_offset 8
 218              		.cfi_offset 3, -8
 219              		.cfi_offset 14, -4
 157:main.c        ****     timerDoneFlagY = 1;
 220              		.loc 1 157 0
 221 0002 FFF7FEFF 		bl	Timer_StepperY_Stop
 222              	.LVL11:
 158:main.c        **** }
 223              		.loc 1 158 0
 224 0006 0122     		movs	r2, #1
 225 0008 014B     		ldr	r3, .L23
 226 000a 1A70     		strb	r2, [r3]
 227 000c 08BD     		pop	{r3, pc}
 228              	.L24:
ARM GAS  C:\Users\jens1\AppData\Local\Temp\ccFhmsHh.s 			page 10


 229 000e 00BF     		.align	2
 230              	.L23:
 231 0010 00000000 		.word	timerDoneFlagY
 232              		.cfi_endproc
 233              	.LFE69:
 234              		.size	stepperY_interrupt_handler, .-stepperY_interrupt_handler
 235              		.section	.text.ISR_SPI_RX_handler,"ax",%progbits
 236              		.align	2
 237              		.global	ISR_SPI_RX_handler
 238              		.thumb
 239              		.thumb_func
 240              		.type	ISR_SPI_RX_handler, %function
 241              	ISR_SPI_RX_handler:
 242              	.LFB70:
 162:main.c        ****     SPI_1_ReadRxStatus();
 243              		.loc 1 162 0
 244              		.cfi_startproc
 245              		@ args = 0, pretend = 0, frame = 0
 246              		@ frame_needed = 0, uses_anonymous_args = 0
 247 0000 08B5     		push	{r3, lr}
 248              		.cfi_def_cfa_offset 8
 249              		.cfi_offset 3, -8
 250              		.cfi_offset 14, -4
 163:main.c        ****     //SPI_1_ClearRxBuffer();
 251              		.loc 1 163 0
 252 0002 FFF7FEFF 		bl	SPI_1_ReadRxStatus
 253              	.LVL12:
 166:main.c        ****     SPI_recieved_flag = 1;
 254              		.loc 1 166 0
 255 0006 FFF7FEFF 		bl	SPI_1_ReadRxData
 256              	.LVL13:
 257 000a 034B     		ldr	r3, .L27
 258 000c 1870     		strb	r0, [r3]
 167:main.c        **** }
 259              		.loc 1 167 0
 260 000e 0122     		movs	r2, #1
 261 0010 024B     		ldr	r3, .L27+4
 262 0012 1A70     		strb	r2, [r3]
 263 0014 08BD     		pop	{r3, pc}
 264              	.L28:
 265 0016 00BF     		.align	2
 266              	.L27:
 267 0018 00000000 		.word	SPI_recieved
 268 001c 00000000 		.word	SPI_recieved_flag
 269              		.cfi_endproc
 270              	.LFE70:
 271              		.size	ISR_SPI_RX_handler, .-ISR_SPI_RX_handler
 272              		.section	.text.setMode,"ax",%progbits
 273              		.align	2
 274              		.global	setMode
 275              		.thumb
 276              		.thumb_func
 277              		.type	setMode, %function
 278              	setMode:
 279              	.LFB71:
 170:main.c        ****     if (mode >= NORMAL_MODE && mode <= STANDBY_MODE) {
 280              		.loc 1 170 0
ARM GAS  C:\Users\jens1\AppData\Local\Temp\ccFhmsHh.s 			page 11


 281              		.cfi_startproc
 282              		@ args = 0, pretend = 0, frame = 0
 283              		@ frame_needed = 0, uses_anonymous_args = 0
 284              		@ link register save eliminated.
 285              	.LVL14:
 171:main.c        ****         currentState = states[newMode];
 286              		.loc 1 171 0
 287 0000 054B     		ldr	r3, .L31
 288 0002 1B78     		ldrb	r3, [r3]	@ zero_extendqisi2
 289 0004 042B     		cmp	r3, #4
 290 0006 06D8     		bhi	.L29
 172:main.c        ****         mode = newMode;
 291              		.loc 1 172 0
 292 0008 044B     		ldr	r3, .L31+4
 293 000a 53F82020 		ldr	r2, [r3, r0, lsl #2]
 294 000e 044B     		ldr	r3, .L31+8
 295 0010 1A60     		str	r2, [r3]
 173:main.c        ****     }
 296              		.loc 1 173 0
 297 0012 014B     		ldr	r3, .L31
 298 0014 1870     		strb	r0, [r3]
 299              	.L29:
 300 0016 7047     		bx	lr
 301              	.L32:
 302              		.align	2
 303              	.L31:
 304 0018 00000000 		.word	mode
 305 001c 00000000 		.word	.LANCHOR0
 306 0020 00000000 		.word	currentState
 307              		.cfi_endproc
 308              	.LFE71:
 309              		.size	setMode, .-setMode
 310              		.section	.text.main,"ax",%progbits
 311              		.align	2
 312              		.global	main
 313              		.thumb
 314              		.thumb_func
 315              		.type	main, %function
 316              	main:
 317              	.LFB64:
  33:main.c        ****     CyGlobalIntEnable; /* Enable global interrupts. */
 318              		.loc 1 33 0
 319              		.cfi_startproc
 320              		@ Volatile: function does not return.
 321              		@ args = 0, pretend = 0, frame = 0
 322              		@ frame_needed = 0, uses_anonymous_args = 0
 323 0000 08B5     		push	{r3, lr}
 324              		.cfi_def_cfa_offset 8
 325              		.cfi_offset 3, -8
 326              		.cfi_offset 14, -4
  34:main.c        ****     
 327              		.loc 1 34 0
 328              		.syntax unified
 329              	@ 34 "main.c" 1
 330 0002 62B6     		CPSIE   i
 331              	@ 0 "" 2
  41:main.c        ****     initStepperX();
ARM GAS  C:\Users\jens1\AppData\Local\Temp\ccFhmsHh.s 			page 12


 332              		.loc 1 41 0
 333              		.thumb
 334              		.syntax unified
 335 0004 1448     		ldr	r0, .L37
 336 0006 FFF7FEFF 		bl	ISR_delay_StartEx
 337              	.LVL15:
  42:main.c        ****     initStepperY();
 338              		.loc 1 42 0
 339 000a FFF7FEFF 		bl	initStepperX
 340              	.LVL16:
  43:main.c        ****     initCircbuf(&circBuf);
 341              		.loc 1 43 0
 342 000e FFF7FEFF 		bl	initStepperY
 343              	.LVL17:
  44:main.c        ****     Sonar_Start();
 344              		.loc 1 44 0
 345 0012 1248     		ldr	r0, .L37+4
 346 0014 FFF7FEFF 		bl	initCircbuf
 347              	.LVL18:
  45:main.c        ****     WaSensInit();
 348              		.loc 1 45 0
 349 0018 FFF7FEFF 		bl	Sonar_Start
 350              	.LVL19:
  46:main.c        ****     initWaterPump();
 351              		.loc 1 46 0
 352 001c FFF7FEFF 		bl	WaSensInit
 353              	.LVL20:
  47:main.c        ****     MoistureSensor_init();
 354              		.loc 1 47 0
 355 0020 FFF7FEFF 		bl	initWaterPump
 356              	.LVL21:
  48:main.c        ****     SPI_start();
 357              		.loc 1 48 0
 358 0024 FFF7FEFF 		bl	MoistureSensor_init
 359              	.LVL22:
  49:main.c        ****     
 360              		.loc 1 49 0
 361 0028 FFF7FEFF 		bl	SPI_start
 362              	.LVL23:
  51:main.c        ****     CyDelay(1);
 363              		.loc 1 51 0
 364 002c FFF7FEFF 		bl	SPI_send_resetToDefault
 365              	.LVL24:
  52:main.c        ****     setMode(NORMAL_MODE); //default initial state
 366              		.loc 1 52 0
 367 0030 0120     		movs	r0, #1
 368 0032 FFF7FEFF 		bl	CyDelay
 369              	.LVL25:
  53:main.c        ****     noWater = FALSE;
 370              		.loc 1 53 0
 371 0036 0020     		movs	r0, #0
 372 0038 FFF7FEFF 		bl	setMode
 373              	.LVL26:
  54:main.c        ****     while(1) {
 374              		.loc 1 54 0
 375 003c 0022     		movs	r2, #0
 376 003e 084B     		ldr	r3, .L37+8
ARM GAS  C:\Users\jens1\AppData\Local\Temp\ccFhmsHh.s 			page 13


 377 0040 1A60     		str	r2, [r3]
 378              	.L35:
  67:main.c        ****             Handle_SPI_recieved();
 379              		.loc 1 67 0
 380 0042 084B     		ldr	r3, .L37+12
 381 0044 1B78     		ldrb	r3, [r3]	@ zero_extendqisi2
 382 0046 012B     		cmp	r3, #1
 383 0048 01D1     		bne	.L34
  68:main.c        ****         }
 384              		.loc 1 68 0
 385 004a FFF7FEFF 		bl	Handle_SPI_recieved
 386              	.LVL27:
 387              	.L34:
  71:main.c        ****         
 388              		.loc 1 71 0
 389 004e 064B     		ldr	r3, .L37+16
 390 0050 1B68     		ldr	r3, [r3]
 391 0052 9847     		blx	r3
 392              	.LVL28:
  73:main.c        **** }
 393              		.loc 1 73 0
 394 0054 F5E7     		b	.L35
 395              	.L38:
 396 0056 00BF     		.align	2
 397              	.L37:
 398 0058 00000000 		.word	DelayTimerInterrupt
 399 005c 00000000 		.word	circBuf
 400 0060 00000000 		.word	noWater
 401 0064 00000000 		.word	SPI_recieved_flag
 402 0068 00000000 		.word	currentState
 403              		.cfi_endproc
 404              	.LFE64:
 405              		.size	main, .-main
 406              		.section	.text.UARTisr,"ax",%progbits
 407              		.align	2
 408              		.global	UARTisr
 409              		.thumb
 410              		.thumb_func
 411              		.type	UARTisr, %function
 412              	UARTisr:
 413              	.LFB65:
  77:main.c        ****     char input = UART_1_ReadRxData();
 414              		.loc 1 77 0
 415              		.cfi_startproc
 416              		@ args = 0, pretend = 0, frame = 0
 417              		@ frame_needed = 0, uses_anonymous_args = 0
 418 0000 10B5     		push	{r4, lr}
 419              		.cfi_def_cfa_offset 8
 420              		.cfi_offset 4, -8
 421              		.cfi_offset 14, -4
  78:main.c        ****     UART_1_PutString("Command received from UART\n\r");
 422              		.loc 1 78 0
 423 0002 FFF7FEFF 		bl	UART_1_ReadRxData
 424              	.LVL29:
 425 0006 0446     		mov	r4, r0
 426              	.LVL30:
  79:main.c        ****     switch(input) {
ARM GAS  C:\Users\jens1\AppData\Local\Temp\ccFhmsHh.s 			page 14


 427              		.loc 1 79 0
 428 0008 3D48     		ldr	r0, .L55
 429 000a FFF7FEFF 		bl	UART_1_PutString
 430              	.LVL31:
  80:main.c        ****         case 'A': //NORMAL MODE
 431              		.loc 1 80 0
 432 000e A4F14100 		sub	r0, r4, #65
 433 0012 0B28     		cmp	r0, #11
 434 0014 73D8     		bhi	.L39
 435 0016 DFE800F0 		tbb	[pc, r0]
 436              	.L42:
 437 001a 06       		.byte	(.L41-.L42)/2
 438 001b 0D       		.byte	(.L43-.L42)/2
 439 001c 14       		.byte	(.L44-.L42)/2
 440 001d 1B       		.byte	(.L45-.L42)/2
 441 001e 22       		.byte	(.L46-.L42)/2
 442 001f 29       		.byte	(.L47-.L42)/2
 443 0020 35       		.byte	(.L48-.L42)/2
 444 0021 40       		.byte	(.L49-.L42)/2
 445 0022 4B       		.byte	(.L50-.L42)/2
 446 0023 57       		.byte	(.L51-.L42)/2
 447 0024 62       		.byte	(.L52-.L42)/2
 448 0025 6D       		.byte	(.L53-.L42)/2
 449              		.p2align 1
 450              	.L41:
  82:main.c        ****             UART_1_PutString("Setting mode to Normal mode\n\r");
 451              		.loc 1 82 0
 452 0026 0020     		movs	r0, #0
 453 0028 FFF7FEFF 		bl	setMode
 454              	.LVL32:
  83:main.c        ****             break;
 455              		.loc 1 83 0
 456 002c 3548     		ldr	r0, .L55+4
 457 002e FFF7FEFF 		bl	UART_1_PutString
 458              	.LVL33:
  84:main.c        ****         case 'B': //MANUAL MODE
 459              		.loc 1 84 0
 460 0032 10BD     		pop	{r4, pc}
 461              	.LVL34:
 462              	.L43:
  86:main.c        ****             UART_1_PutString("Setting mode to Manual mode\n\r");
 463              		.loc 1 86 0
 464 0034 0220     		movs	r0, #2
 465 0036 FFF7FEFF 		bl	setMode
 466              	.LVL35:
  87:main.c        ****             break; 
 467              		.loc 1 87 0
 468 003a 3348     		ldr	r0, .L55+8
 469 003c FFF7FEFF 		bl	UART_1_PutString
 470              	.LVL36:
  88:main.c        ****         case 'C': //POWERSAVING MODE
 471              		.loc 1 88 0
 472 0040 10BD     		pop	{r4, pc}
 473              	.LVL37:
 474              	.L44:
  90:main.c        ****             UART_1_PutString("Setting mode to Powersaving mode\n\r");
 475              		.loc 1 90 0
ARM GAS  C:\Users\jens1\AppData\Local\Temp\ccFhmsHh.s 			page 15


 476 0042 0120     		movs	r0, #1
 477 0044 FFF7FEFF 		bl	setMode
 478              	.LVL38:
  91:main.c        ****             break;
 479              		.loc 1 91 0
 480 0048 3048     		ldr	r0, .L55+12
 481 004a FFF7FEFF 		bl	UART_1_PutString
 482              	.LVL39:
  92:main.c        ****         case 'D': //STANDBY MODE
 483              		.loc 1 92 0
 484 004e 10BD     		pop	{r4, pc}
 485              	.LVL40:
 486              	.L45:
  94:main.c        ****             UART_1_PutString("Setting mode to Standby mode\n\r");
 487              		.loc 1 94 0
 488 0050 0420     		movs	r0, #4
 489 0052 FFF7FEFF 		bl	setMode
 490              	.LVL41:
  95:main.c        ****             break;
 491              		.loc 1 95 0
 492 0056 2E48     		ldr	r0, .L55+16
 493 0058 FFF7FEFF 		bl	UART_1_PutString
 494              	.LVL42:
  96:main.c        ****         case 'E': //AUTOMATISK VANDING
 495              		.loc 1 96 0
 496 005c 10BD     		pop	{r4, pc}
 497              	.LVL43:
 498              	.L46:
  98:main.c        ****             UART_1_PutString("Setting mode to Automatisk vanding mode\n\r");
 499              		.loc 1 98 0
 500 005e 0320     		movs	r0, #3
 501 0060 FFF7FEFF 		bl	setMode
 502              	.LVL44:
  99:main.c        ****             break;
 503              		.loc 1 99 0
 504 0064 2B48     		ldr	r0, .L55+20
 505 0066 FFF7FEFF 		bl	UART_1_PutString
 506              	.LVL45:
 100:main.c        ****         case 'F': //LEFT
 507              		.loc 1 100 0
 508 006a 10BD     		pop	{r4, pc}
 509              	.LVL46:
 510              	.L47:
 102:main.c        ****                 circBuf.push(&circBuf, moveDegreesX, -5);
 511              		.loc 1 102 0
 512 006c 2A4B     		ldr	r3, .L55+24
 513 006e 1B78     		ldrb	r3, [r3]	@ zero_extendqisi2
 514 0070 022B     		cmp	r3, #2
 515 0072 44D1     		bne	.L39
 103:main.c        ****             }
 516              		.loc 1 103 0
 517 0074 2948     		ldr	r0, .L55+28
 518 0076 D0F8A430 		ldr	r3, [r0, #164]
 519 007a 6FF00402 		mvn	r2, #4
 520 007e 2849     		ldr	r1, .L55+32
 521 0080 9847     		blx	r3
 522              	.LVL47:
ARM GAS  C:\Users\jens1\AppData\Local\Temp\ccFhmsHh.s 			page 16


 523 0082 10BD     		pop	{r4, pc}
 524              	.LVL48:
 525              	.L48:
 107:main.c        ****                 circBuf.push(&circBuf, moveDegreesX, 5);
 526              		.loc 1 107 0
 527 0084 244B     		ldr	r3, .L55+24
 528 0086 1B78     		ldrb	r3, [r3]	@ zero_extendqisi2
 529 0088 022B     		cmp	r3, #2
 530 008a 38D1     		bne	.L39
 108:main.c        ****             }
 531              		.loc 1 108 0
 532 008c 2348     		ldr	r0, .L55+28
 533 008e D0F8A430 		ldr	r3, [r0, #164]
 534 0092 0522     		movs	r2, #5
 535 0094 2249     		ldr	r1, .L55+32
 536 0096 9847     		blx	r3
 537              	.LVL49:
 538 0098 10BD     		pop	{r4, pc}
 539              	.LVL50:
 540              	.L49:
 112:main.c        ****                 circBuf.push(&circBuf, moveDegreesY, 5);
 541              		.loc 1 112 0
 542 009a 1F4B     		ldr	r3, .L55+24
 543 009c 1B78     		ldrb	r3, [r3]	@ zero_extendqisi2
 544 009e 022B     		cmp	r3, #2
 545 00a0 2DD1     		bne	.L39
 113:main.c        ****             }
 546              		.loc 1 113 0
 547 00a2 1E48     		ldr	r0, .L55+28
 548 00a4 D0F8A430 		ldr	r3, [r0, #164]
 549 00a8 0522     		movs	r2, #5
 550 00aa 1E49     		ldr	r1, .L55+36
 551 00ac 9847     		blx	r3
 552              	.LVL51:
 553 00ae 10BD     		pop	{r4, pc}
 554              	.LVL52:
 555              	.L50:
 117:main.c        ****                 circBuf.push(&circBuf, moveDegreesY, -5);
 556              		.loc 1 117 0
 557 00b0 194B     		ldr	r3, .L55+24
 558 00b2 1B78     		ldrb	r3, [r3]	@ zero_extendqisi2
 559 00b4 022B     		cmp	r3, #2
 560 00b6 22D1     		bne	.L39
 118:main.c        ****             }
 561              		.loc 1 118 0
 562 00b8 1848     		ldr	r0, .L55+28
 563 00ba D0F8A430 		ldr	r3, [r0, #164]
 564 00be 6FF00402 		mvn	r2, #4
 565 00c2 1849     		ldr	r1, .L55+36
 566 00c4 9847     		blx	r3
 567              	.LVL53:
 568 00c6 10BD     		pop	{r4, pc}
 569              	.LVL54:
 570              	.L51:
 122:main.c        ****                 circBuf.push(&circBuf, WaterPump_fireWater, TRUE);
 571              		.loc 1 122 0
 572 00c8 134B     		ldr	r3, .L55+24
ARM GAS  C:\Users\jens1\AppData\Local\Temp\ccFhmsHh.s 			page 17


 573 00ca 1B78     		ldrb	r3, [r3]	@ zero_extendqisi2
 574 00cc 022B     		cmp	r3, #2
 575 00ce 16D1     		bne	.L39
 123:main.c        ****             }
 576              		.loc 1 123 0
 577 00d0 1248     		ldr	r0, .L55+28
 578 00d2 D0F8A430 		ldr	r3, [r0, #164]
 579 00d6 0122     		movs	r2, #1
 580 00d8 1349     		ldr	r1, .L55+40
 581 00da 9847     		blx	r3
 582              	.LVL55:
 583 00dc 10BD     		pop	{r4, pc}
 584              	.LVL56:
 585              	.L52:
 127:main.c        ****                 circBuf.push(&circBuf, WaterPump_fireWater, FALSE);
 586              		.loc 1 127 0
 587 00de 0E4B     		ldr	r3, .L55+24
 588 00e0 1B78     		ldrb	r3, [r3]	@ zero_extendqisi2
 589 00e2 022B     		cmp	r3, #2
 590 00e4 0BD1     		bne	.L39
 128:main.c        ****             }
 591              		.loc 1 128 0
 592 00e6 0D48     		ldr	r0, .L55+28
 593 00e8 D0F8A430 		ldr	r3, [r0, #164]
 594 00ec 0022     		movs	r2, #0
 595 00ee 0E49     		ldr	r1, .L55+40
 596 00f0 9847     		blx	r3
 597              	.LVL57:
 598 00f2 10BD     		pop	{r4, pc}
 599              	.LVL58:
 600              	.L53:
 132:main.c        ****             SPI_send_pigeon_detected();
 601              		.loc 1 132 0
 602 00f4 0D48     		ldr	r0, .L55+44
 603 00f6 FFF7FEFF 		bl	UART_1_PutString
 604              	.LVL59:
 133:main.c        ****             break;
 605              		.loc 1 133 0
 606 00fa FFF7FEFF 		bl	SPI_send_pigeon_detected
 607              	.LVL60:
 608              	.L39:
 609 00fe 10BD     		pop	{r4, pc}
 610              	.LVL61:
 611              	.L56:
 612              		.align	2
 613              	.L55:
 614 0100 00000000 		.word	.LC0
 615 0104 20000000 		.word	.LC1
 616 0108 40000000 		.word	.LC2
 617 010c 60000000 		.word	.LC3
 618 0110 84000000 		.word	.LC4
 619 0114 A4000000 		.word	.LC5
 620 0118 00000000 		.word	mode
 621 011c 00000000 		.word	circBuf
 622 0120 00000000 		.word	moveDegreesX
 623 0124 00000000 		.word	moveDegreesY
 624 0128 00000000 		.word	WaterPump_fireWater
ARM GAS  C:\Users\jens1\AppData\Local\Temp\ccFhmsHh.s 			page 18


 625 012c D0000000 		.word	.LC6
 626              		.cfi_endproc
 627              	.LFE65:
 628              		.size	UARTisr, .-UARTisr
 629              		.global	__aeabi_ddiv
 630              		.global	__aeabi_dadd
 631              		.global	__aeabi_d2iz
 632              		.global	__aeabi_dsub
 633              		.global	__aeabi_dcmplt
 634              		.global	__aeabi_dcmpgt
 635              		.global	__aeabi_d2uiz
 636              		.section	.text.checkForPigeonAndShoot,"ax",%progbits
 637              		.align	2
 638              		.global	checkForPigeonAndShoot
 639              		.thumb
 640              		.thumb_func
 641              		.type	checkForPigeonAndShoot, %function
 642              	checkForPigeonAndShoot:
 643              	.LFB72:
 177:main.c        ****     
 644              		.loc 1 177 0
 645              		.cfi_startproc
 646              		@ args = 0, pretend = 0, frame = 32
 647              		@ frame_needed = 0, uses_anonymous_args = 0
 648 0000 2DE9F047 		push	{r4, r5, r6, r7, r8, r9, r10, lr}
 649              		.cfi_def_cfa_offset 32
 650              		.cfi_offset 4, -32
 651              		.cfi_offset 5, -28
 652              		.cfi_offset 6, -24
 653              		.cfi_offset 7, -20
 654              		.cfi_offset 8, -16
 655              		.cfi_offset 9, -12
 656              		.cfi_offset 10, -8
 657              		.cfi_offset 14, -4
 658 0004 88B0     		sub	sp, sp, #32
 659              		.cfi_def_cfa_offset 64
 179:main.c        ****     struct position detectedPosition = pigeonPosition;
 660              		.loc 1 179 0
 661 0006 6B4C     		ldr	r4, .L81
 662 0008 6846     		mov	r0, sp
 663 000a FFF7FEFF 		bl	Sonar_GetPosition
 664              	.LVL62:
 665 000e 9DE80F00 		ldmia	sp, {r0, r1, r2, r3}
 666 0012 84E80F00 		stmia	r4, {r0, r1, r2, r3}
 180:main.c        ****     
 667              		.loc 1 180 0
 668 0016 08AD     		add	r5, sp, #32
 669 0018 05E90F00 		stmdb	r5, {r0, r1, r2, r3}
 182:main.c        ****         SPI_send_pigeon_detected(); //log
 670              		.loc 1 182 0
 671 001c 2378     		ldrb	r3, [r4]	@ zero_extendqisi2
 672 001e 012B     		cmp	r3, #1
 673 0020 40F0C480 		bne	.L57
 183:main.c        ****         SPI_send_waterlevel(WaSensMeasure());
 674              		.loc 1 183 0
 675 0024 FFF7FEFF 		bl	SPI_send_pigeon_detected
 676              	.LVL63:
ARM GAS  C:\Users\jens1\AppData\Local\Temp\ccFhmsHh.s 			page 19


 184:main.c        ****         while(pigeonPosition.detected == 1) { //if pigeon detected...
 677              		.loc 1 184 0
 678 0028 FFF7FEFF 		bl	WaSensMeasure
 679              	.LVL64:
 680 002c C0B2     		uxtb	r0, r0
 681 002e FFF7FEFF 		bl	SPI_send_waterlevel
 682              	.LVL65:
 185:main.c        ****             
 683              		.loc 1 185 0
 684 0032 A8E0     		b	.L59
 685              	.LVL66:
 686              	.L73:
 687              	.LBB2:
 188:main.c        ****                 case 1:
 688              		.loc 1 188 0
 689 0034 5F4B     		ldr	r3, .L81
 690 0036 5B68     		ldr	r3, [r3, #4]
 691 0038 022B     		cmp	r3, #2
 692 003a 23D0     		beq	.L74
 693 003c 032B     		cmp	r3, #3
 694 003e 10D0     		beq	.L62
 695 0040 012B     		cmp	r3, #1
 696 0042 21D1     		bne	.L61
 190:main.c        ****                     break;
 697              		.loc 1 190 0
 698 0044 0022     		movs	r2, #0
 699 0046 5C4B     		ldr	r3, .L81+4
 700 0048 5A49     		ldr	r1, .L81
 701 004a D1E90201 		ldrd	r0, [r1, #8]
 702 004e FFF7FEFF 		bl	__aeabi_ddiv
 703              	.LVL67:
 704 0052 0022     		movs	r2, #0
 705 0054 594B     		ldr	r3, .L81+8
 706 0056 FFF7FEFF 		bl	__aeabi_dadd
 707              	.LVL68:
 708 005a FFF7FEFF 		bl	__aeabi_d2iz
 709              	.LVL69:
 710 005e 8246     		mov	r10, r0
 711              	.LVL70:
 191:main.c        ****                 case 2:
 712              		.loc 1 191 0
 713 0060 12E0     		b	.L61
 714              	.LVL71:
 715              	.L62:
 196:main.c        ****                     break;
 716              		.loc 1 196 0
 717 0062 0022     		movs	r2, #0
 718 0064 544B     		ldr	r3, .L81+4
 719 0066 5349     		ldr	r1, .L81
 720 0068 D1E90201 		ldrd	r0, [r1, #8]
 721 006c FFF7FEFF 		bl	__aeabi_ddiv
 722              	.LVL72:
 723 0070 0246     		mov	r2, r0
 724 0072 0B46     		mov	r3, r1
 725 0074 0020     		movs	r0, #0
 726 0076 5249     		ldr	r1, .L81+12
 727 0078 FFF7FEFF 		bl	__aeabi_dsub
ARM GAS  C:\Users\jens1\AppData\Local\Temp\ccFhmsHh.s 			page 20


 728              	.LVL73:
 729 007c FFF7FEFF 		bl	__aeabi_d2iz
 730              	.LVL74:
 731 0080 8246     		mov	r10, r0
 732              	.LVL75:
 197:main.c        ****                 default: break;
 733              		.loc 1 197 0
 734 0082 01E0     		b	.L61
 735              	.LVL76:
 736              	.L74:
 193:main.c        ****                     break;
 737              		.loc 1 193 0
 738 0084 4FF0410A 		mov	r10, #65
 739              	.LVL77:
 740              	.L61:
 201:main.c        ****                 targetY = -80;
 741              		.loc 1 201 0
 742 0088 4A4B     		ldr	r3, .L81
 743 008a D3E90245 		ldrd	r4, [r3, #8]
 744 008e 0022     		movs	r2, #0
 745 0090 4C4B     		ldr	r3, .L81+16
 746 0092 2046     		mov	r0, r4
 747 0094 2946     		mov	r1, r5
 748 0096 FFF7FEFF 		bl	__aeabi_dcmplt
 749              	.LVL78:
 750 009a B8B9     		cbnz	r0, .L75
 203:main.c        ****                 targetY = -70;
 751              		.loc 1 203 0
 752 009c 0022     		movs	r2, #0
 753 009e 494B     		ldr	r3, .L81+16
 754 00a0 2046     		mov	r0, r4
 755 00a2 2946     		mov	r1, r5
 756 00a4 FFF7FEFF 		bl	__aeabi_dcmpgt
 757              	.LVL79:
 758 00a8 30B1     		cbz	r0, .L65
 203:main.c        ****                 targetY = -70;
 759              		.loc 1 203 0 is_stmt 0 discriminator 1
 760 00aa 0022     		movs	r2, #0
 761 00ac 464B     		ldr	r3, .L81+20
 762 00ae 2046     		mov	r0, r4
 763 00b0 2946     		mov	r1, r5
 764 00b2 FFF7FEFF 		bl	__aeabi_dcmplt
 765              	.LVL80:
 766 00b6 60B9     		cbnz	r0, .L76
 767              	.L65:
 205:main.c        ****                 targetY = -60;   
 768              		.loc 1 205 0 is_stmt 1
 769 00b8 0022     		movs	r2, #0
 770 00ba 434B     		ldr	r3, .L81+20
 771 00bc 2046     		mov	r0, r4
 772 00be 2946     		mov	r1, r5
 773 00c0 FFF7FEFF 		bl	__aeabi_dcmpgt
 774              	.LVL81:
 775 00c4 40B9     		cbnz	r0, .L77
 208:main.c        ****             }
 776              		.loc 1 208 0
 777 00c6 414B     		ldr	r3, .L81+24
ARM GAS  C:\Users\jens1\AppData\Local\Temp\ccFhmsHh.s 			page 21


 778 00c8 1C68     		ldr	r4, [r3]
 779              	.LVL82:
 780 00ca 07E0     		b	.L64
 781              	.LVL83:
 782              	.L75:
 202:main.c        ****             } else if (pigeonPosition.distance > 20 && pigeonPosition.distance < 40) {
 783              		.loc 1 202 0
 784 00cc 6FF04F04 		mvn	r4, #79
 785 00d0 04E0     		b	.L64
 786              	.L76:
 204:main.c        ****             } else if (pigeonPosition.distance > 40) {
 787              		.loc 1 204 0
 788 00d2 6FF04504 		mvn	r4, #69
 789 00d6 01E0     		b	.L64
 790              	.L77:
 206:main.c        ****             } else {
 791              		.loc 1 206 0
 792 00d8 6FF03B04 		mvn	r4, #59
 793              	.L64:
 794              	.LVL84:
 211:main.c        ****             moveDegreesY(targetY - stepperPositionY);
 795              		.loc 1 211 0
 796 00dc 3C4B     		ldr	r3, .L81+28
 797 00de 1868     		ldr	r0, [r3]
 798 00e0 C0EB0A00 		rsb	r0, r0, r10
 799 00e4 FFF7FEFF 		bl	moveDegreesX
 800              	.LVL85:
 212:main.c        ****             
 801              		.loc 1 212 0
 802 00e8 384B     		ldr	r3, .L81+24
 803 00ea 1868     		ldr	r0, [r3]
 804 00ec 201A     		subs	r0, r4, r0
 805 00ee FFF7FEFF 		bl	moveDegreesY
 806              	.LVL86:
 214:main.c        ****                     round(detectedPosition.distance)+5 > round(pigeonPosition.distance) &&
 807              		.loc 1 214 0
 808 00f2 13E0     		b	.L67
 809              	.LVL87:
 810              	.L72:
 217:main.c        ****                     WaterPump_fireWater(TRUE);
 811              		.loc 1 217 0
 812 00f4 374B     		ldr	r3, .L81+32
 813 00f6 1B68     		ldr	r3, [r3]
 814 00f8 1BB9     		cbnz	r3, .L68
 218:main.c        ****                 else if (noWater == TRUE) {
 815              		.loc 1 218 0
 816 00fa 0120     		movs	r0, #1
 817 00fc FFF7FEFF 		bl	WaterPump_fireWater
 818              	.LVL88:
 819 0100 04E0     		b	.L69
 820              	.L68:
 219:main.c        ****                     WaterPump_fireWater(FALSE);
 821              		.loc 1 219 0
 822 0102 012B     		cmp	r3, #1
 823 0104 02D1     		bne	.L69
 220:main.c        ****                 }    
 824              		.loc 1 220 0
ARM GAS  C:\Users\jens1\AppData\Local\Temp\ccFhmsHh.s 			page 22


 825 0106 0020     		movs	r0, #0
 826 0108 FFF7FEFF 		bl	WaterPump_fireWater
 827              	.LVL89:
 828              	.L69:
 222:main.c        ****             }
 829              		.loc 1 222 0
 830 010c 294D     		ldr	r5, .L81
 831 010e 6846     		mov	r0, sp
 832 0110 FFF7FEFF 		bl	Sonar_GetPosition
 833              	.LVL90:
 834 0114 9DE80F00 		ldmia	sp, {r0, r1, r2, r3}
 835 0118 85E80F00 		stmia	r5, {r0, r1, r2, r3}
 836              	.L67:
 214:main.c        ****                     round(detectedPosition.distance)+5 > round(pigeonPosition.distance) &&
 837              		.loc 1 214 0
 838 011c 254B     		ldr	r3, .L81
 839 011e 5B68     		ldr	r3, [r3, #4]
 840 0120 059A     		ldr	r2, [sp, #20]
 841 0122 9A42     		cmp	r2, r3
 842 0124 27D1     		bne	.L70
 215:main.c        ****                     round(detectedPosition.distance)-5 < round(pigeonPosition.distance)) { //fire w
 843              		.loc 1 215 0 discriminator 1
 844 0126 DDE90601 		ldrd	r0, [sp, #24]
 845 012a FFF7FEFF 		bl	round
 846              	.LVL91:
 847 012e 8046     		mov	r8, r0
 848 0130 8946     		mov	r9, r1
 849 0132 0022     		movs	r2, #0
 850 0134 284B     		ldr	r3, .L81+36
 851 0136 FFF7FEFF 		bl	__aeabi_dadd
 852              	.LVL92:
 853 013a 0646     		mov	r6, r0
 854 013c 0F46     		mov	r7, r1
 855 013e 1D4B     		ldr	r3, .L81
 856 0140 D3E90201 		ldrd	r0, [r3, #8]
 857 0144 FFF7FEFF 		bl	round
 858              	.LVL93:
 859 0148 0446     		mov	r4, r0
 860 014a 0D46     		mov	r5, r1
 214:main.c        ****                     round(detectedPosition.distance)+5 > round(pigeonPosition.distance) &&
 861              		.loc 1 214 0 discriminator 1
 862 014c 0246     		mov	r2, r0
 863 014e 0B46     		mov	r3, r1
 864 0150 3046     		mov	r0, r6
 865 0152 3946     		mov	r1, r7
 866 0154 FFF7FEFF 		bl	__aeabi_dcmpgt
 867              	.LVL94:
 868 0158 68B1     		cbz	r0, .L70
 216:main.c        ****                 if (noWater == FALSE)
 869              		.loc 1 216 0
 870 015a 0022     		movs	r2, #0
 871 015c 1E4B     		ldr	r3, .L81+36
 872 015e 4046     		mov	r0, r8
 873 0160 4946     		mov	r1, r9
 874 0162 FFF7FEFF 		bl	__aeabi_dsub
 875              	.LVL95:
 215:main.c        ****                     round(detectedPosition.distance)-5 < round(pigeonPosition.distance)) { //fire w
ARM GAS  C:\Users\jens1\AppData\Local\Temp\ccFhmsHh.s 			page 23


 876              		.loc 1 215 0
 877 0166 0246     		mov	r2, r0
 878 0168 0B46     		mov	r3, r1
 879 016a 2046     		mov	r0, r4
 880 016c 2946     		mov	r1, r5
 881 016e FFF7FEFF 		bl	__aeabi_dcmpgt
 882              	.LVL96:
 883 0172 0028     		cmp	r0, #0
 884 0174 BED1     		bne	.L72
 885              	.L70:
 226:main.c        ****         }
 886              		.loc 1 226 0
 887 0176 0F4D     		ldr	r5, .L81
 888 0178 6846     		mov	r0, sp
 889 017a FFF7FEFF 		bl	Sonar_GetPosition
 890              	.LVL97:
 891 017e 9DE80F00 		ldmia	sp, {r0, r1, r2, r3}
 892 0182 85E80F00 		stmia	r5, {r0, r1, r2, r3}
 893              	.LVL98:
 894              	.L59:
 895              	.LBE2:
 185:main.c        ****             
 896              		.loc 1 185 0
 897 0186 0B4B     		ldr	r3, .L81
 898 0188 1B78     		ldrb	r3, [r3]	@ zero_extendqisi2
 899 018a 012B     		cmp	r3, #1
 900 018c 3FF452AF 		beq	.L73
 228:main.c        ****         WaterPump_fireWater(FALSE);
 901              		.loc 1 228 0
 902 0190 059C     		ldr	r4, [sp, #20]
 903 0192 DDE90601 		ldrd	r0, [sp, #24]
 904 0196 FFF7FEFF 		bl	round
 905              	.LVL99:
 906 019a FFF7FEFF 		bl	__aeabi_d2uiz
 907              	.LVL100:
 908 019e C1B2     		uxtb	r1, r0
 909 01a0 E0B2     		uxtb	r0, r4
 910 01a2 FFF7FEFF 		bl	SPI_send_pigeon_shot_position
 911              	.LVL101:
 229:main.c        ****     }
 912              		.loc 1 229 0
 913 01a6 0020     		movs	r0, #0
 914 01a8 FFF7FEFF 		bl	WaterPump_fireWater
 915              	.LVL102:
 916              	.L57:
 233:main.c        **** 
 917              		.loc 1 233 0
 918 01ac 08B0     		add	sp, sp, #32
 919              		.cfi_def_cfa_offset 32
 920              		@ sp needed
 921 01ae BDE8F087 		pop	{r4, r5, r6, r7, r8, r9, r10, pc}
 922              	.L82:
 923 01b2 00BF     		.align	2
 924              	.L81:
 925 01b4 00000000 		.word	pigeonPosition
 926 01b8 00000840 		.word	1074266112
 927 01bc 00805140 		.word	1079083008
ARM GAS  C:\Users\jens1\AppData\Local\Temp\ccFhmsHh.s 			page 24


 928 01c0 00004E40 		.word	1078853632
 929 01c4 00003440 		.word	1077149696
 930 01c8 00004440 		.word	1078198272
 931 01cc 00000000 		.word	stepperPositionY
 932 01d0 00000000 		.word	stepperPositionX
 933 01d4 00000000 		.word	noWater
 934 01d8 00001440 		.word	1075052544
 935              		.cfi_endproc
 936              	.LFE72:
 937              		.size	checkForPigeonAndShoot, .-checkForPigeonAndShoot
 938              		.section	.text.normalMode,"ax",%progbits
 939              		.align	2
 940              		.global	normalMode
 941              		.thumb
 942              		.thumb_func
 943              		.type	normalMode, %function
 944              	normalMode:
 945              	.LFB73:
 236:main.c        ****     checkForPigeonAndShoot();
 946              		.loc 1 236 0
 947              		.cfi_startproc
 948              		@ args = 0, pretend = 0, frame = 0
 949              		@ frame_needed = 0, uses_anonymous_args = 0
 950 0000 08B5     		push	{r3, lr}
 951              		.cfi_def_cfa_offset 8
 952              		.cfi_offset 3, -8
 953              		.cfi_offset 14, -4
 237:main.c        ****     
 954              		.loc 1 237 0
 955 0002 FFF7FEFF 		bl	checkForPigeonAndShoot
 956              	.LVL103:
 239:main.c        ****     Delay_Timer_WritePeriod(DELAY_NORMAL_MODE_MS); //set period
 957              		.loc 1 239 0
 958 0006 FFF7FEFF 		bl	Delay_Timer_Stop
 959              	.LVL104:
 240:main.c        ****     Delay_Timer_WriteCounter(DELAY_NORMAL_MODE_MS); //reset
 960              		.loc 1 240 0
 961 000a 40F6B830 		movw	r0, #3000
 962 000e FFF7FEFF 		bl	Delay_Timer_WritePeriod
 963              	.LVL105:
 241:main.c        ****     Delay_Timer_Start();
 964              		.loc 1 241 0
 965 0012 40F6B830 		movw	r0, #3000
 966 0016 FFF7FEFF 		bl	Delay_Timer_WriteCounter
 967              	.LVL106:
 242:main.c        ****     CyPmAltAct(PM_ALT_ACT_TIME_NONE, PM_ALT_ACT_SRC_INTERRUPT);
 968              		.loc 1 242 0
 969 001a FFF7FEFF 		bl	Delay_Timer_Start
 970              	.LVL107:
 243:main.c        **** }
 971              		.loc 1 243 0
 972 001e 1021     		movs	r1, #16
 973 0020 0020     		movs	r0, #0
 974 0022 FFF7FEFF 		bl	CyPmAltAct
 975              	.LVL108:
 976 0026 08BD     		pop	{r3, pc}
 977              		.cfi_endproc
ARM GAS  C:\Users\jens1\AppData\Local\Temp\ccFhmsHh.s 			page 25


 978              	.LFE73:
 979              		.size	normalMode, .-normalMode
 980              		.section	.text.powersavingMode,"ax",%progbits
 981              		.align	2
 982              		.global	powersavingMode
 983              		.thumb
 984              		.thumb_func
 985              		.type	powersavingMode, %function
 986              	powersavingMode:
 987              	.LFB74:
 246:main.c        ****     checkForPigeonAndShoot();
 988              		.loc 1 246 0
 989              		.cfi_startproc
 990              		@ args = 0, pretend = 0, frame = 0
 991              		@ frame_needed = 0, uses_anonymous_args = 0
 992 0000 08B5     		push	{r3, lr}
 993              		.cfi_def_cfa_offset 8
 994              		.cfi_offset 3, -8
 995              		.cfi_offset 14, -4
 247:main.c        ****     CyDelay(5);
 996              		.loc 1 247 0
 997 0002 FFF7FEFF 		bl	checkForPigeonAndShoot
 998              	.LVL109:
 248:main.c        ****     
 999              		.loc 1 248 0
 1000 0006 0520     		movs	r0, #5
 1001 0008 FFF7FEFF 		bl	CyDelay
 1002              	.LVL110:
 250:main.c        ****     Delay_Timer_WritePeriod(DELAY_POWERSAVING_MODE_MS);
 1003              		.loc 1 250 0
 1004 000c FFF7FEFF 		bl	Delay_Timer_Stop
 1005              	.LVL111:
 251:main.c        ****     Delay_Timer_WriteCounter(DELAY_POWERSAVING_MODE_MS);
 1006              		.loc 1 251 0
 1007 0010 4EF66020 		movw	r0, #60000
 1008 0014 FFF7FEFF 		bl	Delay_Timer_WritePeriod
 1009              	.LVL112:
 252:main.c        ****     Delay_Timer_Start();
 1010              		.loc 1 252 0
 1011 0018 4EF66020 		movw	r0, #60000
 1012 001c FFF7FEFF 		bl	Delay_Timer_WriteCounter
 1013              	.LVL113:
 253:main.c        ****     CyPmAltAct(PM_ALT_ACT_TIME_NONE, PM_ALT_ACT_SRC_INTERRUPT);
 1014              		.loc 1 253 0
 1015 0020 FFF7FEFF 		bl	Delay_Timer_Start
 1016              	.LVL114:
 254:main.c        **** }
 1017              		.loc 1 254 0
 1018 0024 1021     		movs	r1, #16
 1019 0026 0020     		movs	r0, #0
 1020 0028 FFF7FEFF 		bl	CyPmAltAct
 1021              	.LVL115:
 1022 002c 08BD     		pop	{r3, pc}
 1023              		.cfi_endproc
 1024              	.LFE74:
 1025              		.size	powersavingMode, .-powersavingMode
 1026              		.comm	msg,256,4
ARM GAS  C:\Users\jens1\AppData\Local\Temp\ccFhmsHh.s 			page 26


 1027              		.global	states
 1028              		.comm	currentState,4,4
 1029              		.comm	circBuf,184,4
 1030              		.comm	pigeonPosition,16,8
 1031              		.comm	noWater,4,4
 1032              		.comm	mode,1,1
 1033              		.comm	SPI_recieved,1,1
 1034              		.comm	SPI_recieved_flag,1,1
 1035              		.comm	stepperStateY,1,1
 1036              		.comm	timerDoneFlagY,1,1
 1037              		.comm	stepperPositionY,4,4
 1038              		.comm	stepperStateX,1,1
 1039              		.comm	timerDoneFlagX,1,1
 1040              		.comm	stepperPositionX,4,4
 1041              		.comm	sonarTimerDone,1,1
 1042 002e 00BF     		.data
 1043              		.align	2
 1044              		.set	.LANCHOR0,. + 0
 1045              		.type	states, %object
 1046              		.size	states, 20
 1047              	states:
 1048 0000 00000000 		.word	normalMode
 1049 0004 00000000 		.word	powersavingMode
 1050 0008 00000000 		.word	manualMode
 1051 000c 00000000 		.word	automatiskVanding
 1052 0010 00000000 		.word	standbyMode
 1053              		.section	.rodata.str1.4,"aMS",%progbits,1
 1054              		.align	2
 1055              	.LC0:
 1056 0000 436F6D6D 		.ascii	"Command received from UART\012\015\000"
 1056      616E6420 
 1056      72656365 
 1056      69766564 
 1056      2066726F 
 1057 001d 000000   		.space	3
 1058              	.LC1:
 1059 0020 53657474 		.ascii	"Setting mode to Normal mode\012\015\000"
 1059      696E6720 
 1059      6D6F6465 
 1059      20746F20 
 1059      4E6F726D 
 1060 003e 0000     		.space	2
 1061              	.LC2:
 1062 0040 53657474 		.ascii	"Setting mode to Manual mode\012\015\000"
 1062      696E6720 
 1062      6D6F6465 
 1062      20746F20 
 1062      4D616E75 
 1063 005e 0000     		.space	2
 1064              	.LC3:
 1065 0060 53657474 		.ascii	"Setting mode to Powersaving mode\012\015\000"
 1065      696E6720 
 1065      6D6F6465 
 1065      20746F20 
 1065      506F7765 
 1066 0083 00       		.space	1
 1067              	.LC4:
ARM GAS  C:\Users\jens1\AppData\Local\Temp\ccFhmsHh.s 			page 27


 1068 0084 53657474 		.ascii	"Setting mode to Standby mode\012\015\000"
 1068      696E6720 
 1068      6D6F6465 
 1068      20746F20 
 1068      5374616E 
 1069 00a3 00       		.space	1
 1070              	.LC5:
 1071 00a4 53657474 		.ascii	"Setting mode to Automatisk vanding mode\012\015\000"
 1071      696E6720 
 1071      6D6F6465 
 1071      20746F20 
 1071      4175746F 
 1072 00ce 0000     		.space	2
 1073              	.LC6:
 1074 00d0 53656E64 		.ascii	"Send pigeon detected\012\015\000"
 1074      20706967 
 1074      656F6E20 
 1074      64657465 
 1074      63746564 
 1075              		.text
 1076              	.Letext0:
 1077              		.file 2 "c:\\program files (x86)\\cypress\\psoc creator\\4.2\\psoc creator\\import\\gnu\\arm\\5.4.
 1078              		.file 3 "c:\\program files (x86)\\cypress\\psoc creator\\4.2\\psoc creator\\import\\gnu\\arm\\5.4.
 1079              		.file 4 "Generated_Source\\PSoC5/cytypes.h"
 1080              		.file 5 "SonarDriver.h"
 1081              		.file 6 "CircularBuffer.h"
 1082              		.file 7 "MotorDriverX.h"
 1083              		.file 8 "PSoCcontroller.h"
 1084              		.file 9 "Generated_Source\\PSoC5/core_cm3.h"
 1085              		.file 10 "MotorDriverY.h"
 1086              		.file 11 "SPI_driver_PSoC.h"
 1087              		.file 12 "Generated_Source\\PSoC5/CyLib.h"
 1088              		.file 13 "Generated_Source\\PSoC5/Delay_Timer.h"
 1089              		.file 14 "MoistureSensor.h"
 1090              		.file 15 "WaterPump.h"
 1091              		.file 16 "Generated_Source\\PSoC5/cyPm.h"
 1092              		.file 17 "Generated_Source\\PSoC5/Timer_StepperX.h"
 1093              		.file 18 "Generated_Source\\PSoC5/Timer_StepperY.h"
 1094              		.file 19 "Generated_Source\\PSoC5/SPI_1.h"
 1095              		.file 20 "Generated_Source\\PSoC5/ISR_delay.h"
 1096              		.file 21 "WaterSensor.h"
 1097              		.file 22 "Generated_Source\\PSoC5/UART_1.h"
 1098              		.file 23 "c:\\program files (x86)\\cypress\\psoc creator\\4.2\\psoc creator\\import\\gnu\\arm\\5.4