ARM GAS  C:\Users\Lasse\AppData\Local\Temp\cc0BnvFl.s 			page 1


   1              		.syntax unified
   2              		.cpu cortex-m3
   3              		.fpu softvfp
   4              		.eabi_attribute 20, 1
   5              		.eabi_attribute 21, 1
   6              		.eabi_attribute 23, 3
   7              		.eabi_attribute 24, 1
   8              		.eabi_attribute 25, 1
   9              		.eabi_attribute 26, 1
  10              		.eabi_attribute 30, 1
  11              		.eabi_attribute 34, 1
  12              		.eabi_attribute 18, 4
  13              		.thumb
  14              		.syntax unified
  15              		.file	"MoistureSensor.c"
  16              		.text
  17              	.Ltext0:
  18              		.cfi_sections	.debug_frame
  19              		.section	.text.MoistureSensor_init,"ax",%progbits
  20              		.align	2
  21              		.global	MoistureSensor_init
  22              		.thumb
  23              		.thumb_func
  24              		.type	MoistureSensor_init, %function
  25              	MoistureSensor_init:
  26              	.LFB63:
  27              		.file 1 "MoistureSensor.c"
   1:MoistureSensor.c **** /* ========================================
   2:MoistureSensor.c ****  * PIGEON EXTERMINATION SYSTEM
   3:MoistureSensor.c ****  * Moisture Sensor Driver
   4:MoistureSensor.c ****  * Source-file
   5:MoistureSensor.c ****  * 
   6:MoistureSensor.c ****  * Author: Lasse Krarup
   7:MoistureSensor.c ****  *
   8:MoistureSensor.c ****  * ========================================
   9:MoistureSensor.c **** */
  10:MoistureSensor.c **** #include "MoistureSensor.h"
  11:MoistureSensor.c **** 
  12:MoistureSensor.c **** void MoistureSensor_init(void) {
  28              		.loc 1 12 0
  29              		.cfi_startproc
  30              		@ args = 0, pretend = 0, frame = 0
  31              		@ frame_needed = 0, uses_anonymous_args = 0
  32 0000 08B5     		push	{r3, lr}
  33              		.cfi_def_cfa_offset 8
  34              		.cfi_offset 3, -8
  35              		.cfi_offset 14, -4
  13:MoistureSensor.c ****     ADC_Moisture_Start();   
  36              		.loc 1 13 0
  37 0002 FFF7FEFF 		bl	ADC_Moisture_Start
  38              	.LVL0:
  39 0006 08BD     		pop	{r3, pc}
  40              		.cfi_endproc
  41              	.LFE63:
  42              		.size	MoistureSensor_init, .-MoistureSensor_init
  43              		.section	.text.MoistureSensor_getResult,"ax",%progbits
  44              		.align	2
ARM GAS  C:\Users\Lasse\AppData\Local\Temp\cc0BnvFl.s 			page 2


  45              		.global	MoistureSensor_getResult
  46              		.thumb
  47              		.thumb_func
  48              		.type	MoistureSensor_getResult, %function
  49              	MoistureSensor_getResult:
  50              	.LFB64:
  14:MoistureSensor.c **** }
  15:MoistureSensor.c **** 
  16:MoistureSensor.c **** int MoistureSensor_getResult(void) {
  51              		.loc 1 16 0
  52              		.cfi_startproc
  53              		@ args = 0, pretend = 0, frame = 0
  54              		@ frame_needed = 0, uses_anonymous_args = 0
  55 0000 08B5     		push	{r3, lr}
  56              		.cfi_def_cfa_offset 8
  57              		.cfi_offset 3, -8
  58              		.cfi_offset 14, -4
  17:MoistureSensor.c ****     ADC_Moisture_StartConvert();
  59              		.loc 1 17 0
  60 0002 FFF7FEFF 		bl	ADC_Moisture_StartConvert
  61              	.LVL1:
  62              	.L4:
  18:MoistureSensor.c ****     while(!ADC_Moisture_IsEndConversion(1)); //wait for result
  63              		.loc 1 18 0 discriminator 1
  64 0006 0120     		movs	r0, #1
  65 0008 FFF7FEFF 		bl	ADC_Moisture_IsEndConversion
  66              	.LVL2:
  67 000c 0028     		cmp	r0, #0
  68 000e FAD0     		beq	.L4
  19:MoistureSensor.c ****     
  20:MoistureSensor.c ****     return ADC_Moisture_GetResult16();
  69              		.loc 1 20 0
  70 0010 FFF7FEFF 		bl	ADC_Moisture_GetResult16
  71              	.LVL3:
  21:MoistureSensor.c **** }
  72              		.loc 1 21 0
  73 0014 08BD     		pop	{r3, pc}
  74              		.cfi_endproc
  75              	.LFE64:
  76              		.size	MoistureSensor_getResult, .-MoistureSensor_getResult
  77 0016 00BF     		.text
  78              	.Letext0:
  79              		.file 2 "c:\\program files (x86)\\cypress\\psoc creator\\4.2\\psoc creator\\import\\gnu\\arm\\5.4.
  80              		.file 3 "c:\\program files (x86)\\cypress\\psoc creator\\4.2\\psoc creator\\import\\gnu\\arm\\5.4.
  81              		.file 4 "Generated_Source\\PSoC5/ADC_Moisture.h"
  82              		.file 5 "Generated_Source\\PSoC5/core_cm3.h"