ARM GAS  C:\Users\jens1\AppData\Local\Temp\ccp7gTZc.s 			page 1


   1              		.syntax unified
   2              		.cpu cortex-m3
   3              		.fpu softvfp
   4              		.eabi_attribute 20, 1
   5              		.eabi_attribute 21, 1
   6              		.eabi_attribute 23, 3
   7              		.eabi_attribute 24, 1
   8              		.eabi_attribute 25, 1
   9              		.eabi_attribute 26, 1
  10              		.eabi_attribute 30, 1
  11              		.eabi_attribute 34, 1
  12              		.eabi_attribute 18, 4
  13              		.thumb
  14              		.syntax unified
  15              		.file	"MotorDriverX.c"
  16              		.text
  17              	.Ltext0:
  18              		.cfi_sections	.debug_frame
  19              		.section	.text.stepperX_isr_handler,"ax",%progbits
  20              		.align	2
  21              		.global	stepperX_isr_handler
  22              		.thumb
  23              		.thumb_func
  24              		.type	stepperX_isr_handler, %function
  25              	stepperX_isr_handler:
  26              	.LFB63:
  27              		.file 1 "MotorDriverX.c"
   1:MotorDriverX.c **** #include "MotorDriverX.h"
   2:MotorDriverX.c **** 
   3:MotorDriverX.c **** CY_ISR(stepperX_isr_handler) {
  28              		.loc 1 3 0
  29              		.cfi_startproc
  30              		@ args = 0, pretend = 0, frame = 0
  31              		@ frame_needed = 0, uses_anonymous_args = 0
  32 0000 08B5     		push	{r3, lr}
  33              		.cfi_def_cfa_offset 8
  34              		.cfi_offset 3, -8
  35              		.cfi_offset 14, -4
   4:MotorDriverX.c ****     Timer_StepperX_Stop();
  36              		.loc 1 4 0
  37 0002 FFF7FEFF 		bl	Timer_StepperX_Stop
  38              	.LVL0:
   5:MotorDriverX.c ****     timerDoneFlagX = 1;
  39              		.loc 1 5 0
  40 0006 0122     		movs	r2, #1
  41 0008 014B     		ldr	r3, .L3
  42 000a 1A70     		strb	r2, [r3]
  43 000c 08BD     		pop	{r3, pc}
  44              	.L4:
  45 000e 00BF     		.align	2
  46              	.L3:
  47 0010 00000000 		.word	timerDoneFlagX
  48              		.cfi_endproc
  49              	.LFE63:
  50              		.size	stepperX_isr_handler, .-stepperX_isr_handler
  51              		.section	.text.moveStepX,"ax",%progbits
  52              		.align	2
ARM GAS  C:\Users\jens1\AppData\Local\Temp\ccp7gTZc.s 			page 2


  53              		.global	moveStepX
  54              		.thumb
  55              		.thumb_func
  56              		.type	moveStepX, %function
  57              	moveStepX:
  58              	.LFB67:
   6:MotorDriverX.c **** }
   7:MotorDriverX.c **** 
   8:MotorDriverX.c **** void initStepperX() {
   9:MotorDriverX.c ****     Pin_X1_Write(0);
  10:MotorDriverX.c ****     Pin_X2_Write(0);
  11:MotorDriverX.c ****     
  12:MotorDriverX.c ****     ISR_stepperX_StartEx(stepperX_isr_handler);
  13:MotorDriverX.c ****     timerDoneFlagX = 0;
  14:MotorDriverX.c ****     
  15:MotorDriverX.c ****     resetPositionX();
  16:MotorDriverX.c ****     moveDegreesX(90+OFFSET_X);
  17:MotorDriverX.c **** }
  18:MotorDriverX.c **** 
  19:MotorDriverX.c **** void rotateClockwiseX() {
  20:MotorDriverX.c ****     if(stepperStateX == WEST) { 
  21:MotorDriverX.c ****         stepperStateX = NORTH;
  22:MotorDriverX.c ****     }
  23:MotorDriverX.c ****     else {
  24:MotorDriverX.c ****         ++stepperStateX;
  25:MotorDriverX.c ****     }
  26:MotorDriverX.c ****     moveStepX();
  27:MotorDriverX.c ****     ++stepperPositionX;
  28:MotorDriverX.c **** }
  29:MotorDriverX.c **** 
  30:MotorDriverX.c **** void rotateCounterClockwiseX() {
  31:MotorDriverX.c ****     if(stepperStateX == NORTH) {
  32:MotorDriverX.c ****         stepperStateX = WEST;
  33:MotorDriverX.c ****     }
  34:MotorDriverX.c ****     else {
  35:MotorDriverX.c ****         --stepperStateX;
  36:MotorDriverX.c ****     }
  37:MotorDriverX.c ****     moveStepX();
  38:MotorDriverX.c ****     --stepperPositionX;
  39:MotorDriverX.c **** }
  40:MotorDriverX.c **** 
  41:MotorDriverX.c **** void moveStepX() {
  59              		.loc 1 41 0
  60              		.cfi_startproc
  61              		@ args = 0, pretend = 0, frame = 0
  62              		@ frame_needed = 0, uses_anonymous_args = 0
  63 0000 08B5     		push	{r3, lr}
  64              		.cfi_def_cfa_offset 8
  65              		.cfi_offset 3, -8
  66              		.cfi_offset 14, -4
  42:MotorDriverX.c ****     if(stepperStateX == NORTH) {
  67              		.loc 1 42 0
  68 0002 124B     		ldr	r3, .L11
  69 0004 1B78     		ldrb	r3, [r3]	@ zero_extendqisi2
  70 0006 33B9     		cbnz	r3, .L6
  43:MotorDriverX.c ****         Pin_X1_Write(0);
  71              		.loc 1 43 0
ARM GAS  C:\Users\jens1\AppData\Local\Temp\ccp7gTZc.s 			page 3


  72 0008 0020     		movs	r0, #0
  73 000a FFF7FEFF 		bl	Pin_X1_Write
  74              	.LVL1:
  44:MotorDriverX.c ****         Pin_X2_Write(0);
  75              		.loc 1 44 0
  76 000e 0020     		movs	r0, #0
  77 0010 FFF7FEFF 		bl	Pin_X2_Write
  78              	.LVL2:
  79 0014 08BD     		pop	{r3, pc}
  80              	.L6:
  45:MotorDriverX.c ****     }
  46:MotorDriverX.c ****     else if(stepperStateX == EAST) {
  81              		.loc 1 46 0
  82 0016 012B     		cmp	r3, #1
  83 0018 06D1     		bne	.L8
  47:MotorDriverX.c ****         Pin_X1_Write(1);
  84              		.loc 1 47 0
  85 001a 0120     		movs	r0, #1
  86 001c FFF7FEFF 		bl	Pin_X1_Write
  87              	.LVL3:
  48:MotorDriverX.c ****         Pin_X2_Write(0);
  88              		.loc 1 48 0
  89 0020 0020     		movs	r0, #0
  90 0022 FFF7FEFF 		bl	Pin_X2_Write
  91              	.LVL4:
  92 0026 08BD     		pop	{r3, pc}
  93              	.L8:
  49:MotorDriverX.c ****     }
  50:MotorDriverX.c ****     else if(stepperStateX == SOUTH) {
  94              		.loc 1 50 0
  95 0028 022B     		cmp	r3, #2
  96 002a 06D1     		bne	.L9
  51:MotorDriverX.c ****         Pin_X1_Write(1);
  97              		.loc 1 51 0
  98 002c 0120     		movs	r0, #1
  99 002e FFF7FEFF 		bl	Pin_X1_Write
 100              	.LVL5:
  52:MotorDriverX.c ****         Pin_X2_Write(1);
 101              		.loc 1 52 0
 102 0032 0120     		movs	r0, #1
 103 0034 FFF7FEFF 		bl	Pin_X2_Write
 104              	.LVL6:
 105 0038 08BD     		pop	{r3, pc}
 106              	.L9:
  53:MotorDriverX.c ****     }
  54:MotorDriverX.c ****     else if(stepperStateX == WEST) {
 107              		.loc 1 54 0
 108 003a 032B     		cmp	r3, #3
 109 003c 05D1     		bne	.L5
  55:MotorDriverX.c ****         Pin_X1_Write(0);
 110              		.loc 1 55 0
 111 003e 0020     		movs	r0, #0
 112 0040 FFF7FEFF 		bl	Pin_X1_Write
 113              	.LVL7:
  56:MotorDriverX.c ****         Pin_X2_Write(1);
 114              		.loc 1 56 0
 115 0044 0120     		movs	r0, #1
ARM GAS  C:\Users\jens1\AppData\Local\Temp\ccp7gTZc.s 			page 4


 116 0046 FFF7FEFF 		bl	Pin_X2_Write
 117              	.LVL8:
 118              	.L5:
 119 004a 08BD     		pop	{r3, pc}
 120              	.L12:
 121              		.align	2
 122              	.L11:
 123 004c 00000000 		.word	stepperStateX
 124              		.cfi_endproc
 125              	.LFE67:
 126              		.size	moveStepX, .-moveStepX
 127              		.section	.text.rotateClockwiseX,"ax",%progbits
 128              		.align	2
 129              		.global	rotateClockwiseX
 130              		.thumb
 131              		.thumb_func
 132              		.type	rotateClockwiseX, %function
 133              	rotateClockwiseX:
 134              	.LFB65:
  19:MotorDriverX.c ****     if(stepperStateX == WEST) { 
 135              		.loc 1 19 0
 136              		.cfi_startproc
 137              		@ args = 0, pretend = 0, frame = 0
 138              		@ frame_needed = 0, uses_anonymous_args = 0
 139 0000 08B5     		push	{r3, lr}
 140              		.cfi_def_cfa_offset 8
 141              		.cfi_offset 3, -8
 142              		.cfi_offset 14, -4
  20:MotorDriverX.c ****         stepperStateX = NORTH;
 143              		.loc 1 20 0
 144 0002 094B     		ldr	r3, .L17
 145 0004 1B78     		ldrb	r3, [r3]	@ zero_extendqisi2
 146 0006 032B     		cmp	r3, #3
 147 0008 03D1     		bne	.L14
  21:MotorDriverX.c ****     }
 148              		.loc 1 21 0
 149 000a 0022     		movs	r2, #0
 150 000c 064B     		ldr	r3, .L17
 151 000e 1A70     		strb	r2, [r3]
 152 0010 02E0     		b	.L15
 153              	.L14:
  24:MotorDriverX.c ****     }
 154              		.loc 1 24 0
 155 0012 0133     		adds	r3, r3, #1
 156 0014 044A     		ldr	r2, .L17
 157 0016 1370     		strb	r3, [r2]
 158              	.L15:
  26:MotorDriverX.c ****     ++stepperPositionX;
 159              		.loc 1 26 0
 160 0018 FFF7FEFF 		bl	moveStepX
 161              	.LVL9:
  27:MotorDriverX.c **** }
 162              		.loc 1 27 0
 163 001c 034A     		ldr	r2, .L17+4
 164 001e 1368     		ldr	r3, [r2]
 165 0020 0133     		adds	r3, r3, #1
 166 0022 1360     		str	r3, [r2]
ARM GAS  C:\Users\jens1\AppData\Local\Temp\ccp7gTZc.s 			page 5


 167 0024 08BD     		pop	{r3, pc}
 168              	.L18:
 169 0026 00BF     		.align	2
 170              	.L17:
 171 0028 00000000 		.word	stepperStateX
 172 002c 00000000 		.word	stepperPositionX
 173              		.cfi_endproc
 174              	.LFE65:
 175              		.size	rotateClockwiseX, .-rotateClockwiseX
 176              		.section	.text.rotateCounterClockwiseX,"ax",%progbits
 177              		.align	2
 178              		.global	rotateCounterClockwiseX
 179              		.thumb
 180              		.thumb_func
 181              		.type	rotateCounterClockwiseX, %function
 182              	rotateCounterClockwiseX:
 183              	.LFB66:
  30:MotorDriverX.c ****     if(stepperStateX == NORTH) {
 184              		.loc 1 30 0
 185              		.cfi_startproc
 186              		@ args = 0, pretend = 0, frame = 0
 187              		@ frame_needed = 0, uses_anonymous_args = 0
 188 0000 08B5     		push	{r3, lr}
 189              		.cfi_def_cfa_offset 8
 190              		.cfi_offset 3, -8
 191              		.cfi_offset 14, -4
  31:MotorDriverX.c ****         stepperStateX = WEST;
 192              		.loc 1 31 0
 193 0002 084B     		ldr	r3, .L23
 194 0004 1B78     		ldrb	r3, [r3]	@ zero_extendqisi2
 195 0006 1BB9     		cbnz	r3, .L20
  32:MotorDriverX.c ****     }
 196              		.loc 1 32 0
 197 0008 0322     		movs	r2, #3
 198 000a 064B     		ldr	r3, .L23
 199 000c 1A70     		strb	r2, [r3]
 200 000e 02E0     		b	.L21
 201              	.L20:
  35:MotorDriverX.c ****     }
 202              		.loc 1 35 0
 203 0010 013B     		subs	r3, r3, #1
 204 0012 044A     		ldr	r2, .L23
 205 0014 1370     		strb	r3, [r2]
 206              	.L21:
  37:MotorDriverX.c ****     --stepperPositionX;
 207              		.loc 1 37 0
 208 0016 FFF7FEFF 		bl	moveStepX
 209              	.LVL10:
  38:MotorDriverX.c **** }
 210              		.loc 1 38 0
 211 001a 034A     		ldr	r2, .L23+4
 212 001c 1368     		ldr	r3, [r2]
 213 001e 013B     		subs	r3, r3, #1
 214 0020 1360     		str	r3, [r2]
 215 0022 08BD     		pop	{r3, pc}
 216              	.L24:
 217              		.align	2
ARM GAS  C:\Users\jens1\AppData\Local\Temp\ccp7gTZc.s 			page 6


 218              	.L23:
 219 0024 00000000 		.word	stepperStateX
 220 0028 00000000 		.word	stepperPositionX
 221              		.cfi_endproc
 222              	.LFE66:
 223              		.size	rotateCounterClockwiseX, .-rotateCounterClockwiseX
 224              		.section	.text.resetPositionX,"ax",%progbits
 225              		.align	2
 226              		.global	resetPositionX
 227              		.thumb
 228              		.thumb_func
 229              		.type	resetPositionX, %function
 230              	resetPositionX:
 231              	.LFB69:
  57:MotorDriverX.c ****     }
  58:MotorDriverX.c **** }
  59:MotorDriverX.c **** 
  60:MotorDriverX.c **** void moveDegreesX(int deg) { //Positivt antal grader skrives hvis armen skal køre med uret og nega
  61:MotorDriverX.c ****     float round1 = deg / 1.8; //Grader divideret med stepvinkel = antal steps der skal køres
  62:MotorDriverX.c ****     int steps = (int)round(round1); //Afrund antallet af steps
  63:MotorDriverX.c ****     
  64:MotorDriverX.c ****     if(steps > 0) {
  65:MotorDriverX.c ****         if (stepperPositionX+steps > MAX_STEPS_X) { //limit to max
  66:MotorDriverX.c ****             steps = MAX_STEPS_X-stepperPositionX;   
  67:MotorDriverX.c ****         }
  68:MotorDriverX.c ****         for(int i = 0; i < steps; i++) {
  69:MotorDriverX.c ****             Timer_StepperX_Start();
  70:MotorDriverX.c ****             while(timerDoneFlagX == 0); //wait here
  71:MotorDriverX.c ****             rotateClockwiseX();
  72:MotorDriverX.c ****             timerDoneFlagX = 0;
  73:MotorDriverX.c ****         }
  74:MotorDriverX.c ****     }
  75:MotorDriverX.c ****     else if(steps < 0) {
  76:MotorDriverX.c ****         if(steps <= (stepperPositionX * -1)) {    //Hvis antallet af steps der skal køres tilbage 
  77:MotorDriverX.c ****             resetPositionX(); //move to zero position
  78:MotorDriverX.c ****         }
  79:MotorDriverX.c ****         else if(steps > (stepperPositionX * -1)) {
  80:MotorDriverX.c ****             for(int i = 0; i > steps; i--) {
  81:MotorDriverX.c ****                 Timer_StepperX_Start();
  82:MotorDriverX.c ****                 while(timerDoneFlagX == 0);
  83:MotorDriverX.c ****                 rotateCounterClockwiseX();
  84:MotorDriverX.c ****                 timerDoneFlagX = 0;
  85:MotorDriverX.c ****             }
  86:MotorDriverX.c ****         }
  87:MotorDriverX.c ****     }
  88:MotorDriverX.c **** }
  89:MotorDriverX.c **** 
  90:MotorDriverX.c **** void resetPositionX() {
 232              		.loc 1 90 0
 233              		.cfi_startproc
 234              		@ args = 0, pretend = 0, frame = 0
 235              		@ frame_needed = 0, uses_anonymous_args = 0
 236 0000 08B5     		push	{r3, lr}
 237              		.cfi_def_cfa_offset 8
 238              		.cfi_offset 3, -8
 239              		.cfi_offset 14, -4
  91:MotorDriverX.c ****     while(Pin_X3_Read() == 1) {
ARM GAS  C:\Users\jens1\AppData\Local\Temp\ccp7gTZc.s 			page 7


 240              		.loc 1 91 0
 241 0002 0AE0     		b	.L26
 242              	.L28:
  92:MotorDriverX.c ****         Timer_StepperX_Start();
 243              		.loc 1 92 0
 244 0004 FFF7FEFF 		bl	Timer_StepperX_Start
 245              	.LVL11:
 246              	.L27:
  93:MotorDriverX.c ****         while(timerDoneFlagX == 0);
 247              		.loc 1 93 0 discriminator 1
 248 0008 084B     		ldr	r3, .L30
 249 000a 1B78     		ldrb	r3, [r3]	@ zero_extendqisi2
 250 000c 002B     		cmp	r3, #0
 251 000e FBD0     		beq	.L27
  94:MotorDriverX.c ****         rotateCounterClockwiseX();
 252              		.loc 1 94 0
 253 0010 FFF7FEFF 		bl	rotateCounterClockwiseX
 254              	.LVL12:
  95:MotorDriverX.c ****         timerDoneFlagX = 0;
 255              		.loc 1 95 0
 256 0014 0022     		movs	r2, #0
 257 0016 054B     		ldr	r3, .L30
 258 0018 1A70     		strb	r2, [r3]
 259              	.L26:
  91:MotorDriverX.c ****         Timer_StepperX_Start();
 260              		.loc 1 91 0
 261 001a FFF7FEFF 		bl	Pin_X3_Read
 262              	.LVL13:
 263 001e 0128     		cmp	r0, #1
 264 0020 F0D0     		beq	.L28
  96:MotorDriverX.c ****     }
  97:MotorDriverX.c ****     stepperPositionX = 0;
 265              		.loc 1 97 0
 266 0022 0022     		movs	r2, #0
 267 0024 024B     		ldr	r3, .L30+4
 268 0026 1A60     		str	r2, [r3]
 269 0028 08BD     		pop	{r3, pc}
 270              	.L31:
 271 002a 00BF     		.align	2
 272              	.L30:
 273 002c 00000000 		.word	timerDoneFlagX
 274 0030 00000000 		.word	stepperPositionX
 275              		.cfi_endproc
 276              	.LFE69:
 277              		.size	resetPositionX, .-resetPositionX
 278              		.global	__aeabi_i2d
 279              		.global	__aeabi_ddiv
 280              		.global	__aeabi_d2f
 281              		.global	__aeabi_f2d
 282              		.global	__aeabi_d2iz
 283              		.section	.text.moveDegreesX,"ax",%progbits
 284              		.align	2
 285              		.global	moveDegreesX
 286              		.thumb
 287              		.thumb_func
 288              		.type	moveDegreesX, %function
 289              	moveDegreesX:
ARM GAS  C:\Users\jens1\AppData\Local\Temp\ccp7gTZc.s 			page 8


 290              	.LFB68:
  60:MotorDriverX.c ****     float round1 = deg / 1.8; //Grader divideret med stepvinkel = antal steps der skal køres
 291              		.loc 1 60 0
 292              		.cfi_startproc
 293              		@ args = 0, pretend = 0, frame = 0
 294              		@ frame_needed = 0, uses_anonymous_args = 0
 295              	.LVL14:
 296 0000 38B5     		push	{r3, r4, r5, lr}
 297              		.cfi_def_cfa_offset 16
 298              		.cfi_offset 3, -16
 299              		.cfi_offset 4, -12
 300              		.cfi_offset 5, -8
 301              		.cfi_offset 14, -4
  61:MotorDriverX.c ****     int steps = (int)round(round1); //Afrund antallet af steps
 302              		.loc 1 61 0
 303 0002 FFF7FEFF 		bl	__aeabi_i2d
 304              	.LVL15:
 305 0006 22A3     		adr	r3, .L45
 306 0008 D3E90023 		ldrd	r2, [r3]
 307 000c FFF7FEFF 		bl	__aeabi_ddiv
 308              	.LVL16:
 309 0010 FFF7FEFF 		bl	__aeabi_d2f
 310              	.LVL17:
  62:MotorDriverX.c ****     
 311              		.loc 1 62 0
 312 0014 FFF7FEFF 		bl	__aeabi_f2d
 313              	.LVL18:
 314 0018 FFF7FEFF 		bl	round
 315              	.LVL19:
 316 001c FFF7FEFF 		bl	__aeabi_d2iz
 317              	.LVL20:
  64:MotorDriverX.c ****         if (stepperPositionX+steps > MAX_STEPS_X) { //limit to max
 318              		.loc 1 64 0
 319 0020 051E     		subs	r5, r0, #0
 320 0022 17DD     		ble	.L33
  65:MotorDriverX.c ****             steps = MAX_STEPS_X-stepperPositionX;   
 321              		.loc 1 65 0
 322 0024 1C4B     		ldr	r3, .L45+8
 323 0026 1B68     		ldr	r3, [r3]
 324 0028 EA18     		adds	r2, r5, r3
 325 002a 642A     		cmp	r2, #100
 326 002c 01DD     		ble	.L34
  66:MotorDriverX.c ****         }
 327              		.loc 1 66 0
 328 002e C3F16405 		rsb	r5, r3, #100
 329              	.LVL21:
 330              	.L34:
 331              	.LBB2:
  68:MotorDriverX.c ****             Timer_StepperX_Start();
 332              		.loc 1 68 0
 333 0032 0024     		movs	r4, #0
 334 0034 0BE0     		b	.L35
 335              	.LVL22:
 336              	.L37:
  69:MotorDriverX.c ****             while(timerDoneFlagX == 0); //wait here
 337              		.loc 1 69 0
 338 0036 FFF7FEFF 		bl	Timer_StepperX_Start
ARM GAS  C:\Users\jens1\AppData\Local\Temp\ccp7gTZc.s 			page 9


 339              	.LVL23:
 340              	.L36:
  70:MotorDriverX.c ****             rotateClockwiseX();
 341              		.loc 1 70 0 discriminator 1
 342 003a 184B     		ldr	r3, .L45+12
 343 003c 1B78     		ldrb	r3, [r3]	@ zero_extendqisi2
 344 003e 002B     		cmp	r3, #0
 345 0040 FBD0     		beq	.L36
  71:MotorDriverX.c ****             timerDoneFlagX = 0;
 346              		.loc 1 71 0 discriminator 2
 347 0042 FFF7FEFF 		bl	rotateClockwiseX
 348              	.LVL24:
  72:MotorDriverX.c ****         }
 349              		.loc 1 72 0 discriminator 2
 350 0046 0022     		movs	r2, #0
 351 0048 144B     		ldr	r3, .L45+12
 352 004a 1A70     		strb	r2, [r3]
  68:MotorDriverX.c ****             Timer_StepperX_Start();
 353              		.loc 1 68 0 discriminator 2
 354 004c 0134     		adds	r4, r4, #1
 355              	.LVL25:
 356              	.L35:
  68:MotorDriverX.c ****             Timer_StepperX_Start();
 357              		.loc 1 68 0 is_stmt 0 discriminator 1
 358 004e A542     		cmp	r5, r4
 359 0050 F1DC     		bgt	.L37
 360 0052 38BD     		pop	{r3, r4, r5, pc}
 361              	.LVL26:
 362              	.L33:
 363              	.LBE2:
  75:MotorDriverX.c ****         if(steps <= (stepperPositionX * -1)) {    //Hvis antallet af steps der skal køres tilbage 
 364              		.loc 1 75 0 is_stmt 1
 365 0054 002D     		cmp	r5, #0
 366 0056 1ADA     		bge	.L32
  76:MotorDriverX.c ****             resetPositionX(); //move to zero position
 367              		.loc 1 76 0
 368 0058 0F4B     		ldr	r3, .L45+8
 369 005a 1B68     		ldr	r3, [r3]
 370 005c 5B42     		negs	r3, r3
 371 005e 9D42     		cmp	r5, r3
 372 0060 02DC     		bgt	.L39
  77:MotorDriverX.c ****         }
 373              		.loc 1 77 0
 374 0062 FFF7FEFF 		bl	resetPositionX
 375              	.LVL27:
 376 0066 38BD     		pop	{r3, r4, r5, pc}
 377              	.LVL28:
 378              	.L39:
  79:MotorDriverX.c ****             for(int i = 0; i > steps; i--) {
 379              		.loc 1 79 0
 380 0068 9D42     		cmp	r5, r3
 381 006a 0DDC     		bgt	.L43
 382              	.LBB3:
 383 006c 38BD     		pop	{r3, r4, r5, pc}
 384              	.LVL29:
 385              	.L42:
  81:MotorDriverX.c ****                 while(timerDoneFlagX == 0);
ARM GAS  C:\Users\jens1\AppData\Local\Temp\ccp7gTZc.s 			page 10


 386              		.loc 1 81 0
 387 006e FFF7FEFF 		bl	Timer_StepperX_Start
 388              	.LVL30:
 389              	.L41:
  82:MotorDriverX.c ****                 rotateCounterClockwiseX();
 390              		.loc 1 82 0 discriminator 1
 391 0072 0A4B     		ldr	r3, .L45+12
 392 0074 1B78     		ldrb	r3, [r3]	@ zero_extendqisi2
 393 0076 002B     		cmp	r3, #0
 394 0078 FBD0     		beq	.L41
  83:MotorDriverX.c ****                 timerDoneFlagX = 0;
 395              		.loc 1 83 0 discriminator 2
 396 007a FFF7FEFF 		bl	rotateCounterClockwiseX
 397              	.LVL31:
  84:MotorDriverX.c ****             }
 398              		.loc 1 84 0 discriminator 2
 399 007e 0022     		movs	r2, #0
 400 0080 064B     		ldr	r3, .L45+12
 401 0082 1A70     		strb	r2, [r3]
  80:MotorDriverX.c ****                 Timer_StepperX_Start();
 402              		.loc 1 80 0 discriminator 2
 403 0084 013C     		subs	r4, r4, #1
 404              	.LVL32:
 405 0086 00E0     		b	.L40
 406              	.LVL33:
 407              	.L43:
 408              	.LBE3:
 409 0088 0024     		movs	r4, #0
 410              	.LVL34:
 411              	.L40:
 412              	.LBB4:
  80:MotorDriverX.c ****                 Timer_StepperX_Start();
 413              		.loc 1 80 0 is_stmt 0 discriminator 1
 414 008a AC42     		cmp	r4, r5
 415 008c EFDC     		bgt	.L42
 416              	.LVL35:
 417              	.L32:
 418 008e 38BD     		pop	{r3, r4, r5, pc}
 419              	.LVL36:
 420              	.L46:
 421              		.align	3
 422              	.L45:
 423 0090 CDCCCCCC 		.word	-858993459
 424 0094 CCCCFC3F 		.word	1073532108
 425 0098 00000000 		.word	stepperPositionX
 426 009c 00000000 		.word	timerDoneFlagX
 427              	.LBE4:
 428              		.cfi_endproc
 429              	.LFE68:
 430              		.size	moveDegreesX, .-moveDegreesX
 431              		.section	.text.initStepperX,"ax",%progbits
 432              		.align	2
 433              		.global	initStepperX
 434              		.thumb
 435              		.thumb_func
 436              		.type	initStepperX, %function
 437              	initStepperX:
ARM GAS  C:\Users\jens1\AppData\Local\Temp\ccp7gTZc.s 			page 11


 438              	.LFB64:
   8:MotorDriverX.c ****     Pin_X1_Write(0);
 439              		.loc 1 8 0 is_stmt 1
 440              		.cfi_startproc
 441              		@ args = 0, pretend = 0, frame = 0
 442              		@ frame_needed = 0, uses_anonymous_args = 0
 443 0000 08B5     		push	{r3, lr}
 444              		.cfi_def_cfa_offset 8
 445              		.cfi_offset 3, -8
 446              		.cfi_offset 14, -4
   9:MotorDriverX.c ****     Pin_X2_Write(0);
 447              		.loc 1 9 0
 448 0002 0020     		movs	r0, #0
 449 0004 FFF7FEFF 		bl	Pin_X1_Write
 450              	.LVL37:
  10:MotorDriverX.c ****     
 451              		.loc 1 10 0
 452 0008 0020     		movs	r0, #0
 453 000a FFF7FEFF 		bl	Pin_X2_Write
 454              	.LVL38:
  12:MotorDriverX.c ****     timerDoneFlagX = 0;
 455              		.loc 1 12 0
 456 000e 0648     		ldr	r0, .L49
 457 0010 FFF7FEFF 		bl	ISR_stepperX_StartEx
 458              	.LVL39:
  13:MotorDriverX.c ****     
 459              		.loc 1 13 0
 460 0014 0022     		movs	r2, #0
 461 0016 054B     		ldr	r3, .L49+4
 462 0018 1A70     		strb	r2, [r3]
  15:MotorDriverX.c ****     moveDegreesX(90+OFFSET_X);
 463              		.loc 1 15 0
 464 001a FFF7FEFF 		bl	resetPositionX
 465              	.LVL40:
  16:MotorDriverX.c **** }
 466              		.loc 1 16 0
 467 001e 7620     		movs	r0, #118
 468 0020 FFF7FEFF 		bl	moveDegreesX
 469              	.LVL41:
 470 0024 08BD     		pop	{r3, pc}
 471              	.L50:
 472 0026 00BF     		.align	2
 473              	.L49:
 474 0028 00000000 		.word	stepperX_isr_handler
 475 002c 00000000 		.word	timerDoneFlagX
 476              		.cfi_endproc
 477              	.LFE64:
 478              		.size	initStepperX, .-initStepperX
 479              		.comm	stepperStateX,1,1
 480              		.comm	timerDoneFlagX,1,1
 481              		.comm	stepperPositionX,4,4
 482              		.text
 483              	.Letext0:
 484              		.file 2 "c:\\program files (x86)\\cypress\\psoc creator\\4.2\\psoc creator\\import\\gnu\\arm\\5.4.
 485              		.file 3 "c:\\program files (x86)\\cypress\\psoc creator\\4.2\\psoc creator\\import\\gnu\\arm\\5.4.
 486              		.file 4 "Generated_Source\\PSoC5/cytypes.h"
 487              		.file 5 "Generated_Source\\PSoC5/core_cm3.h"
ARM GAS  C:\Users\jens1\AppData\Local\Temp\ccp7gTZc.s 			page 12


 488              		.file 6 "MotorDriverX.h"
 489              		.file 7 "Generated_Source\\PSoC5/Timer_StepperX.h"
 490              		.file 8 "Generated_Source\\PSoC5/Pin_X1.h"
 491              		.file 9 "Generated_Source\\PSoC5/Pin_X2.h"
 492              		.file 10 "Generated_Source\\PSoC5/Pin_X3.h"
 493              		.file 11 "c:\\program files (x86)\\cypress\\psoc creator\\4.2\\psoc creator\\import\\gnu\\arm\\5.4
 494              		.file 12 "Generated_Source\\PSoC5/ISR_stepperX.h"