ARM GAS  C:\Users\Lasse\AppData\Local\Temp\ccUeTQ3D.s 			page 1


   1              		.syntax unified
   2              		.cpu cortex-m3
   3              		.fpu softvfp
   4              		.eabi_attribute 20, 1
   5              		.eabi_attribute 21, 1
   6              		.eabi_attribute 23, 3
   7              		.eabi_attribute 24, 1
   8              		.eabi_attribute 25, 1
   9              		.eabi_attribute 26, 1
  10              		.eabi_attribute 30, 1
  11              		.eabi_attribute 34, 1
  12              		.eabi_attribute 18, 4
  13              		.thumb
  14              		.syntax unified
  15              		.file	"MotorDriverY.c"
  16              		.text
  17              	.Ltext0:
  18              		.cfi_sections	.debug_frame
  19              		.section	.text.stepperY_isr_handler,"ax",%progbits
  20              		.align	2
  21              		.global	stepperY_isr_handler
  22              		.thumb
  23              		.thumb_func
  24              		.type	stepperY_isr_handler, %function
  25              	stepperY_isr_handler:
  26              	.LFB63:
  27              		.file 1 "MotorDriverY.c"
   1:MotorDriverY.c **** /* ========================================
   2:MotorDriverY.c ****  *
   3:MotorDriverY.c ****  * Copyright YOUR COMPANY, THE YEAR
   4:MotorDriverY.c ****  * All Rights Reserved
   5:MotorDriverY.c ****  * UNPUBLISHED, LICENSED SOFTWARE.
   6:MotorDriverY.c ****  *
   7:MotorDriverY.c ****  * CONFIDENTIAL AND PROPRIETARY INFORMATION
   8:MotorDriverY.c ****  * WHICH IS THE PROPERTY OF your company.
   9:MotorDriverY.c ****  *
  10:MotorDriverY.c ****  * ========================================
  11:MotorDriverY.c **** */
  12:MotorDriverY.c **** #include "MotorDriverY.h"
  13:MotorDriverY.c **** 
  14:MotorDriverY.c **** CY_ISR(stepperY_isr_handler) {
  28              		.loc 1 14 0
  29              		.cfi_startproc
  30              		@ args = 0, pretend = 0, frame = 0
  31              		@ frame_needed = 0, uses_anonymous_args = 0
  32 0000 08B5     		push	{r3, lr}
  33              		.cfi_def_cfa_offset 8
  34              		.cfi_offset 3, -8
  35              		.cfi_offset 14, -4
  15:MotorDriverY.c ****     Timer_StepperY_Stop();
  36              		.loc 1 15 0
  37 0002 FFF7FEFF 		bl	Timer_StepperY_Stop
  38              	.LVL0:
  16:MotorDriverY.c ****     timerDoneFlagY = 1;
  39              		.loc 1 16 0
  40 0006 0122     		movs	r2, #1
  41 0008 014B     		ldr	r3, .L3
ARM GAS  C:\Users\Lasse\AppData\Local\Temp\ccUeTQ3D.s 			page 2


  42 000a 1A70     		strb	r2, [r3]
  43 000c 08BD     		pop	{r3, pc}
  44              	.L4:
  45 000e 00BF     		.align	2
  46              	.L3:
  47 0010 00000000 		.word	timerDoneFlagY
  48              		.cfi_endproc
  49              	.LFE63:
  50              		.size	stepperY_isr_handler, .-stepperY_isr_handler
  51              		.section	.text.moveStepY,"ax",%progbits
  52              		.align	2
  53              		.global	moveStepY
  54              		.thumb
  55              		.thumb_func
  56              		.type	moveStepY, %function
  57              	moveStepY:
  58              	.LFB67:
  17:MotorDriverY.c **** }
  18:MotorDriverY.c **** 
  19:MotorDriverY.c **** void initStepperY() {
  20:MotorDriverY.c ****     Pin_Y1_Write(0);
  21:MotorDriverY.c ****     Pin_Y2_Write(0);
  22:MotorDriverY.c ****     
  23:MotorDriverY.c ****     ISR_stepperY_StartEx(stepperY_isr_handler);
  24:MotorDriverY.c ****     timerDoneFlagY = 0;
  25:MotorDriverY.c ****     
  26:MotorDriverY.c ****     resetPositionY();
  27:MotorDriverY.c **** }
  28:MotorDriverY.c **** 
  29:MotorDriverY.c **** void rotateClockwiseY() {
  30:MotorDriverY.c ****     if(stepperStateY == WEST) { 
  31:MotorDriverY.c ****         stepperStateY = NORTH;
  32:MotorDriverY.c ****     }
  33:MotorDriverY.c ****     else {
  34:MotorDriverY.c ****         ++stepperStateY;
  35:MotorDriverY.c ****     }
  36:MotorDriverY.c ****     moveStepY();
  37:MotorDriverY.c ****     ++stepperPositionY;
  38:MotorDriverY.c ****     
  39:MotorDriverY.c ****     UART_1_PutString("Rotated clockwise once\n\r");
  40:MotorDriverY.c **** }
  41:MotorDriverY.c **** 
  42:MotorDriverY.c **** void rotateCounterClockwiseY() {
  43:MotorDriverY.c ****     if(stepperStateY == NORTH) {
  44:MotorDriverY.c ****         stepperStateY = WEST;
  45:MotorDriverY.c ****     }
  46:MotorDriverY.c ****     else {
  47:MotorDriverY.c ****         --stepperStateY;
  48:MotorDriverY.c ****     }
  49:MotorDriverY.c ****     moveStepY();
  50:MotorDriverY.c ****     --stepperPositionY;
  51:MotorDriverY.c **** }
  52:MotorDriverY.c **** 
  53:MotorDriverY.c **** void moveStepY() {
  59              		.loc 1 53 0
  60              		.cfi_startproc
  61              		@ args = 0, pretend = 0, frame = 0
ARM GAS  C:\Users\Lasse\AppData\Local\Temp\ccUeTQ3D.s 			page 3


  62              		@ frame_needed = 0, uses_anonymous_args = 0
  63 0000 08B5     		push	{r3, lr}
  64              		.cfi_def_cfa_offset 8
  65              		.cfi_offset 3, -8
  66              		.cfi_offset 14, -4
  54:MotorDriverY.c ****     if(stepperStateY == NORTH) {
  67              		.loc 1 54 0
  68 0002 124B     		ldr	r3, .L11
  69 0004 1B78     		ldrb	r3, [r3]	@ zero_extendqisi2
  70 0006 33B9     		cbnz	r3, .L6
  55:MotorDriverY.c ****         Pin_Y1_Write(0);
  71              		.loc 1 55 0
  72 0008 0020     		movs	r0, #0
  73 000a FFF7FEFF 		bl	Pin_Y1_Write
  74              	.LVL1:
  56:MotorDriverY.c ****         Pin_Y2_Write(0);
  75              		.loc 1 56 0
  76 000e 0020     		movs	r0, #0
  77 0010 FFF7FEFF 		bl	Pin_Y2_Write
  78              	.LVL2:
  79 0014 08BD     		pop	{r3, pc}
  80              	.L6:
  57:MotorDriverY.c ****     }
  58:MotorDriverY.c ****     else if(stepperStateY == EAST) {
  81              		.loc 1 58 0
  82 0016 012B     		cmp	r3, #1
  83 0018 06D1     		bne	.L8
  59:MotorDriverY.c ****         Pin_Y1_Write(1);
  84              		.loc 1 59 0
  85 001a 0120     		movs	r0, #1
  86 001c FFF7FEFF 		bl	Pin_Y1_Write
  87              	.LVL3:
  60:MotorDriverY.c ****         Pin_Y2_Write(0);
  88              		.loc 1 60 0
  89 0020 0020     		movs	r0, #0
  90 0022 FFF7FEFF 		bl	Pin_Y2_Write
  91              	.LVL4:
  92 0026 08BD     		pop	{r3, pc}
  93              	.L8:
  61:MotorDriverY.c ****     }
  62:MotorDriverY.c ****     else if(stepperStateY == SOUTH) {
  94              		.loc 1 62 0
  95 0028 022B     		cmp	r3, #2
  96 002a 06D1     		bne	.L9
  63:MotorDriverY.c ****         Pin_Y1_Write(1);
  97              		.loc 1 63 0
  98 002c 0120     		movs	r0, #1
  99 002e FFF7FEFF 		bl	Pin_Y1_Write
 100              	.LVL5:
  64:MotorDriverY.c ****         Pin_Y2_Write(1);
 101              		.loc 1 64 0
 102 0032 0120     		movs	r0, #1
 103 0034 FFF7FEFF 		bl	Pin_Y2_Write
 104              	.LVL6:
 105 0038 08BD     		pop	{r3, pc}
 106              	.L9:
  65:MotorDriverY.c ****     }
ARM GAS  C:\Users\Lasse\AppData\Local\Temp\ccUeTQ3D.s 			page 4


  66:MotorDriverY.c ****     else if(stepperStateY == WEST) {
 107              		.loc 1 66 0
 108 003a 032B     		cmp	r3, #3
 109 003c 05D1     		bne	.L5
  67:MotorDriverY.c ****         Pin_Y1_Write(0);
 110              		.loc 1 67 0
 111 003e 0020     		movs	r0, #0
 112 0040 FFF7FEFF 		bl	Pin_Y1_Write
 113              	.LVL7:
  68:MotorDriverY.c ****         Pin_Y2_Write(1);
 114              		.loc 1 68 0
 115 0044 0120     		movs	r0, #1
 116 0046 FFF7FEFF 		bl	Pin_Y2_Write
 117              	.LVL8:
 118              	.L5:
 119 004a 08BD     		pop	{r3, pc}
 120              	.L12:
 121              		.align	2
 122              	.L11:
 123 004c 00000000 		.word	stepperStateY
 124              		.cfi_endproc
 125              	.LFE67:
 126              		.size	moveStepY, .-moveStepY
 127              		.section	.text.rotateClockwiseY,"ax",%progbits
 128              		.align	2
 129              		.global	rotateClockwiseY
 130              		.thumb
 131              		.thumb_func
 132              		.type	rotateClockwiseY, %function
 133              	rotateClockwiseY:
 134              	.LFB65:
  29:MotorDriverY.c ****     if(stepperStateY == WEST) { 
 135              		.loc 1 29 0
 136              		.cfi_startproc
 137              		@ args = 0, pretend = 0, frame = 0
 138              		@ frame_needed = 0, uses_anonymous_args = 0
 139 0000 08B5     		push	{r3, lr}
 140              		.cfi_def_cfa_offset 8
 141              		.cfi_offset 3, -8
 142              		.cfi_offset 14, -4
  30:MotorDriverY.c ****         stepperStateY = NORTH;
 143              		.loc 1 30 0
 144 0002 0A4B     		ldr	r3, .L17
 145 0004 1B78     		ldrb	r3, [r3]	@ zero_extendqisi2
 146 0006 032B     		cmp	r3, #3
 147 0008 03D1     		bne	.L14
  31:MotorDriverY.c ****     }
 148              		.loc 1 31 0
 149 000a 0022     		movs	r2, #0
 150 000c 074B     		ldr	r3, .L17
 151 000e 1A70     		strb	r2, [r3]
 152 0010 02E0     		b	.L15
 153              	.L14:
  34:MotorDriverY.c ****     }
 154              		.loc 1 34 0
 155 0012 0133     		adds	r3, r3, #1
 156 0014 054A     		ldr	r2, .L17
ARM GAS  C:\Users\Lasse\AppData\Local\Temp\ccUeTQ3D.s 			page 5


 157 0016 1370     		strb	r3, [r2]
 158              	.L15:
  36:MotorDriverY.c ****     ++stepperPositionY;
 159              		.loc 1 36 0
 160 0018 FFF7FEFF 		bl	moveStepY
 161              	.LVL9:
  37:MotorDriverY.c ****     
 162              		.loc 1 37 0
 163 001c 044A     		ldr	r2, .L17+4
 164 001e 1368     		ldr	r3, [r2]
 165 0020 0133     		adds	r3, r3, #1
 166 0022 1360     		str	r3, [r2]
  39:MotorDriverY.c **** }
 167              		.loc 1 39 0
 168 0024 0348     		ldr	r0, .L17+8
 169 0026 FFF7FEFF 		bl	UART_1_PutString
 170              	.LVL10:
 171 002a 08BD     		pop	{r3, pc}
 172              	.L18:
 173              		.align	2
 174              	.L17:
 175 002c 00000000 		.word	stepperStateY
 176 0030 00000000 		.word	stepperPositionY
 177 0034 00000000 		.word	.LC0
 178              		.cfi_endproc
 179              	.LFE65:
 180              		.size	rotateClockwiseY, .-rotateClockwiseY
 181              		.section	.text.rotateCounterClockwiseY,"ax",%progbits
 182              		.align	2
 183              		.global	rotateCounterClockwiseY
 184              		.thumb
 185              		.thumb_func
 186              		.type	rotateCounterClockwiseY, %function
 187              	rotateCounterClockwiseY:
 188              	.LFB66:
  42:MotorDriverY.c ****     if(stepperStateY == NORTH) {
 189              		.loc 1 42 0
 190              		.cfi_startproc
 191              		@ args = 0, pretend = 0, frame = 0
 192              		@ frame_needed = 0, uses_anonymous_args = 0
 193 0000 08B5     		push	{r3, lr}
 194              		.cfi_def_cfa_offset 8
 195              		.cfi_offset 3, -8
 196              		.cfi_offset 14, -4
  43:MotorDriverY.c ****         stepperStateY = WEST;
 197              		.loc 1 43 0
 198 0002 084B     		ldr	r3, .L23
 199 0004 1B78     		ldrb	r3, [r3]	@ zero_extendqisi2
 200 0006 1BB9     		cbnz	r3, .L20
  44:MotorDriverY.c ****     }
 201              		.loc 1 44 0
 202 0008 0322     		movs	r2, #3
 203 000a 064B     		ldr	r3, .L23
 204 000c 1A70     		strb	r2, [r3]
 205 000e 02E0     		b	.L21
 206              	.L20:
  47:MotorDriverY.c ****     }
ARM GAS  C:\Users\Lasse\AppData\Local\Temp\ccUeTQ3D.s 			page 6


 207              		.loc 1 47 0
 208 0010 013B     		subs	r3, r3, #1
 209 0012 044A     		ldr	r2, .L23
 210 0014 1370     		strb	r3, [r2]
 211              	.L21:
  49:MotorDriverY.c ****     --stepperPositionY;
 212              		.loc 1 49 0
 213 0016 FFF7FEFF 		bl	moveStepY
 214              	.LVL11:
  50:MotorDriverY.c **** }
 215              		.loc 1 50 0
 216 001a 034A     		ldr	r2, .L23+4
 217 001c 1368     		ldr	r3, [r2]
 218 001e 013B     		subs	r3, r3, #1
 219 0020 1360     		str	r3, [r2]
 220 0022 08BD     		pop	{r3, pc}
 221              	.L24:
 222              		.align	2
 223              	.L23:
 224 0024 00000000 		.word	stepperStateY
 225 0028 00000000 		.word	stepperPositionY
 226              		.cfi_endproc
 227              	.LFE66:
 228              		.size	rotateCounterClockwiseY, .-rotateCounterClockwiseY
 229              		.global	__aeabi_i2d
 230              		.global	__aeabi_ddiv
 231              		.global	__aeabi_d2f
 232              		.global	__aeabi_f2d
 233              		.global	__aeabi_d2iz
 234              		.section	.text.moveDegreesY,"ax",%progbits
 235              		.align	2
 236              		.global	moveDegreesY
 237              		.thumb
 238              		.thumb_func
 239              		.type	moveDegreesY, %function
 240              	moveDegreesY:
 241              	.LFB68:
  69:MotorDriverY.c ****     }
  70:MotorDriverY.c **** }
  71:MotorDriverY.c **** 
  72:MotorDriverY.c **** void moveDegreesY(int deg) { //Positivt antal grader skrives hvis armen skal køre med uret og nega
 242              		.loc 1 72 0
 243              		.cfi_startproc
 244              		@ args = 0, pretend = 0, frame = 0
 245              		@ frame_needed = 0, uses_anonymous_args = 0
 246              	.LVL12:
 247 0000 38B5     		push	{r3, r4, r5, lr}
 248              		.cfi_def_cfa_offset 16
 249              		.cfi_offset 3, -16
 250              		.cfi_offset 4, -12
 251              		.cfi_offset 5, -8
 252              		.cfi_offset 14, -4
  73:MotorDriverY.c **** //    UART_1_PutString("Starting moveDegreesY function...\n\r");
  74:MotorDriverY.c ****     // OBS! Y-stepper er gearet forkert! 0.9 grader pr. full step, ikke 1.8 som der står i databla
  75:MotorDriverY.c ****     float round1 = deg / 0.9; //Grader divideret med stepvinkel = antal steps der skal køres
 253              		.loc 1 75 0
 254 0002 FFF7FEFF 		bl	__aeabi_i2d
ARM GAS  C:\Users\Lasse\AppData\Local\Temp\ccUeTQ3D.s 			page 7


 255              	.LVL13:
 256 0006 20A3     		adr	r3, .L38
 257 0008 D3E90023 		ldrd	r2, [r3]
 258 000c FFF7FEFF 		bl	__aeabi_ddiv
 259              	.LVL14:
 260 0010 FFF7FEFF 		bl	__aeabi_d2f
 261              	.LVL15:
  76:MotorDriverY.c ****     int steps = (int)round(round1); //Afrund antallet af steps
 262              		.loc 1 76 0
 263 0014 FFF7FEFF 		bl	__aeabi_f2d
 264              	.LVL16:
 265 0018 FFF7FEFF 		bl	round
 266              	.LVL17:
 267 001c FFF7FEFF 		bl	__aeabi_d2iz
 268              	.LVL18:
  77:MotorDriverY.c ****     
  78:MotorDriverY.c ****     if(steps < 0) {
 269              		.loc 1 78 0
 270 0020 051E     		subs	r5, r0, #0
 271 0022 14DA     		bge	.L36
 272 0024 0FE0     		b	.L34
 273              	.LVL19:
 274              	.L29:
 275              	.LBB2:
  79:MotorDriverY.c ****         for(int i = 0; i > steps; i--) {
  80:MotorDriverY.c ****             Timer_StepperY_Start();
 276              		.loc 1 80 0
 277 0026 FFF7FEFF 		bl	Timer_StepperY_Start
 278              	.LVL20:
  81:MotorDriverY.c ****             UART_1_PutString("Starting timer\n\r");
 279              		.loc 1 81 0
 280 002a 1948     		ldr	r0, .L38+8
 281 002c FFF7FEFF 		bl	UART_1_PutString
 282              	.LVL21:
 283              	.L28:
  82:MotorDriverY.c ****             while(timerDoneFlagY == 0); //wait here
 284              		.loc 1 82 0 discriminator 1
 285 0030 184B     		ldr	r3, .L38+12
 286 0032 1B78     		ldrb	r3, [r3]	@ zero_extendqisi2
 287 0034 002B     		cmp	r3, #0
 288 0036 FBD0     		beq	.L28
  83:MotorDriverY.c ****             rotateCounterClockwiseY();
 289              		.loc 1 83 0 discriminator 2
 290 0038 FFF7FEFF 		bl	rotateCounterClockwiseY
 291              	.LVL22:
  84:MotorDriverY.c ****             timerDoneFlagY = 0;
 292              		.loc 1 84 0 discriminator 2
 293 003c 0022     		movs	r2, #0
 294 003e 154B     		ldr	r3, .L38+12
 295 0040 1A70     		strb	r2, [r3]
  79:MotorDriverY.c ****             Timer_StepperY_Start();
 296              		.loc 1 79 0 discriminator 2
 297 0042 013C     		subs	r4, r4, #1
 298              	.LVL23:
 299 0044 00E0     		b	.L26
 300              	.LVL24:
 301              	.L34:
ARM GAS  C:\Users\Lasse\AppData\Local\Temp\ccUeTQ3D.s 			page 8


 302              	.LBE2:
 303 0046 0024     		movs	r4, #0
 304              	.LVL25:
 305              	.L26:
 306              	.LBB3:
  79:MotorDriverY.c ****             Timer_StepperY_Start();
 307              		.loc 1 79 0 is_stmt 0 discriminator 1
 308 0048 AC42     		cmp	r4, r5
 309 004a ECDC     		bgt	.L29
 310 004c 38BD     		pop	{r3, r4, r5, pc}
 311              	.LVL26:
 312              	.L36:
 313              	.LBE3:
  85:MotorDriverY.c ****         }
  86:MotorDriverY.c ****     }
  87:MotorDriverY.c ****     else if(steps > 0) {
 314              		.loc 1 87 0 is_stmt 1
 315 004e 002D     		cmp	r5, #0
 316 0050 18DD     		ble	.L25
  88:MotorDriverY.c ****         if(steps >= (stepperPositionY * -1)) {    //Hvis antallet af steps der skal køres tilbage 
 317              		.loc 1 88 0
 318 0052 114B     		ldr	r3, .L38+16
 319 0054 1B68     		ldr	r3, [r3]
 320 0056 5B42     		negs	r3, r3
 321 0058 9D42     		cmp	r5, r3
 322 005a 10DB     		blt	.L35
  89:MotorDriverY.c ****             UART_1_PutString("Moving too far dude\n\r");
 323              		.loc 1 89 0
 324 005c 0F48     		ldr	r0, .L38+20
 325              	.LVL27:
 326 005e FFF7FEFF 		bl	UART_1_PutString
 327              	.LVL28:
 328 0062 38BD     		pop	{r3, r4, r5, pc}
 329              	.LVL29:
 330              	.L33:
 331              	.LBB4:
  90:MotorDriverY.c ****         }
  91:MotorDriverY.c ****         else {
  92:MotorDriverY.c ****             for(int i = 0; i < steps; i++) {
  93:MotorDriverY.c ****                 Timer_StepperY_Start();
 332              		.loc 1 93 0
 333 0064 FFF7FEFF 		bl	Timer_StepperY_Start
 334              	.LVL30:
 335              	.L32:
  94:MotorDriverY.c ****                 while(timerDoneFlagY == 0);
 336              		.loc 1 94 0 discriminator 1
 337 0068 0A4B     		ldr	r3, .L38+12
 338 006a 1B78     		ldrb	r3, [r3]	@ zero_extendqisi2
 339 006c 002B     		cmp	r3, #0
 340 006e FBD0     		beq	.L32
  95:MotorDriverY.c ****                 rotateClockwiseY();
 341              		.loc 1 95 0 discriminator 2
 342 0070 FFF7FEFF 		bl	rotateClockwiseY
 343              	.LVL31:
  96:MotorDriverY.c ****                 timerDoneFlagY = 0;
 344              		.loc 1 96 0 discriminator 2
 345 0074 0022     		movs	r2, #0
ARM GAS  C:\Users\Lasse\AppData\Local\Temp\ccUeTQ3D.s 			page 9


 346 0076 074B     		ldr	r3, .L38+12
 347 0078 1A70     		strb	r2, [r3]
  92:MotorDriverY.c ****                 Timer_StepperY_Start();
 348              		.loc 1 92 0 discriminator 2
 349 007a 0134     		adds	r4, r4, #1
 350              	.LVL32:
 351 007c 00E0     		b	.L31
 352              	.LVL33:
 353              	.L35:
 354              	.LBE4:
 355 007e 0024     		movs	r4, #0
 356              	.LVL34:
 357              	.L31:
 358              	.LBB5:
  92:MotorDriverY.c ****                 Timer_StepperY_Start();
 359              		.loc 1 92 0 is_stmt 0 discriminator 1
 360 0080 AC42     		cmp	r4, r5
 361 0082 EFDB     		blt	.L33
 362              	.LVL35:
 363              	.L25:
 364 0084 38BD     		pop	{r3, r4, r5, pc}
 365              	.LVL36:
 366              	.L39:
 367 0086 00BF     		.align	3
 368              	.L38:
 369 0088 CDCCCCCC 		.word	-858993459
 370 008c CCCCEC3F 		.word	1072483532
 371 0090 1C000000 		.word	.LC1
 372 0094 00000000 		.word	timerDoneFlagY
 373 0098 00000000 		.word	stepperPositionY
 374 009c 30000000 		.word	.LC2
 375              	.LBE5:
 376              		.cfi_endproc
 377              	.LFE68:
 378              		.size	moveDegreesY, .-moveDegreesY
 379              		.section	.text.resetPositionY,"ax",%progbits
 380              		.align	2
 381              		.global	resetPositionY
 382              		.thumb
 383              		.thumb_func
 384              		.type	resetPositionY, %function
 385              	resetPositionY:
 386              	.LFB69:
  97:MotorDriverY.c ****             }
  98:MotorDriverY.c ****         }
  99:MotorDriverY.c ****     }
 100:MotorDriverY.c **** }
 101:MotorDriverY.c **** 
 102:MotorDriverY.c **** void resetPositionY() {
 387              		.loc 1 102 0 is_stmt 1
 388              		.cfi_startproc
 389              		@ args = 0, pretend = 0, frame = 0
 390              		@ frame_needed = 0, uses_anonymous_args = 0
 391 0000 08B5     		push	{r3, lr}
 392              		.cfi_def_cfa_offset 8
 393              		.cfi_offset 3, -8
 394              		.cfi_offset 14, -4
ARM GAS  C:\Users\Lasse\AppData\Local\Temp\ccUeTQ3D.s 			page 10


 103:MotorDriverY.c ****     while(Pin_Y3_Read() == 1) {
 395              		.loc 1 103 0
 396 0002 0AE0     		b	.L41
 397              	.L43:
 104:MotorDriverY.c ****         Timer_StepperY_Start();
 398              		.loc 1 104 0
 399 0004 FFF7FEFF 		bl	Timer_StepperY_Start
 400              	.LVL37:
 401              	.L42:
 105:MotorDriverY.c ****         while(timerDoneFlagY == 0);
 402              		.loc 1 105 0 discriminator 1
 403 0008 094B     		ldr	r3, .L45
 404 000a 1B78     		ldrb	r3, [r3]	@ zero_extendqisi2
 405 000c 002B     		cmp	r3, #0
 406 000e FBD0     		beq	.L42
 106:MotorDriverY.c ****         rotateClockwiseY();
 407              		.loc 1 106 0
 408 0010 FFF7FEFF 		bl	rotateClockwiseY
 409              	.LVL38:
 107:MotorDriverY.c ****         timerDoneFlagY = 0;
 410              		.loc 1 107 0
 411 0014 0022     		movs	r2, #0
 412 0016 064B     		ldr	r3, .L45
 413 0018 1A70     		strb	r2, [r3]
 414              	.L41:
 103:MotorDriverY.c ****         Timer_StepperY_Start();
 415              		.loc 1 103 0
 416 001a FFF7FEFF 		bl	Pin_Y3_Read
 417              	.LVL39:
 418 001e 0128     		cmp	r0, #1
 419 0020 F0D0     		beq	.L43
 108:MotorDriverY.c ****     }
 109:MotorDriverY.c ****     stepperPositionY = 0;
 420              		.loc 1 109 0
 421 0022 0022     		movs	r2, #0
 422 0024 034B     		ldr	r3, .L45+4
 423 0026 1A60     		str	r2, [r3]
 110:MotorDriverY.c ****     UART_1_PutString("Stepper reset\n\r");
 424              		.loc 1 110 0
 425 0028 0348     		ldr	r0, .L45+8
 426 002a FFF7FEFF 		bl	UART_1_PutString
 427              	.LVL40:
 428 002e 08BD     		pop	{r3, pc}
 429              	.L46:
 430              		.align	2
 431              	.L45:
 432 0030 00000000 		.word	timerDoneFlagY
 433 0034 00000000 		.word	stepperPositionY
 434 0038 48000000 		.word	.LC3
 435              		.cfi_endproc
 436              	.LFE69:
 437              		.size	resetPositionY, .-resetPositionY
 438              		.section	.text.initStepperY,"ax",%progbits
 439              		.align	2
 440              		.global	initStepperY
 441              		.thumb
 442              		.thumb_func
ARM GAS  C:\Users\Lasse\AppData\Local\Temp\ccUeTQ3D.s 			page 11


 443              		.type	initStepperY, %function
 444              	initStepperY:
 445              	.LFB64:
  19:MotorDriverY.c ****     Pin_Y1_Write(0);
 446              		.loc 1 19 0
 447              		.cfi_startproc
 448              		@ args = 0, pretend = 0, frame = 0
 449              		@ frame_needed = 0, uses_anonymous_args = 0
 450 0000 08B5     		push	{r3, lr}
 451              		.cfi_def_cfa_offset 8
 452              		.cfi_offset 3, -8
 453              		.cfi_offset 14, -4
  20:MotorDriverY.c ****     Pin_Y2_Write(0);
 454              		.loc 1 20 0
 455 0002 0020     		movs	r0, #0
 456 0004 FFF7FEFF 		bl	Pin_Y1_Write
 457              	.LVL41:
  21:MotorDriverY.c ****     
 458              		.loc 1 21 0
 459 0008 0020     		movs	r0, #0
 460 000a FFF7FEFF 		bl	Pin_Y2_Write
 461              	.LVL42:
  23:MotorDriverY.c ****     timerDoneFlagY = 0;
 462              		.loc 1 23 0
 463 000e 0448     		ldr	r0, .L49
 464 0010 FFF7FEFF 		bl	ISR_stepperY_StartEx
 465              	.LVL43:
  24:MotorDriverY.c ****     
 466              		.loc 1 24 0
 467 0014 0022     		movs	r2, #0
 468 0016 034B     		ldr	r3, .L49+4
 469 0018 1A70     		strb	r2, [r3]
  26:MotorDriverY.c **** }
 470              		.loc 1 26 0
 471 001a FFF7FEFF 		bl	resetPositionY
 472              	.LVL44:
 473 001e 08BD     		pop	{r3, pc}
 474              	.L50:
 475              		.align	2
 476              	.L49:
 477 0020 00000000 		.word	stepperY_isr_handler
 478 0024 00000000 		.word	timerDoneFlagY
 479              		.cfi_endproc
 480              	.LFE64:
 481              		.size	initStepperY, .-initStepperY
 482              		.comm	stepperStateY,1,1
 483              		.comm	timerDoneFlagY,1,1
 484              		.comm	stepperPositionY,4,4
 485              		.comm	stepperStateX,1,1
 486              		.comm	timerDoneFlagX,1,1
 487              		.comm	stepperPositionX,4,4
 488              		.section	.rodata.str1.4,"aMS",%progbits,1
 489              		.align	2
 490              	.LC0:
 491 0000 526F7461 		.ascii	"Rotated clockwise once\012\015\000"
 491      74656420 
 491      636C6F63 
ARM GAS  C:\Users\Lasse\AppData\Local\Temp\ccUeTQ3D.s 			page 12


 491      6B776973 
 491      65206F6E 
 492 0019 000000   		.space	3
 493              	.LC1:
 494 001c 53746172 		.ascii	"Starting timer\012\015\000"
 494      74696E67 
 494      2074696D 
 494      65720A0D 
 494      00
 495 002d 000000   		.space	3
 496              	.LC2:
 497 0030 4D6F7669 		.ascii	"Moving too far dude\012\015\000"
 497      6E672074 
 497      6F6F2066 
 497      61722064 
 497      7564650A 
 498 0046 0000     		.space	2
 499              	.LC3:
 500 0048 53746570 		.ascii	"Stepper reset\012\015\000"
 500      70657220 
 500      72657365 
 500      740A0D00 
 501              		.text
 502              	.Letext0:
 503              		.file 2 "c:\\program files (x86)\\cypress\\psoc creator\\4.2\\psoc creator\\import\\gnu\\arm\\5.4.
 504              		.file 3 "c:\\program files (x86)\\cypress\\psoc creator\\4.2\\psoc creator\\import\\gnu\\arm\\5.4.
 505              		.file 4 "Generated_Source\\PSoC5/cytypes.h"
 506              		.file 5 "Generated_Source\\PSoC5/core_cm3.h"
 507              		.file 6 "MotorDriverX.h"
 508              		.file 7 "MotorDriverY.h"
 509              		.file 8 "Generated_Source\\PSoC5/Timer_StepperY.h"
 510              		.file 9 "Generated_Source\\PSoC5/Pin_Y1.h"
 511              		.file 10 "Generated_Source\\PSoC5/Pin_Y2.h"
 512              		.file 11 "Generated_Source\\PSoC5/UART_1.h"
 513              		.file 12 "c:\\program files (x86)\\cypress\\psoc creator\\4.2\\psoc creator\\import\\gnu\\arm\\5.4
 514              		.file 13 "Generated_Source\\PSoC5/Pin_Y3.h"
 515              		.file 14 "Generated_Source\\PSoC5/ISR_stepperY.h"