ARM GAS  C:\Users\Lasse\AppData\Local\Temp\ccLgs2p1.s 			page 1


   1              		.syntax unified
   2              		.cpu cortex-m3
   3              		.fpu softvfp
   4              		.eabi_attribute 20, 1
   5              		.eabi_attribute 21, 1
   6              		.eabi_attribute 23, 3
   7              		.eabi_attribute 24, 1
   8              		.eabi_attribute 25, 1
   9              		.eabi_attribute 26, 1
  10              		.eabi_attribute 30, 1
  11              		.eabi_attribute 34, 1
  12              		.eabi_attribute 18, 4
  13              		.thumb
  14              		.syntax unified
  15              		.file	"MotorDriver.c"
  16              		.text
  17              	.Ltext0:
  18              		.cfi_sections	.debug_frame
  19              		.section	.text.rotateClockwise,"ax",%progbits
  20              		.align	2
  21              		.thumb
  22              		.thumb_func
  23              		.type	rotateClockwise, %function
  24              	rotateClockwise:
  25              	.LFB63:
  26              		.file 1 "MotorDriver.c"
   1:MotorDriver.c **** /* ========================================
   2:MotorDriver.c ****  *
   3:MotorDriver.c ****  * Copyright YOUR COMPANY, THE YEAR
   4:MotorDriver.c ****  * All Rights Reserved
   5:MotorDriver.c ****  * UNPUBLISHED, LICENSED SOFTWARE.
   6:MotorDriver.c ****  *
   7:MotorDriver.c ****  * CONFIDENTIAL AND PROPRIETARY INFORMATION
   8:MotorDriver.c ****  * WHICH IS THE PROPERTY OF your company.
   9:MotorDriver.c ****  *
  10:MotorDriver.c ****  * ========================================
  11:MotorDriver.c **** */
  12:MotorDriver.c **** #include "MotorDriver.h"
  13:MotorDriver.c **** #include <math.h>
  14:MotorDriver.c **** 
  15:MotorDriver.c **** static void rotateClockwise(struct StepperMotor * this) {
  27              		.loc 1 15 0
  28              		.cfi_startproc
  29              		@ args = 0, pretend = 0, frame = 0
  30              		@ frame_needed = 0, uses_anonymous_args = 0
  31              	.LVL0:
  32 0000 10B5     		push	{r4, lr}
  33              		.cfi_def_cfa_offset 8
  34              		.cfi_offset 4, -8
  35              		.cfi_offset 14, -4
  36 0002 0446     		mov	r4, r0
  16:MotorDriver.c ****     if(this->stepperState == WEST) { 
  37              		.loc 1 16 0
  38 0004 4379     		ldrb	r3, [r0, #5]	@ zero_extendqisi2
  39 0006 032B     		cmp	r3, #3
  40 0008 02D1     		bne	.L2
  17:MotorDriver.c ****         this->stepperState = NORTH;
ARM GAS  C:\Users\Lasse\AppData\Local\Temp\ccLgs2p1.s 			page 2


  41              		.loc 1 17 0
  42 000a 0023     		movs	r3, #0
  43 000c 4371     		strb	r3, [r0, #5]
  44 000e 01E0     		b	.L3
  45              	.L2:
  18:MotorDriver.c ****     }
  19:MotorDriver.c ****     else {
  20:MotorDriver.c ****         ++this->stepperState;
  46              		.loc 1 20 0
  47 0010 0133     		adds	r3, r3, #1
  48 0012 4371     		strb	r3, [r0, #5]
  49              	.L3:
  21:MotorDriver.c ****     }
  22:MotorDriver.c ****     this->moveStep();
  50              		.loc 1 22 0
  51 0014 2369     		ldr	r3, [r4, #16]
  52 0016 9847     		blx	r3
  53              	.LVL1:
  23:MotorDriver.c ****     ++this->stepperPosition;
  54              		.loc 1 23 0
  55 0018 2368     		ldr	r3, [r4]
  56 001a 0133     		adds	r3, r3, #1
  57 001c 2360     		str	r3, [r4]
  58 001e 10BD     		pop	{r4, pc}
  59              		.cfi_endproc
  60              	.LFE63:
  61              		.size	rotateClockwise, .-rotateClockwise
  62              		.section	.text.rotateCounterClockwise,"ax",%progbits
  63              		.align	2
  64              		.thumb
  65              		.thumb_func
  66              		.type	rotateCounterClockwise, %function
  67              	rotateCounterClockwise:
  68              	.LFB64:
  24:MotorDriver.c **** }
  25:MotorDriver.c **** 
  26:MotorDriver.c **** static void rotateCounterClockwise(struct StepperMotor * this) {
  69              		.loc 1 26 0
  70              		.cfi_startproc
  71              		@ args = 0, pretend = 0, frame = 0
  72              		@ frame_needed = 0, uses_anonymous_args = 0
  73              	.LVL2:
  74 0000 10B5     		push	{r4, lr}
  75              		.cfi_def_cfa_offset 8
  76              		.cfi_offset 4, -8
  77              		.cfi_offset 14, -4
  78 0002 0446     		mov	r4, r0
  27:MotorDriver.c ****     if(this->stepperState == NORTH) {
  79              		.loc 1 27 0
  80 0004 4379     		ldrb	r3, [r0, #5]	@ zero_extendqisi2
  81 0006 13B9     		cbnz	r3, .L6
  28:MotorDriver.c ****         this->stepperState = WEST;
  82              		.loc 1 28 0
  83 0008 0323     		movs	r3, #3
  84 000a 4371     		strb	r3, [r0, #5]
  85 000c 01E0     		b	.L7
  86              	.L6:
ARM GAS  C:\Users\Lasse\AppData\Local\Temp\ccLgs2p1.s 			page 3


  29:MotorDriver.c ****     }
  30:MotorDriver.c ****     else {
  31:MotorDriver.c ****         --this->stepperState;
  87              		.loc 1 31 0
  88 000e 013B     		subs	r3, r3, #1
  89 0010 4371     		strb	r3, [r0, #5]
  90              	.L7:
  32:MotorDriver.c ****     }
  33:MotorDriver.c ****     this->moveStep();
  91              		.loc 1 33 0
  92 0012 2369     		ldr	r3, [r4, #16]
  93 0014 9847     		blx	r3
  94              	.LVL3:
  34:MotorDriver.c ****     --this->stepperPosition;
  95              		.loc 1 34 0
  96 0016 2368     		ldr	r3, [r4]
  97 0018 013B     		subs	r3, r3, #1
  98 001a 2360     		str	r3, [r4]
  99 001c 10BD     		pop	{r4, pc}
 100              		.cfi_endproc
 101              	.LFE64:
 102              		.size	rotateCounterClockwise, .-rotateCounterClockwise
 103 001e 00BF     		.section	.text.moveStep,"ax",%progbits
 104              		.align	2
 105              		.thumb
 106              		.thumb_func
 107              		.type	moveStep, %function
 108              	moveStep:
 109              	.LFB65:
  35:MotorDriver.c **** }
  36:MotorDriver.c **** 
  37:MotorDriver.c **** static void moveStep(struct StepperMotor * this) {
 110              		.loc 1 37 0
 111              		.cfi_startproc
 112              		@ args = 0, pretend = 0, frame = 0
 113              		@ frame_needed = 0, uses_anonymous_args = 0
 114              	.LVL4:
 115 0000 10B5     		push	{r4, lr}
 116              		.cfi_def_cfa_offset 8
 117              		.cfi_offset 4, -8
 118              		.cfi_offset 14, -4
 119 0002 0446     		mov	r4, r0
  38:MotorDriver.c ****     if(this->stepperState == NORTH) {
 120              		.loc 1 38 0
 121 0004 4379     		ldrb	r3, [r0, #5]	@ zero_extendqisi2
 122 0006 33B9     		cbnz	r3, .L10
  39:MotorDriver.c ****         this->Pin1_Write(0);
 123              		.loc 1 39 0
 124 0008 C369     		ldr	r3, [r0, #28]
 125 000a 0020     		movs	r0, #0
 126              	.LVL5:
 127 000c 9847     		blx	r3
 128              	.LVL6:
  40:MotorDriver.c ****         this->Pin2_Write(0);
 129              		.loc 1 40 0
 130 000e 236A     		ldr	r3, [r4, #32]
 131 0010 0020     		movs	r0, #0
ARM GAS  C:\Users\Lasse\AppData\Local\Temp\ccLgs2p1.s 			page 4


 132 0012 9847     		blx	r3
 133              	.LVL7:
 134 0014 10BD     		pop	{r4, pc}
 135              	.LVL8:
 136              	.L10:
  41:MotorDriver.c ****     }
  42:MotorDriver.c ****     else if(this->stepperState == EAST) {
 137              		.loc 1 42 0
 138 0016 012B     		cmp	r3, #1
 139 0018 06D1     		bne	.L12
  43:MotorDriver.c ****         this->Pin1_Write(1);
 140              		.loc 1 43 0
 141 001a C369     		ldr	r3, [r0, #28]
 142 001c 0120     		movs	r0, #1
 143              	.LVL9:
 144 001e 9847     		blx	r3
 145              	.LVL10:
  44:MotorDriver.c ****         this->Pin2_Write(0);
 146              		.loc 1 44 0
 147 0020 236A     		ldr	r3, [r4, #32]
 148 0022 0020     		movs	r0, #0
 149 0024 9847     		blx	r3
 150              	.LVL11:
 151 0026 10BD     		pop	{r4, pc}
 152              	.LVL12:
 153              	.L12:
  45:MotorDriver.c ****     }
  46:MotorDriver.c ****     else if(this->stepperState == SOUTH) {
 154              		.loc 1 46 0
 155 0028 022B     		cmp	r3, #2
 156 002a 06D1     		bne	.L13
  47:MotorDriver.c ****         this->Pin1_Write(1);
 157              		.loc 1 47 0
 158 002c C369     		ldr	r3, [r0, #28]
 159 002e 0120     		movs	r0, #1
 160              	.LVL13:
 161 0030 9847     		blx	r3
 162              	.LVL14:
  48:MotorDriver.c ****         this->Pin2_Write(1);
 163              		.loc 1 48 0
 164 0032 236A     		ldr	r3, [r4, #32]
 165 0034 0120     		movs	r0, #1
 166 0036 9847     		blx	r3
 167              	.LVL15:
 168 0038 10BD     		pop	{r4, pc}
 169              	.LVL16:
 170              	.L13:
  49:MotorDriver.c ****     }
  50:MotorDriver.c ****     else if(this->stepperState == WEST) {
 171              		.loc 1 50 0
 172 003a 032B     		cmp	r3, #3
 173 003c 05D1     		bne	.L9
  51:MotorDriver.c ****         this->Pin1_Write(0);
 174              		.loc 1 51 0
 175 003e C369     		ldr	r3, [r0, #28]
 176 0040 0020     		movs	r0, #0
 177              	.LVL17:
ARM GAS  C:\Users\Lasse\AppData\Local\Temp\ccLgs2p1.s 			page 5


 178 0042 9847     		blx	r3
 179              	.LVL18:
  52:MotorDriver.c ****         this->Pin2_Write(1);
 180              		.loc 1 52 0
 181 0044 236A     		ldr	r3, [r4, #32]
 182 0046 0120     		movs	r0, #1
 183 0048 9847     		blx	r3
 184              	.LVL19:
 185              	.L9:
 186 004a 10BD     		pop	{r4, pc}
 187              		.cfi_endproc
 188              	.LFE65:
 189              		.size	moveStep, .-moveStep
 190              		.section	.text.resetPosition,"ax",%progbits
 191              		.align	2
 192              		.thumb
 193              		.thumb_func
 194              		.type	resetPosition, %function
 195              	resetPosition:
 196              	.LFB67:
  53:MotorDriver.c ****     }
  54:MotorDriver.c **** }
  55:MotorDriver.c **** 
  56:MotorDriver.c **** void moveDegrees(struct StepperMotor * this, int deg) { //Positivt antal grader skrives hvis armen 
  57:MotorDriver.c ****     UART_1_PutString("Starting moveDegrees function...\n\r");
  58:MotorDriver.c ****     float round1 = deg / 0.9; //Grader divideret med stepvinkel = antal steps der skal køres
  59:MotorDriver.c ****     int steps = (int)round(round1); //Afrund antallet af steps
  60:MotorDriver.c ****     
  61:MotorDriver.c ****     if(steps > 0) {
  62:MotorDriver.c ****         if (steps+this->stepperPosition > MAX_STEPS) {
  63:MotorDriver.c ****             steps = MAX_STEPS-(this->stepperPosition); //Kør ikke mere end maximalt tilladte antal
  64:MotorDriver.c ****         }
  65:MotorDriver.c ****         
  66:MotorDriver.c ****         for(int i = 0; i < steps; i++) {
  67:MotorDriver.c ****             UART_1_PutString("Starting timer\n\r");
  68:MotorDriver.c ****             this->Timer_Start();
  69:MotorDriver.c ****             while(this->timerDoneFlag == 0); //wait here
  70:MotorDriver.c ****             this->rotateClockwise(this);
  71:MotorDriver.c ****             this->timerDoneFlag = 0;
  72:MotorDriver.c ****         }
  73:MotorDriver.c ****     } else if(steps < 0) {
  74:MotorDriver.c ****         if(steps < (this->stepperPosition * -1)) {    //Hvis antallet af steps der skal køres tilb
  75:MotorDriver.c ****             this->resetPosition(this);
  76:MotorDriver.c ****         }
  77:MotorDriver.c ****         else if(steps > (this->stepperPosition * -1)) {
  78:MotorDriver.c ****             for(int i = 0; i > steps; i--) {
  79:MotorDriver.c ****                 UART_1_PutString("Starting timer\n\r");
  80:MotorDriver.c ****                 this->Timer_Start();
  81:MotorDriver.c ****                 while(this->timerDoneFlag == 0);
  82:MotorDriver.c ****                 this->rotateCounterClockwise(this);
  83:MotorDriver.c ****                 this->timerDoneFlag = 0;
  84:MotorDriver.c ****             }
  85:MotorDriver.c ****         }
  86:MotorDriver.c ****     }
  87:MotorDriver.c **** }
  88:MotorDriver.c **** 
  89:MotorDriver.c **** static void resetPosition(struct StepperMotor * this) {
ARM GAS  C:\Users\Lasse\AppData\Local\Temp\ccLgs2p1.s 			page 6


 197              		.loc 1 89 0
 198              		.cfi_startproc
 199              		@ args = 0, pretend = 0, frame = 0
 200              		@ frame_needed = 0, uses_anonymous_args = 0
 201              	.LVL20:
 202 0000 08B5     		push	{r3, lr}
 203              		.cfi_def_cfa_offset 8
 204              		.cfi_offset 3, -8
 205              		.cfi_offset 14, -4
  90:MotorDriver.c **** //    while(this->Pin3_Read() == 1) {
  91:MotorDriver.c **** //        this->Timer_Start();
  92:MotorDriver.c **** //        while(this->timerDoneFlag == 0);
  93:MotorDriver.c **** //        this->rotateCounterClockwise(this);
  94:MotorDriver.c **** //        this->timerDoneFlag = 0;
  95:MotorDriver.c **** //    }
  96:MotorDriver.c ****     this->stepperPosition = 0;
 206              		.loc 1 96 0
 207 0002 0023     		movs	r3, #0
 208 0004 0360     		str	r3, [r0]
  97:MotorDriver.c ****     UART_1_PutString("Stepper reset\n\r");
 209              		.loc 1 97 0
 210 0006 0248     		ldr	r0, .L17
 211              	.LVL21:
 212 0008 FFF7FEFF 		bl	UART_1_PutString
 213              	.LVL22:
 214 000c 08BD     		pop	{r3, pc}
 215              	.L18:
 216 000e 00BF     		.align	2
 217              	.L17:
 218 0010 00000000 		.word	.LC0
 219              		.cfi_endproc
 220              	.LFE67:
 221              		.size	resetPosition, .-resetPosition
 222              		.global	__aeabi_i2d
 223              		.global	__aeabi_ddiv
 224              		.global	__aeabi_d2f
 225              		.global	__aeabi_f2d
 226              		.global	__aeabi_d2iz
 227              		.section	.text.moveDegrees,"ax",%progbits
 228              		.align	2
 229              		.global	moveDegrees
 230              		.thumb
 231              		.thumb_func
 232              		.type	moveDegrees, %function
 233              	moveDegrees:
 234              	.LFB66:
  56:MotorDriver.c ****     UART_1_PutString("Starting moveDegrees function...\n\r");
 235              		.loc 1 56 0
 236              		.cfi_startproc
 237              		@ args = 0, pretend = 0, frame = 0
 238              		@ frame_needed = 0, uses_anonymous_args = 0
 239              	.LVL23:
 240 0000 70B5     		push	{r4, r5, r6, lr}
 241              		.cfi_def_cfa_offset 16
 242              		.cfi_offset 4, -16
 243              		.cfi_offset 5, -12
 244              		.cfi_offset 6, -8
ARM GAS  C:\Users\Lasse\AppData\Local\Temp\ccLgs2p1.s 			page 7


 245              		.cfi_offset 14, -4
 246 0002 0446     		mov	r4, r0
 247 0004 0D46     		mov	r5, r1
  57:MotorDriver.c ****     float round1 = deg / 0.9; //Grader divideret med stepvinkel = antal steps der skal køres
 248              		.loc 1 57 0
 249 0006 2A48     		ldr	r0, .L32+8
 250              	.LVL24:
 251 0008 FFF7FEFF 		bl	UART_1_PutString
 252              	.LVL25:
  58:MotorDriver.c ****     int steps = (int)round(round1); //Afrund antallet af steps
 253              		.loc 1 58 0
 254 000c 2846     		mov	r0, r5
 255 000e FFF7FEFF 		bl	__aeabi_i2d
 256              	.LVL26:
 257 0012 25A3     		adr	r3, .L32
 258 0014 D3E90023 		ldrd	r2, [r3]
 259 0018 FFF7FEFF 		bl	__aeabi_ddiv
 260              	.LVL27:
 261 001c FFF7FEFF 		bl	__aeabi_d2f
 262              	.LVL28:
  59:MotorDriver.c ****     
 263              		.loc 1 59 0
 264 0020 FFF7FEFF 		bl	__aeabi_f2d
 265              	.LVL29:
 266 0024 FFF7FEFF 		bl	round
 267              	.LVL30:
 268 0028 FFF7FEFF 		bl	__aeabi_d2iz
 269              	.LVL31:
  61:MotorDriver.c ****         if (steps+this->stepperPosition > MAX_STEPS) {
 270              		.loc 1 61 0
 271 002c 061E     		subs	r6, r0, #0
 272 002e 18DD     		ble	.L20
  62:MotorDriver.c ****             steps = MAX_STEPS-(this->stepperPosition); //Kør ikke mere end maximalt tilladte antal
 273              		.loc 1 62 0
 274 0030 2368     		ldr	r3, [r4]
 275 0032 F218     		adds	r2, r6, r3
 276 0034 C82A     		cmp	r2, #200
 277 0036 01DD     		ble	.L21
  63:MotorDriver.c ****         }
 278              		.loc 1 63 0
 279 0038 C3F1C806 		rsb	r6, r3, #200
 280              	.LVL32:
 281              	.L21:
 282              	.LBB2:
  66:MotorDriver.c ****             UART_1_PutString("Starting timer\n\r");
 283              		.loc 1 66 0
 284 003c 0025     		movs	r5, #0
 285              	.LVL33:
 286 003e 0DE0     		b	.L22
 287              	.LVL34:
 288              	.L24:
  67:MotorDriver.c ****             this->Timer_Start();
 289              		.loc 1 67 0
 290 0040 1C48     		ldr	r0, .L32+12
 291 0042 FFF7FEFF 		bl	UART_1_PutString
 292              	.LVL35:
  68:MotorDriver.c ****             while(this->timerDoneFlag == 0); //wait here
ARM GAS  C:\Users\Lasse\AppData\Local\Temp\ccLgs2p1.s 			page 8


 293              		.loc 1 68 0
 294 0046 A36A     		ldr	r3, [r4, #40]
 295 0048 9847     		blx	r3
 296              	.LVL36:
 297              	.L23:
  69:MotorDriver.c ****             this->rotateClockwise(this);
 298              		.loc 1 69 0 discriminator 1
 299 004a 2379     		ldrb	r3, [r4, #4]	@ zero_extendqisi2
 300 004c 002B     		cmp	r3, #0
 301 004e FCD0     		beq	.L23
  70:MotorDriver.c ****             this->timerDoneFlag = 0;
 302              		.loc 1 70 0 discriminator 2
 303 0050 A368     		ldr	r3, [r4, #8]
 304 0052 2046     		mov	r0, r4
 305 0054 9847     		blx	r3
 306              	.LVL37:
  71:MotorDriver.c ****         }
 307              		.loc 1 71 0 discriminator 2
 308 0056 0023     		movs	r3, #0
 309 0058 2371     		strb	r3, [r4, #4]
  66:MotorDriver.c ****             UART_1_PutString("Starting timer\n\r");
 310              		.loc 1 66 0 discriminator 2
 311 005a 0135     		adds	r5, r5, #1
 312              	.LVL38:
 313              	.L22:
  66:MotorDriver.c ****             UART_1_PutString("Starting timer\n\r");
 314              		.loc 1 66 0 is_stmt 0 discriminator 1
 315 005c AE42     		cmp	r6, r5
 316 005e EFDC     		bgt	.L24
 317 0060 70BD     		pop	{r4, r5, r6, pc}
 318              	.LVL39:
 319              	.L20:
 320              	.LBE2:
  73:MotorDriver.c ****         if(steps < (this->stepperPosition * -1)) {    //Hvis antallet af steps der skal køres tilb
 321              		.loc 1 73 0 is_stmt 1
 322 0062 002E     		cmp	r6, #0
 323 0064 1CDA     		bge	.L19
  74:MotorDriver.c ****             this->resetPosition(this);
 324              		.loc 1 74 0
 325 0066 2368     		ldr	r3, [r4]
 326 0068 5B42     		negs	r3, r3
 327 006a 9E42     		cmp	r6, r3
 328 006c 03DA     		bge	.L26
  75:MotorDriver.c ****         }
 329              		.loc 1 75 0
 330 006e A369     		ldr	r3, [r4, #24]
 331 0070 2046     		mov	r0, r4
 332              	.LVL40:
 333 0072 9847     		blx	r3
 334              	.LVL41:
 335 0074 70BD     		pop	{r4, r5, r6, pc}
 336              	.LVL42:
 337              	.L26:
  77:MotorDriver.c ****             for(int i = 0; i > steps; i--) {
 338              		.loc 1 77 0
 339 0076 9E42     		cmp	r6, r3
 340 0078 0FDC     		bgt	.L30
ARM GAS  C:\Users\Lasse\AppData\Local\Temp\ccLgs2p1.s 			page 9


 341              	.LBB3:
 342 007a 70BD     		pop	{r4, r5, r6, pc}
 343              	.LVL43:
 344              	.L29:
  79:MotorDriver.c ****                 this->Timer_Start();
 345              		.loc 1 79 0
 346 007c 0D48     		ldr	r0, .L32+12
 347 007e FFF7FEFF 		bl	UART_1_PutString
 348              	.LVL44:
  80:MotorDriver.c ****                 while(this->timerDoneFlag == 0);
 349              		.loc 1 80 0
 350 0082 A36A     		ldr	r3, [r4, #40]
 351 0084 9847     		blx	r3
 352              	.LVL45:
 353              	.L28:
  81:MotorDriver.c ****                 this->rotateCounterClockwise(this);
 354              		.loc 1 81 0 discriminator 1
 355 0086 2379     		ldrb	r3, [r4, #4]	@ zero_extendqisi2
 356 0088 002B     		cmp	r3, #0
 357 008a FCD0     		beq	.L28
  82:MotorDriver.c ****                 this->timerDoneFlag = 0;
 358              		.loc 1 82 0 discriminator 2
 359 008c E368     		ldr	r3, [r4, #12]
 360 008e 2046     		mov	r0, r4
 361 0090 9847     		blx	r3
 362              	.LVL46:
  83:MotorDriver.c ****             }
 363              		.loc 1 83 0 discriminator 2
 364 0092 0023     		movs	r3, #0
 365 0094 2371     		strb	r3, [r4, #4]
  78:MotorDriver.c ****                 UART_1_PutString("Starting timer\n\r");
 366              		.loc 1 78 0 discriminator 2
 367 0096 013D     		subs	r5, r5, #1
 368              	.LVL47:
 369 0098 00E0     		b	.L27
 370              	.LVL48:
 371              	.L30:
 372              	.LBE3:
 373 009a 0025     		movs	r5, #0
 374              	.LVL49:
 375              	.L27:
 376              	.LBB4:
  78:MotorDriver.c ****                 UART_1_PutString("Starting timer\n\r");
 377              		.loc 1 78 0 is_stmt 0 discriminator 1
 378 009c B542     		cmp	r5, r6
 379 009e EDDC     		bgt	.L29
 380              	.LVL50:
 381              	.L19:
 382 00a0 70BD     		pop	{r4, r5, r6, pc}
 383              	.LVL51:
 384              	.L33:
 385 00a2 00BFAFF3 		.align	3
 385      0080
 386              	.L32:
 387 00a8 CDCCCCCC 		.word	-858993459
 388 00ac CCCCEC3F 		.word	1072483532
 389 00b0 10000000 		.word	.LC1
ARM GAS  C:\Users\Lasse\AppData\Local\Temp\ccLgs2p1.s 			page 10


 390 00b4 34000000 		.word	.LC2
 391              	.LBE4:
 392              		.cfi_endproc
 393              	.LFE66:
 394              		.size	moveDegrees, .-moveDegrees
 395              		.section	.text.initStepper,"ax",%progbits
 396              		.align	2
 397              		.global	initStepper
 398              		.thumb
 399              		.thumb_func
 400              		.type	initStepper, %function
 401              	initStepper:
 402              	.LFB68:
  98:MotorDriver.c **** }
  99:MotorDriver.c **** 
 100:MotorDriver.c **** void initStepper(struct StepperMotor * this, void (*pin1)(uint8), void (*pin2)(uint8), uint8 (*pin3
 403              		.loc 1 100 0 is_stmt 1
 404              		.cfi_startproc
 405              		@ args = 4, pretend = 0, frame = 0
 406              		@ frame_needed = 0, uses_anonymous_args = 0
 407              	.LVL52:
 408 0000 F8B5     		push	{r3, r4, r5, r6, r7, lr}
 409              		.cfi_def_cfa_offset 24
 410              		.cfi_offset 3, -24
 411              		.cfi_offset 4, -20
 412              		.cfi_offset 5, -16
 413              		.cfi_offset 6, -12
 414              		.cfi_offset 7, -8
 415              		.cfi_offset 14, -4
 416 0002 0446     		mov	r4, r0
 417 0004 0F46     		mov	r7, r1
 418 0006 1646     		mov	r6, r2
 419 0008 1D46     		mov	r5, r3
 101:MotorDriver.c ****     
 102:MotorDriver.c ****     UART_1_PutString("Setting pin/timer function pointers\n\r");
 420              		.loc 1 102 0
 421 000a 1548     		ldr	r0, .L36
 422              	.LVL53:
 423 000c FFF7FEFF 		bl	UART_1_PutString
 424              	.LVL54:
 103:MotorDriver.c ****     this->Pin1_Write = pin1;
 425              		.loc 1 103 0
 426 0010 E761     		str	r7, [r4, #28]
 104:MotorDriver.c ****     this->Pin2_Write = pin2;
 427              		.loc 1 104 0
 428 0012 2662     		str	r6, [r4, #32]
 105:MotorDriver.c ****     this->Pin3_Read = pin3;
 429              		.loc 1 105 0
 430 0014 6562     		str	r5, [r4, #36]
 106:MotorDriver.c ****     this->Timer_Start = timerStart;
 431              		.loc 1 106 0
 432 0016 069B     		ldr	r3, [sp, #24]
 433 0018 A362     		str	r3, [r4, #40]
 107:MotorDriver.c ****     
 108:MotorDriver.c ****     UART_1_PutString("Setting driver function pointers\n\r");
 434              		.loc 1 108 0
 435 001a 1248     		ldr	r0, .L36+4
ARM GAS  C:\Users\Lasse\AppData\Local\Temp\ccLgs2p1.s 			page 11


 436 001c FFF7FEFF 		bl	UART_1_PutString
 437              	.LVL55:
 109:MotorDriver.c ****     this->rotateClockwise = rotateClockwise;
 438              		.loc 1 109 0
 439 0020 114B     		ldr	r3, .L36+8
 440 0022 A360     		str	r3, [r4, #8]
 110:MotorDriver.c ****     this->rotateCounterClockwise = rotateCounterClockwise;
 441              		.loc 1 110 0
 442 0024 114B     		ldr	r3, .L36+12
 443 0026 E360     		str	r3, [r4, #12]
 111:MotorDriver.c ****     this->moveStep = moveStep;
 444              		.loc 1 111 0
 445 0028 114B     		ldr	r3, .L36+16
 446 002a 2361     		str	r3, [r4, #16]
 112:MotorDriver.c ****     this->moveDegrees = moveDegrees;
 447              		.loc 1 112 0
 448 002c 114B     		ldr	r3, .L36+20
 449 002e 6361     		str	r3, [r4, #20]
 113:MotorDriver.c ****     this->resetPosition = resetPosition;
 450              		.loc 1 113 0
 451 0030 114B     		ldr	r3, .L36+24
 452 0032 A361     		str	r3, [r4, #24]
 114:MotorDriver.c ****     this->this = this;
 453              		.loc 1 114 0
 454 0034 E462     		str	r4, [r4, #44]
 115:MotorDriver.c ****     
 116:MotorDriver.c ****     UART_1_PutString("Writing to pins\n\r");
 455              		.loc 1 116 0
 456 0036 1148     		ldr	r0, .L36+28
 457 0038 FFF7FEFF 		bl	UART_1_PutString
 458              	.LVL56:
 117:MotorDriver.c ****     this->Pin1_Write(0);
 459              		.loc 1 117 0
 460 003c E369     		ldr	r3, [r4, #28]
 461 003e 0020     		movs	r0, #0
 462 0040 9847     		blx	r3
 463              	.LVL57:
 118:MotorDriver.c ****     this->Pin2_Write(0);
 464              		.loc 1 118 0
 465 0042 236A     		ldr	r3, [r4, #32]
 466 0044 0020     		movs	r0, #0
 467 0046 9847     		blx	r3
 468              	.LVL58:
 119:MotorDriver.c ****     
 120:MotorDriver.c ****     UART_1_PutString("Set timer done flag\n\r");
 469              		.loc 1 120 0
 470 0048 0D48     		ldr	r0, .L36+32
 471 004a FFF7FEFF 		bl	UART_1_PutString
 472              	.LVL59:
 121:MotorDriver.c ****     this->timerDoneFlag = 0;
 473              		.loc 1 121 0
 474 004e 0023     		movs	r3, #0
 475 0050 2371     		strb	r3, [r4, #4]
 122:MotorDriver.c ****     
 123:MotorDriver.c ****     UART_1_PutString("Reset position...\n\r");
 476              		.loc 1 123 0
 477 0052 0C48     		ldr	r0, .L36+36
ARM GAS  C:\Users\Lasse\AppData\Local\Temp\ccLgs2p1.s 			page 12


 478 0054 FFF7FEFF 		bl	UART_1_PutString
 479              	.LVL60:
 124:MotorDriver.c ****     this->resetPosition(this);
 480              		.loc 1 124 0
 481 0058 A369     		ldr	r3, [r4, #24]
 482 005a 2046     		mov	r0, r4
 483 005c 9847     		blx	r3
 484              	.LVL61:
 485 005e F8BD     		pop	{r3, r4, r5, r6, r7, pc}
 486              	.LVL62:
 487              	.L37:
 488              		.align	2
 489              	.L36:
 490 0060 48000000 		.word	.LC3
 491 0064 70000000 		.word	.LC4
 492 0068 00000000 		.word	rotateClockwise
 493 006c 00000000 		.word	rotateCounterClockwise
 494 0070 00000000 		.word	moveStep
 495 0074 00000000 		.word	moveDegrees
 496 0078 00000000 		.word	resetPosition
 497 007c 94000000 		.word	.LC5
 498 0080 A8000000 		.word	.LC6
 499 0084 C0000000 		.word	.LC7
 500              		.cfi_endproc
 501              	.LFE68:
 502              		.size	initStepper, .-initStepper
 503              		.section	.rodata.str1.4,"aMS",%progbits,1
 504              		.align	2
 505              	.LC0:
 506 0000 53746570 		.ascii	"Stepper reset\012\015\000"
 506      70657220 
 506      72657365 
 506      740A0D00 
 507              	.LC1:
 508 0010 53746172 		.ascii	"Starting moveDegrees function...\012\015\000"
 508      74696E67 
 508      206D6F76 
 508      65446567 
 508      72656573 
 509 0033 00       		.space	1
 510              	.LC2:
 511 0034 53746172 		.ascii	"Starting timer\012\015\000"
 511      74696E67 
 511      2074696D 
 511      65720A0D 
 511      00
 512 0045 000000   		.space	3
 513              	.LC3:
 514 0048 53657474 		.ascii	"Setting pin/timer function pointers\012\015\000"
 514      696E6720 
 514      70696E2F 
 514      74696D65 
 514      72206675 
 515 006e 0000     		.space	2
 516              	.LC4:
 517 0070 53657474 		.ascii	"Setting driver function pointers\012\015\000"
 517      696E6720 
ARM GAS  C:\Users\Lasse\AppData\Local\Temp\ccLgs2p1.s 			page 13


 517      64726976 
 517      65722066 
 517      756E6374 
 518 0093 00       		.space	1
 519              	.LC5:
 520 0094 57726974 		.ascii	"Writing to pins\012\015\000"
 520      696E6720 
 520      746F2070 
 520      696E730A 
 520      0D00
 521 00a6 0000     		.space	2
 522              	.LC6:
 523 00a8 53657420 		.ascii	"Set timer done flag\012\015\000"
 523      74696D65 
 523      7220646F 
 523      6E652066 
 523      6C61670A 
 524 00be 0000     		.space	2
 525              	.LC7:
 526 00c0 52657365 		.ascii	"Reset position...\012\015\000"
 526      7420706F 
 526      73697469 
 526      6F6E2E2E 
 526      2E0A0D00 
 527              		.text
 528              	.Letext0:
 529              		.file 2 "c:\\program files (x86)\\cypress\\psoc creator\\4.2\\psoc creator\\import\\gnu\\arm\\5.4.
 530              		.file 3 "c:\\program files (x86)\\cypress\\psoc creator\\4.2\\psoc creator\\import\\gnu\\arm\\5.4.
 531              		.file 4 "Generated_Source\\PSoC5/cytypes.h"
 532              		.file 5 "MotorDriver.h"
 533              		.file 6 "Generated_Source\\PSoC5/UART_1.h"
 534              		.file 7 "c:\\program files (x86)\\cypress\\psoc creator\\4.2\\psoc creator\\import\\gnu\\arm\\5.4.
 535              		.file 8 "Generated_Source\\PSoC5/core_cm3.h"