ARM GAS  C:\Users\Lasse\AppData\Local\Temp\cckSATur.s 			page 1


   1              		.syntax unified
   2              		.cpu cortex-m3
   3              		.fpu softvfp
   4              		.eabi_attribute 20, 1
   5              		.eabi_attribute 21, 1
   6              		.eabi_attribute 23, 3
   7              		.eabi_attribute 24, 1
   8              		.eabi_attribute 25, 1
   9              		.eabi_attribute 26, 1
  10              		.eabi_attribute 30, 1
  11              		.eabi_attribute 34, 1
  12              		.eabi_attribute 18, 4
  13              		.thumb
  14              		.syntax unified
  15              		.file	"PWM_WaSens.c"
  16              		.text
  17              	.Ltext0:
  18              		.cfi_sections	.debug_frame
  19              		.section	.text.PWM_WaSens_Enable,"ax",%progbits
  20              		.align	2
  21              		.global	PWM_WaSens_Enable
  22              		.thumb
  23              		.thumb_func
  24              		.type	PWM_WaSens_Enable, %function
  25              	PWM_WaSens_Enable:
  26              	.LFB2:
  27              		.file 1 "Generated_Source\\PSoC5\\PWM_WaSens.c"
   1:Generated_Source\PSoC5/PWM_WaSens.c **** /*******************************************************************************
   2:Generated_Source\PSoC5/PWM_WaSens.c **** * File Name: PWM_WaSens.c
   3:Generated_Source\PSoC5/PWM_WaSens.c **** * Version 3.30
   4:Generated_Source\PSoC5/PWM_WaSens.c **** *
   5:Generated_Source\PSoC5/PWM_WaSens.c **** * Description:
   6:Generated_Source\PSoC5/PWM_WaSens.c **** *  The PWM User Module consist of an 8 or 16-bit counter with two 8 or 16-bit
   7:Generated_Source\PSoC5/PWM_WaSens.c **** *  comparitors. Each instance of this user module is capable of generating
   8:Generated_Source\PSoC5/PWM_WaSens.c **** *  two PWM outputs with the same period. The pulse width is selectable between
   9:Generated_Source\PSoC5/PWM_WaSens.c **** *  1 and 255/65535. The period is selectable between 2 and 255/65536 clocks.
  10:Generated_Source\PSoC5/PWM_WaSens.c **** *  The compare value output may be configured to be active when the present
  11:Generated_Source\PSoC5/PWM_WaSens.c **** *  counter is less than or less than/equal to the compare value.
  12:Generated_Source\PSoC5/PWM_WaSens.c **** *  A terminal count output is also provided. It generates a pulse one clock
  13:Generated_Source\PSoC5/PWM_WaSens.c **** *  width wide when the counter is equal to zero.
  14:Generated_Source\PSoC5/PWM_WaSens.c **** *
  15:Generated_Source\PSoC5/PWM_WaSens.c **** * Note:
  16:Generated_Source\PSoC5/PWM_WaSens.c **** *
  17:Generated_Source\PSoC5/PWM_WaSens.c **** *******************************************************************************
  18:Generated_Source\PSoC5/PWM_WaSens.c **** * Copyright 2008-2014, Cypress Semiconductor Corporation.  All rights reserved.
  19:Generated_Source\PSoC5/PWM_WaSens.c **** * You may use this file only in accordance with the license, terms, conditions,
  20:Generated_Source\PSoC5/PWM_WaSens.c **** * disclaimers, and limitations in the end user license agreement accompanying
  21:Generated_Source\PSoC5/PWM_WaSens.c **** * the software package with which this file was provided.
  22:Generated_Source\PSoC5/PWM_WaSens.c **** ********************************************************************************/
  23:Generated_Source\PSoC5/PWM_WaSens.c **** 
  24:Generated_Source\PSoC5/PWM_WaSens.c **** #include "PWM_WaSens.h"
  25:Generated_Source\PSoC5/PWM_WaSens.c **** 
  26:Generated_Source\PSoC5/PWM_WaSens.c **** /* Error message for removed <resource> through optimization */
  27:Generated_Source\PSoC5/PWM_WaSens.c **** #ifdef PWM_WaSens_PWMUDB_genblk1_ctrlreg__REMOVED
  28:Generated_Source\PSoC5/PWM_WaSens.c ****     #error PWM_v3_30 detected with a constant 0 for the enable or \
  29:Generated_Source\PSoC5/PWM_WaSens.c ****          constant 1 for reset. This will prevent the component from operating.
  30:Generated_Source\PSoC5/PWM_WaSens.c **** #endif /* PWM_WaSens_PWMUDB_genblk1_ctrlreg__REMOVED */
ARM GAS  C:\Users\Lasse\AppData\Local\Temp\cckSATur.s 			page 2


  31:Generated_Source\PSoC5/PWM_WaSens.c **** 
  32:Generated_Source\PSoC5/PWM_WaSens.c **** uint8 PWM_WaSens_initVar = 0u;
  33:Generated_Source\PSoC5/PWM_WaSens.c **** 
  34:Generated_Source\PSoC5/PWM_WaSens.c **** 
  35:Generated_Source\PSoC5/PWM_WaSens.c **** /*******************************************************************************
  36:Generated_Source\PSoC5/PWM_WaSens.c **** * Function Name: PWM_WaSens_Start
  37:Generated_Source\PSoC5/PWM_WaSens.c **** ********************************************************************************
  38:Generated_Source\PSoC5/PWM_WaSens.c **** *
  39:Generated_Source\PSoC5/PWM_WaSens.c **** * Summary:
  40:Generated_Source\PSoC5/PWM_WaSens.c **** *  The start function initializes the pwm with the default values, the
  41:Generated_Source\PSoC5/PWM_WaSens.c **** *  enables the counter to begin counting.  It does not enable interrupts,
  42:Generated_Source\PSoC5/PWM_WaSens.c **** *  the EnableInt command should be called if interrupt generation is required.
  43:Generated_Source\PSoC5/PWM_WaSens.c **** *
  44:Generated_Source\PSoC5/PWM_WaSens.c **** * Parameters:
  45:Generated_Source\PSoC5/PWM_WaSens.c **** *  None
  46:Generated_Source\PSoC5/PWM_WaSens.c **** *
  47:Generated_Source\PSoC5/PWM_WaSens.c **** * Return:
  48:Generated_Source\PSoC5/PWM_WaSens.c **** *  None
  49:Generated_Source\PSoC5/PWM_WaSens.c **** *
  50:Generated_Source\PSoC5/PWM_WaSens.c **** * Global variables:
  51:Generated_Source\PSoC5/PWM_WaSens.c **** *  PWM_WaSens_initVar: Is modified when this function is called for the
  52:Generated_Source\PSoC5/PWM_WaSens.c **** *   first time. Is used to ensure that initialization happens only once.
  53:Generated_Source\PSoC5/PWM_WaSens.c **** *
  54:Generated_Source\PSoC5/PWM_WaSens.c **** *******************************************************************************/
  55:Generated_Source\PSoC5/PWM_WaSens.c **** void PWM_WaSens_Start(void) 
  56:Generated_Source\PSoC5/PWM_WaSens.c **** {
  57:Generated_Source\PSoC5/PWM_WaSens.c ****     /* If not Initialized then initialize all required hardware and software */
  58:Generated_Source\PSoC5/PWM_WaSens.c ****     if(PWM_WaSens_initVar == 0u)
  59:Generated_Source\PSoC5/PWM_WaSens.c ****     {
  60:Generated_Source\PSoC5/PWM_WaSens.c ****         PWM_WaSens_Init();
  61:Generated_Source\PSoC5/PWM_WaSens.c ****         PWM_WaSens_initVar = 1u;
  62:Generated_Source\PSoC5/PWM_WaSens.c ****     }
  63:Generated_Source\PSoC5/PWM_WaSens.c ****     PWM_WaSens_Enable();
  64:Generated_Source\PSoC5/PWM_WaSens.c **** 
  65:Generated_Source\PSoC5/PWM_WaSens.c **** }
  66:Generated_Source\PSoC5/PWM_WaSens.c **** 
  67:Generated_Source\PSoC5/PWM_WaSens.c **** 
  68:Generated_Source\PSoC5/PWM_WaSens.c **** /*******************************************************************************
  69:Generated_Source\PSoC5/PWM_WaSens.c **** * Function Name: PWM_WaSens_Init
  70:Generated_Source\PSoC5/PWM_WaSens.c **** ********************************************************************************
  71:Generated_Source\PSoC5/PWM_WaSens.c **** *
  72:Generated_Source\PSoC5/PWM_WaSens.c **** * Summary:
  73:Generated_Source\PSoC5/PWM_WaSens.c **** *  Initialize component's parameters to the parameters set by user in the
  74:Generated_Source\PSoC5/PWM_WaSens.c **** *  customizer of the component placed onto schematic. Usually called in
  75:Generated_Source\PSoC5/PWM_WaSens.c **** *  PWM_WaSens_Start().
  76:Generated_Source\PSoC5/PWM_WaSens.c **** *
  77:Generated_Source\PSoC5/PWM_WaSens.c **** * Parameters:
  78:Generated_Source\PSoC5/PWM_WaSens.c **** *  None
  79:Generated_Source\PSoC5/PWM_WaSens.c **** *
  80:Generated_Source\PSoC5/PWM_WaSens.c **** * Return:
  81:Generated_Source\PSoC5/PWM_WaSens.c **** *  None
  82:Generated_Source\PSoC5/PWM_WaSens.c **** *
  83:Generated_Source\PSoC5/PWM_WaSens.c **** *******************************************************************************/
  84:Generated_Source\PSoC5/PWM_WaSens.c **** void PWM_WaSens_Init(void) 
  85:Generated_Source\PSoC5/PWM_WaSens.c **** {
  86:Generated_Source\PSoC5/PWM_WaSens.c ****     #if (PWM_WaSens_UsingFixedFunction || PWM_WaSens_UseControl)
  87:Generated_Source\PSoC5/PWM_WaSens.c ****         uint8 ctrl;
ARM GAS  C:\Users\Lasse\AppData\Local\Temp\cckSATur.s 			page 3


  88:Generated_Source\PSoC5/PWM_WaSens.c ****     #endif /* (PWM_WaSens_UsingFixedFunction || PWM_WaSens_UseControl) */
  89:Generated_Source\PSoC5/PWM_WaSens.c **** 
  90:Generated_Source\PSoC5/PWM_WaSens.c ****     #if(!PWM_WaSens_UsingFixedFunction)
  91:Generated_Source\PSoC5/PWM_WaSens.c ****         #if(PWM_WaSens_UseStatus)
  92:Generated_Source\PSoC5/PWM_WaSens.c ****             /* Interrupt State Backup for Critical Region*/
  93:Generated_Source\PSoC5/PWM_WaSens.c ****             uint8 PWM_WaSens_interruptState;
  94:Generated_Source\PSoC5/PWM_WaSens.c ****         #endif /* (PWM_WaSens_UseStatus) */
  95:Generated_Source\PSoC5/PWM_WaSens.c ****     #endif /* (!PWM_WaSens_UsingFixedFunction) */
  96:Generated_Source\PSoC5/PWM_WaSens.c **** 
  97:Generated_Source\PSoC5/PWM_WaSens.c ****     #if (PWM_WaSens_UsingFixedFunction)
  98:Generated_Source\PSoC5/PWM_WaSens.c ****         /* You are allowed to write the compare value (FF only) */
  99:Generated_Source\PSoC5/PWM_WaSens.c ****         PWM_WaSens_CONTROL |= PWM_WaSens_CFG0_MODE;
 100:Generated_Source\PSoC5/PWM_WaSens.c ****         #if (PWM_WaSens_DeadBand2_4)
 101:Generated_Source\PSoC5/PWM_WaSens.c ****             PWM_WaSens_CONTROL |= PWM_WaSens_CFG0_DB;
 102:Generated_Source\PSoC5/PWM_WaSens.c ****         #endif /* (PWM_WaSens_DeadBand2_4) */
 103:Generated_Source\PSoC5/PWM_WaSens.c **** 
 104:Generated_Source\PSoC5/PWM_WaSens.c ****         ctrl = PWM_WaSens_CONTROL3 & ((uint8 )(~PWM_WaSens_CTRL_CMPMODE1_MASK));
 105:Generated_Source\PSoC5/PWM_WaSens.c ****         PWM_WaSens_CONTROL3 = ctrl | PWM_WaSens_DEFAULT_COMPARE1_MODE;
 106:Generated_Source\PSoC5/PWM_WaSens.c **** 
 107:Generated_Source\PSoC5/PWM_WaSens.c ****          /* Clear and Set SYNCTC and SYNCCMP bits of RT1 register */
 108:Generated_Source\PSoC5/PWM_WaSens.c ****         PWM_WaSens_RT1 &= ((uint8)(~PWM_WaSens_RT1_MASK));
 109:Generated_Source\PSoC5/PWM_WaSens.c ****         PWM_WaSens_RT1 |= PWM_WaSens_SYNC;
 110:Generated_Source\PSoC5/PWM_WaSens.c **** 
 111:Generated_Source\PSoC5/PWM_WaSens.c ****         /*Enable DSI Sync all all inputs of the PWM*/
 112:Generated_Source\PSoC5/PWM_WaSens.c ****         PWM_WaSens_RT1 &= ((uint8)(~PWM_WaSens_SYNCDSI_MASK));
 113:Generated_Source\PSoC5/PWM_WaSens.c ****         PWM_WaSens_RT1 |= PWM_WaSens_SYNCDSI_EN;
 114:Generated_Source\PSoC5/PWM_WaSens.c **** 
 115:Generated_Source\PSoC5/PWM_WaSens.c ****     #elif (PWM_WaSens_UseControl)
 116:Generated_Source\PSoC5/PWM_WaSens.c ****         /* Set the default compare mode defined in the parameter */
 117:Generated_Source\PSoC5/PWM_WaSens.c ****         ctrl = PWM_WaSens_CONTROL & ((uint8)(~PWM_WaSens_CTRL_CMPMODE2_MASK)) &
 118:Generated_Source\PSoC5/PWM_WaSens.c ****                 ((uint8)(~PWM_WaSens_CTRL_CMPMODE1_MASK));
 119:Generated_Source\PSoC5/PWM_WaSens.c ****         PWM_WaSens_CONTROL = ctrl | PWM_WaSens_DEFAULT_COMPARE2_MODE |
 120:Generated_Source\PSoC5/PWM_WaSens.c ****                                    PWM_WaSens_DEFAULT_COMPARE1_MODE;
 121:Generated_Source\PSoC5/PWM_WaSens.c ****     #endif /* (PWM_WaSens_UsingFixedFunction) */
 122:Generated_Source\PSoC5/PWM_WaSens.c **** 
 123:Generated_Source\PSoC5/PWM_WaSens.c ****     #if (!PWM_WaSens_UsingFixedFunction)
 124:Generated_Source\PSoC5/PWM_WaSens.c ****         #if (PWM_WaSens_Resolution == 8)
 125:Generated_Source\PSoC5/PWM_WaSens.c ****             /* Set FIFO 0 to 1 byte register for period*/
 126:Generated_Source\PSoC5/PWM_WaSens.c ****             PWM_WaSens_AUX_CONTROLDP0 |= (PWM_WaSens_AUX_CTRL_FIFO0_CLR);
 127:Generated_Source\PSoC5/PWM_WaSens.c ****         #else /* (PWM_WaSens_Resolution == 16)*/
 128:Generated_Source\PSoC5/PWM_WaSens.c ****             /* Set FIFO 0 to 1 byte register for period */
 129:Generated_Source\PSoC5/PWM_WaSens.c ****             PWM_WaSens_AUX_CONTROLDP0 |= (PWM_WaSens_AUX_CTRL_FIFO0_CLR);
 130:Generated_Source\PSoC5/PWM_WaSens.c ****             PWM_WaSens_AUX_CONTROLDP1 |= (PWM_WaSens_AUX_CTRL_FIFO0_CLR);
 131:Generated_Source\PSoC5/PWM_WaSens.c ****         #endif /* (PWM_WaSens_Resolution == 8) */
 132:Generated_Source\PSoC5/PWM_WaSens.c **** 
 133:Generated_Source\PSoC5/PWM_WaSens.c ****         PWM_WaSens_WriteCounter(PWM_WaSens_INIT_PERIOD_VALUE);
 134:Generated_Source\PSoC5/PWM_WaSens.c ****     #endif /* (!PWM_WaSens_UsingFixedFunction) */
 135:Generated_Source\PSoC5/PWM_WaSens.c **** 
 136:Generated_Source\PSoC5/PWM_WaSens.c ****     PWM_WaSens_WritePeriod(PWM_WaSens_INIT_PERIOD_VALUE);
 137:Generated_Source\PSoC5/PWM_WaSens.c **** 
 138:Generated_Source\PSoC5/PWM_WaSens.c ****         #if (PWM_WaSens_UseOneCompareMode)
 139:Generated_Source\PSoC5/PWM_WaSens.c ****             PWM_WaSens_WriteCompare(PWM_WaSens_INIT_COMPARE_VALUE1);
 140:Generated_Source\PSoC5/PWM_WaSens.c ****         #else
 141:Generated_Source\PSoC5/PWM_WaSens.c ****             PWM_WaSens_WriteCompare1(PWM_WaSens_INIT_COMPARE_VALUE1);
 142:Generated_Source\PSoC5/PWM_WaSens.c ****             PWM_WaSens_WriteCompare2(PWM_WaSens_INIT_COMPARE_VALUE2);
 143:Generated_Source\PSoC5/PWM_WaSens.c ****         #endif /* (PWM_WaSens_UseOneCompareMode) */
 144:Generated_Source\PSoC5/PWM_WaSens.c **** 
ARM GAS  C:\Users\Lasse\AppData\Local\Temp\cckSATur.s 			page 4


 145:Generated_Source\PSoC5/PWM_WaSens.c ****         #if (PWM_WaSens_KillModeMinTime)
 146:Generated_Source\PSoC5/PWM_WaSens.c ****             PWM_WaSens_WriteKillTime(PWM_WaSens_MinimumKillTime);
 147:Generated_Source\PSoC5/PWM_WaSens.c ****         #endif /* (PWM_WaSens_KillModeMinTime) */
 148:Generated_Source\PSoC5/PWM_WaSens.c **** 
 149:Generated_Source\PSoC5/PWM_WaSens.c ****         #if (PWM_WaSens_DeadBandUsed)
 150:Generated_Source\PSoC5/PWM_WaSens.c ****             PWM_WaSens_WriteDeadTime(PWM_WaSens_INIT_DEAD_TIME);
 151:Generated_Source\PSoC5/PWM_WaSens.c ****         #endif /* (PWM_WaSens_DeadBandUsed) */
 152:Generated_Source\PSoC5/PWM_WaSens.c **** 
 153:Generated_Source\PSoC5/PWM_WaSens.c ****     #if (PWM_WaSens_UseStatus || PWM_WaSens_UsingFixedFunction)
 154:Generated_Source\PSoC5/PWM_WaSens.c ****         PWM_WaSens_SetInterruptMode(PWM_WaSens_INIT_INTERRUPTS_MODE);
 155:Generated_Source\PSoC5/PWM_WaSens.c ****     #endif /* (PWM_WaSens_UseStatus || PWM_WaSens_UsingFixedFunction) */
 156:Generated_Source\PSoC5/PWM_WaSens.c **** 
 157:Generated_Source\PSoC5/PWM_WaSens.c ****     #if (PWM_WaSens_UsingFixedFunction)
 158:Generated_Source\PSoC5/PWM_WaSens.c ****         /* Globally Enable the Fixed Function Block chosen */
 159:Generated_Source\PSoC5/PWM_WaSens.c ****         PWM_WaSens_GLOBAL_ENABLE |= PWM_WaSens_BLOCK_EN_MASK;
 160:Generated_Source\PSoC5/PWM_WaSens.c ****         /* Set the Interrupt source to come from the status register */
 161:Generated_Source\PSoC5/PWM_WaSens.c ****         PWM_WaSens_CONTROL2 |= PWM_WaSens_CTRL2_IRQ_SEL;
 162:Generated_Source\PSoC5/PWM_WaSens.c ****     #else
 163:Generated_Source\PSoC5/PWM_WaSens.c ****         #if(PWM_WaSens_UseStatus)
 164:Generated_Source\PSoC5/PWM_WaSens.c **** 
 165:Generated_Source\PSoC5/PWM_WaSens.c ****             /* CyEnterCriticalRegion and CyExitCriticalRegion are used to mark following region cri
 166:Generated_Source\PSoC5/PWM_WaSens.c ****             /* Enter Critical Region*/
 167:Generated_Source\PSoC5/PWM_WaSens.c ****             PWM_WaSens_interruptState = CyEnterCriticalSection();
 168:Generated_Source\PSoC5/PWM_WaSens.c ****             /* Use the interrupt output of the status register for IRQ output */
 169:Generated_Source\PSoC5/PWM_WaSens.c ****             PWM_WaSens_STATUS_AUX_CTRL |= PWM_WaSens_STATUS_ACTL_INT_EN_MASK;
 170:Generated_Source\PSoC5/PWM_WaSens.c **** 
 171:Generated_Source\PSoC5/PWM_WaSens.c ****              /* Exit Critical Region*/
 172:Generated_Source\PSoC5/PWM_WaSens.c ****             CyExitCriticalSection(PWM_WaSens_interruptState);
 173:Generated_Source\PSoC5/PWM_WaSens.c **** 
 174:Generated_Source\PSoC5/PWM_WaSens.c ****             /* Clear the FIFO to enable the PWM_WaSens_STATUS_FIFOFULL
 175:Generated_Source\PSoC5/PWM_WaSens.c ****                    bit to be set on FIFO full. */
 176:Generated_Source\PSoC5/PWM_WaSens.c ****             PWM_WaSens_ClearFIFO();
 177:Generated_Source\PSoC5/PWM_WaSens.c ****         #endif /* (PWM_WaSens_UseStatus) */
 178:Generated_Source\PSoC5/PWM_WaSens.c ****     #endif /* (PWM_WaSens_UsingFixedFunction) */
 179:Generated_Source\PSoC5/PWM_WaSens.c **** }
 180:Generated_Source\PSoC5/PWM_WaSens.c **** 
 181:Generated_Source\PSoC5/PWM_WaSens.c **** 
 182:Generated_Source\PSoC5/PWM_WaSens.c **** /*******************************************************************************
 183:Generated_Source\PSoC5/PWM_WaSens.c **** * Function Name: PWM_WaSens_Enable
 184:Generated_Source\PSoC5/PWM_WaSens.c **** ********************************************************************************
 185:Generated_Source\PSoC5/PWM_WaSens.c **** *
 186:Generated_Source\PSoC5/PWM_WaSens.c **** * Summary:
 187:Generated_Source\PSoC5/PWM_WaSens.c **** *  Enables the PWM block operation
 188:Generated_Source\PSoC5/PWM_WaSens.c **** *
 189:Generated_Source\PSoC5/PWM_WaSens.c **** * Parameters:
 190:Generated_Source\PSoC5/PWM_WaSens.c **** *  None
 191:Generated_Source\PSoC5/PWM_WaSens.c **** *
 192:Generated_Source\PSoC5/PWM_WaSens.c **** * Return:
 193:Generated_Source\PSoC5/PWM_WaSens.c **** *  None
 194:Generated_Source\PSoC5/PWM_WaSens.c **** *
 195:Generated_Source\PSoC5/PWM_WaSens.c **** * Side Effects:
 196:Generated_Source\PSoC5/PWM_WaSens.c **** *  This works only if software enable mode is chosen
 197:Generated_Source\PSoC5/PWM_WaSens.c **** *
 198:Generated_Source\PSoC5/PWM_WaSens.c **** *******************************************************************************/
 199:Generated_Source\PSoC5/PWM_WaSens.c **** void PWM_WaSens_Enable(void) 
 200:Generated_Source\PSoC5/PWM_WaSens.c **** {
  28              		.loc 1 200 0
ARM GAS  C:\Users\Lasse\AppData\Local\Temp\cckSATur.s 			page 5


  29              		.cfi_startproc
  30              		@ args = 0, pretend = 0, frame = 0
  31              		@ frame_needed = 0, uses_anonymous_args = 0
  32              		@ link register save eliminated.
  33 0000 7047     		bx	lr
  34              		.cfi_endproc
  35              	.LFE2:
  36              		.size	PWM_WaSens_Enable, .-PWM_WaSens_Enable
  37 0002 00BF     		.section	.text.PWM_WaSens_Stop,"ax",%progbits
  38              		.align	2
  39              		.global	PWM_WaSens_Stop
  40              		.thumb
  41              		.thumb_func
  42              		.type	PWM_WaSens_Stop, %function
  43              	PWM_WaSens_Stop:
  44              	.LFB3:
 201:Generated_Source\PSoC5/PWM_WaSens.c ****     /* Globally Enable the Fixed Function Block chosen */
 202:Generated_Source\PSoC5/PWM_WaSens.c ****     #if (PWM_WaSens_UsingFixedFunction)
 203:Generated_Source\PSoC5/PWM_WaSens.c ****         PWM_WaSens_GLOBAL_ENABLE |= PWM_WaSens_BLOCK_EN_MASK;
 204:Generated_Source\PSoC5/PWM_WaSens.c ****         PWM_WaSens_GLOBAL_STBY_ENABLE |= PWM_WaSens_BLOCK_STBY_EN_MASK;
 205:Generated_Source\PSoC5/PWM_WaSens.c ****     #endif /* (PWM_WaSens_UsingFixedFunction) */
 206:Generated_Source\PSoC5/PWM_WaSens.c **** 
 207:Generated_Source\PSoC5/PWM_WaSens.c ****     /* Enable the PWM from the control register  */
 208:Generated_Source\PSoC5/PWM_WaSens.c ****     #if (PWM_WaSens_UseControl || PWM_WaSens_UsingFixedFunction)
 209:Generated_Source\PSoC5/PWM_WaSens.c ****         PWM_WaSens_CONTROL |= PWM_WaSens_CTRL_ENABLE;
 210:Generated_Source\PSoC5/PWM_WaSens.c ****     #endif /* (PWM_WaSens_UseControl || PWM_WaSens_UsingFixedFunction) */
 211:Generated_Source\PSoC5/PWM_WaSens.c **** }
 212:Generated_Source\PSoC5/PWM_WaSens.c **** 
 213:Generated_Source\PSoC5/PWM_WaSens.c **** 
 214:Generated_Source\PSoC5/PWM_WaSens.c **** /*******************************************************************************
 215:Generated_Source\PSoC5/PWM_WaSens.c **** * Function Name: PWM_WaSens_Stop
 216:Generated_Source\PSoC5/PWM_WaSens.c **** ********************************************************************************
 217:Generated_Source\PSoC5/PWM_WaSens.c **** *
 218:Generated_Source\PSoC5/PWM_WaSens.c **** * Summary:
 219:Generated_Source\PSoC5/PWM_WaSens.c **** *  The stop function halts the PWM, but does not change any modes or disable
 220:Generated_Source\PSoC5/PWM_WaSens.c **** *  interrupts.
 221:Generated_Source\PSoC5/PWM_WaSens.c **** *
 222:Generated_Source\PSoC5/PWM_WaSens.c **** * Parameters:
 223:Generated_Source\PSoC5/PWM_WaSens.c **** *  None
 224:Generated_Source\PSoC5/PWM_WaSens.c **** *
 225:Generated_Source\PSoC5/PWM_WaSens.c **** * Return:
 226:Generated_Source\PSoC5/PWM_WaSens.c **** *  None
 227:Generated_Source\PSoC5/PWM_WaSens.c **** *
 228:Generated_Source\PSoC5/PWM_WaSens.c **** * Side Effects:
 229:Generated_Source\PSoC5/PWM_WaSens.c **** *  If the Enable mode is set to Hardware only then this function
 230:Generated_Source\PSoC5/PWM_WaSens.c **** *  has no effect on the operation of the PWM
 231:Generated_Source\PSoC5/PWM_WaSens.c **** *
 232:Generated_Source\PSoC5/PWM_WaSens.c **** *******************************************************************************/
 233:Generated_Source\PSoC5/PWM_WaSens.c **** void PWM_WaSens_Stop(void) 
 234:Generated_Source\PSoC5/PWM_WaSens.c **** {
  45              		.loc 1 234 0
  46              		.cfi_startproc
  47              		@ args = 0, pretend = 0, frame = 0
  48              		@ frame_needed = 0, uses_anonymous_args = 0
  49              		@ link register save eliminated.
  50 0000 7047     		bx	lr
  51              		.cfi_endproc
ARM GAS  C:\Users\Lasse\AppData\Local\Temp\cckSATur.s 			page 6


  52              	.LFE3:
  53              		.size	PWM_WaSens_Stop, .-PWM_WaSens_Stop
  54 0002 00BF     		.section	.text.PWM_WaSens_WriteCounter,"ax",%progbits
  55              		.align	2
  56              		.global	PWM_WaSens_WriteCounter
  57              		.thumb
  58              		.thumb_func
  59              		.type	PWM_WaSens_WriteCounter, %function
  60              	PWM_WaSens_WriteCounter:
  61              	.LFB4:
 235:Generated_Source\PSoC5/PWM_WaSens.c ****     #if (PWM_WaSens_UseControl || PWM_WaSens_UsingFixedFunction)
 236:Generated_Source\PSoC5/PWM_WaSens.c ****         PWM_WaSens_CONTROL &= ((uint8)(~PWM_WaSens_CTRL_ENABLE));
 237:Generated_Source\PSoC5/PWM_WaSens.c ****     #endif /* (PWM_WaSens_UseControl || PWM_WaSens_UsingFixedFunction) */
 238:Generated_Source\PSoC5/PWM_WaSens.c **** 
 239:Generated_Source\PSoC5/PWM_WaSens.c ****     /* Globally disable the Fixed Function Block chosen */
 240:Generated_Source\PSoC5/PWM_WaSens.c ****     #if (PWM_WaSens_UsingFixedFunction)
 241:Generated_Source\PSoC5/PWM_WaSens.c ****         PWM_WaSens_GLOBAL_ENABLE &= ((uint8)(~PWM_WaSens_BLOCK_EN_MASK));
 242:Generated_Source\PSoC5/PWM_WaSens.c ****         PWM_WaSens_GLOBAL_STBY_ENABLE &= ((uint8)(~PWM_WaSens_BLOCK_STBY_EN_MASK));
 243:Generated_Source\PSoC5/PWM_WaSens.c ****     #endif /* (PWM_WaSens_UsingFixedFunction) */
 244:Generated_Source\PSoC5/PWM_WaSens.c **** }
 245:Generated_Source\PSoC5/PWM_WaSens.c **** 
 246:Generated_Source\PSoC5/PWM_WaSens.c **** #if (PWM_WaSens_UseOneCompareMode)
 247:Generated_Source\PSoC5/PWM_WaSens.c ****     #if (PWM_WaSens_CompareMode1SW)
 248:Generated_Source\PSoC5/PWM_WaSens.c **** 
 249:Generated_Source\PSoC5/PWM_WaSens.c **** 
 250:Generated_Source\PSoC5/PWM_WaSens.c ****         /*******************************************************************************
 251:Generated_Source\PSoC5/PWM_WaSens.c ****         * Function Name: PWM_WaSens_SetCompareMode
 252:Generated_Source\PSoC5/PWM_WaSens.c ****         ********************************************************************************
 253:Generated_Source\PSoC5/PWM_WaSens.c ****         *
 254:Generated_Source\PSoC5/PWM_WaSens.c ****         * Summary:
 255:Generated_Source\PSoC5/PWM_WaSens.c ****         *  This function writes the Compare Mode for the pwm output when in Dither mode,
 256:Generated_Source\PSoC5/PWM_WaSens.c ****         *  Center Align Mode or One Output Mode.
 257:Generated_Source\PSoC5/PWM_WaSens.c ****         *
 258:Generated_Source\PSoC5/PWM_WaSens.c ****         * Parameters:
 259:Generated_Source\PSoC5/PWM_WaSens.c ****         *  comparemode:  The new compare mode for the PWM output. Use the compare types
 260:Generated_Source\PSoC5/PWM_WaSens.c ****         *                defined in the H file as input arguments.
 261:Generated_Source\PSoC5/PWM_WaSens.c ****         *
 262:Generated_Source\PSoC5/PWM_WaSens.c ****         * Return:
 263:Generated_Source\PSoC5/PWM_WaSens.c ****         *  None
 264:Generated_Source\PSoC5/PWM_WaSens.c ****         *
 265:Generated_Source\PSoC5/PWM_WaSens.c ****         *******************************************************************************/
 266:Generated_Source\PSoC5/PWM_WaSens.c ****         void PWM_WaSens_SetCompareMode(uint8 comparemode) 
 267:Generated_Source\PSoC5/PWM_WaSens.c ****         {
 268:Generated_Source\PSoC5/PWM_WaSens.c ****             #if(PWM_WaSens_UsingFixedFunction)
 269:Generated_Source\PSoC5/PWM_WaSens.c **** 
 270:Generated_Source\PSoC5/PWM_WaSens.c ****                 #if(0 != PWM_WaSens_CTRL_CMPMODE1_SHIFT)
 271:Generated_Source\PSoC5/PWM_WaSens.c ****                     uint8 comparemodemasked = ((uint8)((uint8)comparemode << PWM_WaSens_CTRL_CMPMOD
 272:Generated_Source\PSoC5/PWM_WaSens.c ****                 #else
 273:Generated_Source\PSoC5/PWM_WaSens.c ****                     uint8 comparemodemasked = comparemode;
 274:Generated_Source\PSoC5/PWM_WaSens.c ****                 #endif /* (0 != PWM_WaSens_CTRL_CMPMODE1_SHIFT) */
 275:Generated_Source\PSoC5/PWM_WaSens.c **** 
 276:Generated_Source\PSoC5/PWM_WaSens.c ****                 PWM_WaSens_CONTROL3 &= ((uint8)(~PWM_WaSens_CTRL_CMPMODE1_MASK)); /*Clear Existing 
 277:Generated_Source\PSoC5/PWM_WaSens.c ****                 PWM_WaSens_CONTROL3 |= comparemodemasked;
 278:Generated_Source\PSoC5/PWM_WaSens.c **** 
 279:Generated_Source\PSoC5/PWM_WaSens.c ****             #elif (PWM_WaSens_UseControl)
 280:Generated_Source\PSoC5/PWM_WaSens.c **** 
 281:Generated_Source\PSoC5/PWM_WaSens.c ****                 #if(0 != PWM_WaSens_CTRL_CMPMODE1_SHIFT)
ARM GAS  C:\Users\Lasse\AppData\Local\Temp\cckSATur.s 			page 7


 282:Generated_Source\PSoC5/PWM_WaSens.c ****                     uint8 comparemode1masked = ((uint8)((uint8)comparemode << PWM_WaSens_CTRL_CMPMO
 283:Generated_Source\PSoC5/PWM_WaSens.c ****                                                 PWM_WaSens_CTRL_CMPMODE1_MASK;
 284:Generated_Source\PSoC5/PWM_WaSens.c ****                 #else
 285:Generated_Source\PSoC5/PWM_WaSens.c ****                     uint8 comparemode1masked = comparemode & PWM_WaSens_CTRL_CMPMODE1_MASK;
 286:Generated_Source\PSoC5/PWM_WaSens.c ****                 #endif /* (0 != PWM_WaSens_CTRL_CMPMODE1_SHIFT) */
 287:Generated_Source\PSoC5/PWM_WaSens.c **** 
 288:Generated_Source\PSoC5/PWM_WaSens.c ****                 #if(0 != PWM_WaSens_CTRL_CMPMODE2_SHIFT)
 289:Generated_Source\PSoC5/PWM_WaSens.c ****                     uint8 comparemode2masked = ((uint8)((uint8)comparemode << PWM_WaSens_CTRL_CMPMO
 290:Generated_Source\PSoC5/PWM_WaSens.c ****                                                PWM_WaSens_CTRL_CMPMODE2_MASK;
 291:Generated_Source\PSoC5/PWM_WaSens.c ****                 #else
 292:Generated_Source\PSoC5/PWM_WaSens.c ****                     uint8 comparemode2masked = comparemode & PWM_WaSens_CTRL_CMPMODE2_MASK;
 293:Generated_Source\PSoC5/PWM_WaSens.c ****                 #endif /* (0 != PWM_WaSens_CTRL_CMPMODE2_SHIFT) */
 294:Generated_Source\PSoC5/PWM_WaSens.c **** 
 295:Generated_Source\PSoC5/PWM_WaSens.c ****                 /*Clear existing mode */
 296:Generated_Source\PSoC5/PWM_WaSens.c ****                 PWM_WaSens_CONTROL &= ((uint8)(~(PWM_WaSens_CTRL_CMPMODE1_MASK |
 297:Generated_Source\PSoC5/PWM_WaSens.c ****                                             PWM_WaSens_CTRL_CMPMODE2_MASK)));
 298:Generated_Source\PSoC5/PWM_WaSens.c ****                 PWM_WaSens_CONTROL |= (comparemode1masked | comparemode2masked);
 299:Generated_Source\PSoC5/PWM_WaSens.c **** 
 300:Generated_Source\PSoC5/PWM_WaSens.c ****             #else
 301:Generated_Source\PSoC5/PWM_WaSens.c ****                 uint8 temp = comparemode;
 302:Generated_Source\PSoC5/PWM_WaSens.c ****             #endif /* (PWM_WaSens_UsingFixedFunction) */
 303:Generated_Source\PSoC5/PWM_WaSens.c ****         }
 304:Generated_Source\PSoC5/PWM_WaSens.c ****     #endif /* PWM_WaSens_CompareMode1SW */
 305:Generated_Source\PSoC5/PWM_WaSens.c **** 
 306:Generated_Source\PSoC5/PWM_WaSens.c **** #else /* UseOneCompareMode */
 307:Generated_Source\PSoC5/PWM_WaSens.c **** 
 308:Generated_Source\PSoC5/PWM_WaSens.c ****     #if (PWM_WaSens_CompareMode1SW)
 309:Generated_Source\PSoC5/PWM_WaSens.c **** 
 310:Generated_Source\PSoC5/PWM_WaSens.c **** 
 311:Generated_Source\PSoC5/PWM_WaSens.c ****         /*******************************************************************************
 312:Generated_Source\PSoC5/PWM_WaSens.c ****         * Function Name: PWM_WaSens_SetCompareMode1
 313:Generated_Source\PSoC5/PWM_WaSens.c ****         ********************************************************************************
 314:Generated_Source\PSoC5/PWM_WaSens.c ****         *
 315:Generated_Source\PSoC5/PWM_WaSens.c ****         * Summary:
 316:Generated_Source\PSoC5/PWM_WaSens.c ****         *  This function writes the Compare Mode for the pwm or pwm1 output
 317:Generated_Source\PSoC5/PWM_WaSens.c ****         *
 318:Generated_Source\PSoC5/PWM_WaSens.c ****         * Parameters:
 319:Generated_Source\PSoC5/PWM_WaSens.c ****         *  comparemode:  The new compare mode for the PWM output. Use the compare types
 320:Generated_Source\PSoC5/PWM_WaSens.c ****         *                defined in the H file as input arguments.
 321:Generated_Source\PSoC5/PWM_WaSens.c ****         *
 322:Generated_Source\PSoC5/PWM_WaSens.c ****         * Return:
 323:Generated_Source\PSoC5/PWM_WaSens.c ****         *  None
 324:Generated_Source\PSoC5/PWM_WaSens.c ****         *
 325:Generated_Source\PSoC5/PWM_WaSens.c ****         *******************************************************************************/
 326:Generated_Source\PSoC5/PWM_WaSens.c ****         void PWM_WaSens_SetCompareMode1(uint8 comparemode) 
 327:Generated_Source\PSoC5/PWM_WaSens.c ****         {
 328:Generated_Source\PSoC5/PWM_WaSens.c ****             #if(0 != PWM_WaSens_CTRL_CMPMODE1_SHIFT)
 329:Generated_Source\PSoC5/PWM_WaSens.c ****                 uint8 comparemodemasked = ((uint8)((uint8)comparemode << PWM_WaSens_CTRL_CMPMODE1_S
 330:Generated_Source\PSoC5/PWM_WaSens.c ****                                            PWM_WaSens_CTRL_CMPMODE1_MASK;
 331:Generated_Source\PSoC5/PWM_WaSens.c ****             #else
 332:Generated_Source\PSoC5/PWM_WaSens.c ****                 uint8 comparemodemasked = comparemode & PWM_WaSens_CTRL_CMPMODE1_MASK;
 333:Generated_Source\PSoC5/PWM_WaSens.c ****             #endif /* (0 != PWM_WaSens_CTRL_CMPMODE1_SHIFT) */
 334:Generated_Source\PSoC5/PWM_WaSens.c **** 
 335:Generated_Source\PSoC5/PWM_WaSens.c ****             #if (PWM_WaSens_UseControl)
 336:Generated_Source\PSoC5/PWM_WaSens.c ****                 PWM_WaSens_CONTROL &= ((uint8)(~PWM_WaSens_CTRL_CMPMODE1_MASK)); /*Clear existing m
 337:Generated_Source\PSoC5/PWM_WaSens.c ****                 PWM_WaSens_CONTROL |= comparemodemasked;
 338:Generated_Source\PSoC5/PWM_WaSens.c ****             #endif /* (PWM_WaSens_UseControl) */
ARM GAS  C:\Users\Lasse\AppData\Local\Temp\cckSATur.s 			page 8


 339:Generated_Source\PSoC5/PWM_WaSens.c ****         }
 340:Generated_Source\PSoC5/PWM_WaSens.c ****     #endif /* PWM_WaSens_CompareMode1SW */
 341:Generated_Source\PSoC5/PWM_WaSens.c **** 
 342:Generated_Source\PSoC5/PWM_WaSens.c **** #if (PWM_WaSens_CompareMode2SW)
 343:Generated_Source\PSoC5/PWM_WaSens.c **** 
 344:Generated_Source\PSoC5/PWM_WaSens.c **** 
 345:Generated_Source\PSoC5/PWM_WaSens.c ****     /*******************************************************************************
 346:Generated_Source\PSoC5/PWM_WaSens.c ****     * Function Name: PWM_WaSens_SetCompareMode2
 347:Generated_Source\PSoC5/PWM_WaSens.c ****     ********************************************************************************
 348:Generated_Source\PSoC5/PWM_WaSens.c ****     *
 349:Generated_Source\PSoC5/PWM_WaSens.c ****     * Summary:
 350:Generated_Source\PSoC5/PWM_WaSens.c ****     *  This function writes the Compare Mode for the pwm or pwm2 output
 351:Generated_Source\PSoC5/PWM_WaSens.c ****     *
 352:Generated_Source\PSoC5/PWM_WaSens.c ****     * Parameters:
 353:Generated_Source\PSoC5/PWM_WaSens.c ****     *  comparemode:  The new compare mode for the PWM output. Use the compare types
 354:Generated_Source\PSoC5/PWM_WaSens.c ****     *                defined in the H file as input arguments.
 355:Generated_Source\PSoC5/PWM_WaSens.c ****     *
 356:Generated_Source\PSoC5/PWM_WaSens.c ****     * Return:
 357:Generated_Source\PSoC5/PWM_WaSens.c ****     *  None
 358:Generated_Source\PSoC5/PWM_WaSens.c ****     *
 359:Generated_Source\PSoC5/PWM_WaSens.c ****     *******************************************************************************/
 360:Generated_Source\PSoC5/PWM_WaSens.c ****     void PWM_WaSens_SetCompareMode2(uint8 comparemode) 
 361:Generated_Source\PSoC5/PWM_WaSens.c ****     {
 362:Generated_Source\PSoC5/PWM_WaSens.c **** 
 363:Generated_Source\PSoC5/PWM_WaSens.c ****         #if(0 != PWM_WaSens_CTRL_CMPMODE2_SHIFT)
 364:Generated_Source\PSoC5/PWM_WaSens.c ****             uint8 comparemodemasked = ((uint8)((uint8)comparemode << PWM_WaSens_CTRL_CMPMODE2_SHIFT
 365:Generated_Source\PSoC5/PWM_WaSens.c ****                                                  PWM_WaSens_CTRL_CMPMODE2_MASK;
 366:Generated_Source\PSoC5/PWM_WaSens.c ****         #else
 367:Generated_Source\PSoC5/PWM_WaSens.c ****             uint8 comparemodemasked = comparemode & PWM_WaSens_CTRL_CMPMODE2_MASK;
 368:Generated_Source\PSoC5/PWM_WaSens.c ****         #endif /* (0 != PWM_WaSens_CTRL_CMPMODE2_SHIFT) */
 369:Generated_Source\PSoC5/PWM_WaSens.c **** 
 370:Generated_Source\PSoC5/PWM_WaSens.c ****         #if (PWM_WaSens_UseControl)
 371:Generated_Source\PSoC5/PWM_WaSens.c ****             PWM_WaSens_CONTROL &= ((uint8)(~PWM_WaSens_CTRL_CMPMODE2_MASK)); /*Clear existing mode 
 372:Generated_Source\PSoC5/PWM_WaSens.c ****             PWM_WaSens_CONTROL |= comparemodemasked;
 373:Generated_Source\PSoC5/PWM_WaSens.c ****         #endif /* (PWM_WaSens_UseControl) */
 374:Generated_Source\PSoC5/PWM_WaSens.c ****     }
 375:Generated_Source\PSoC5/PWM_WaSens.c ****     #endif /*PWM_WaSens_CompareMode2SW */
 376:Generated_Source\PSoC5/PWM_WaSens.c **** 
 377:Generated_Source\PSoC5/PWM_WaSens.c **** #endif /* UseOneCompareMode */
 378:Generated_Source\PSoC5/PWM_WaSens.c **** 
 379:Generated_Source\PSoC5/PWM_WaSens.c **** 
 380:Generated_Source\PSoC5/PWM_WaSens.c **** #if (!PWM_WaSens_UsingFixedFunction)
 381:Generated_Source\PSoC5/PWM_WaSens.c **** 
 382:Generated_Source\PSoC5/PWM_WaSens.c **** 
 383:Generated_Source\PSoC5/PWM_WaSens.c ****     /*******************************************************************************
 384:Generated_Source\PSoC5/PWM_WaSens.c ****     * Function Name: PWM_WaSens_WriteCounter
 385:Generated_Source\PSoC5/PWM_WaSens.c ****     ********************************************************************************
 386:Generated_Source\PSoC5/PWM_WaSens.c ****     *
 387:Generated_Source\PSoC5/PWM_WaSens.c ****     * Summary:
 388:Generated_Source\PSoC5/PWM_WaSens.c ****     *  Writes a new counter value directly to the counter register. This will be
 389:Generated_Source\PSoC5/PWM_WaSens.c ****     *  implemented for that currently running period and only that period. This API
 390:Generated_Source\PSoC5/PWM_WaSens.c ****     *  is valid only for UDB implementation and not available for fixed function
 391:Generated_Source\PSoC5/PWM_WaSens.c ****     *  PWM implementation.
 392:Generated_Source\PSoC5/PWM_WaSens.c ****     *
 393:Generated_Source\PSoC5/PWM_WaSens.c ****     * Parameters:
 394:Generated_Source\PSoC5/PWM_WaSens.c ****     *  counter:  The period new period counter value.
 395:Generated_Source\PSoC5/PWM_WaSens.c ****     *
ARM GAS  C:\Users\Lasse\AppData\Local\Temp\cckSATur.s 			page 9


 396:Generated_Source\PSoC5/PWM_WaSens.c ****     * Return:
 397:Generated_Source\PSoC5/PWM_WaSens.c ****     *  None
 398:Generated_Source\PSoC5/PWM_WaSens.c ****     *
 399:Generated_Source\PSoC5/PWM_WaSens.c ****     * Side Effects:
 400:Generated_Source\PSoC5/PWM_WaSens.c ****     *  The PWM Period will be reloaded when a counter value will be a zero
 401:Generated_Source\PSoC5/PWM_WaSens.c ****     *
 402:Generated_Source\PSoC5/PWM_WaSens.c ****     *******************************************************************************/
 403:Generated_Source\PSoC5/PWM_WaSens.c ****     void PWM_WaSens_WriteCounter(uint8 counter) \
 404:Generated_Source\PSoC5/PWM_WaSens.c ****                                        
 405:Generated_Source\PSoC5/PWM_WaSens.c ****     {
  62              		.loc 1 405 0
  63              		.cfi_startproc
  64              		@ args = 0, pretend = 0, frame = 0
  65              		@ frame_needed = 0, uses_anonymous_args = 0
  66              		@ link register save eliminated.
  67              	.LVL0:
 406:Generated_Source\PSoC5/PWM_WaSens.c ****         CY_SET_REG8(PWM_WaSens_COUNTER_LSB_PTR, counter);
  68              		.loc 1 406 0
  69 0000 014B     		ldr	r3, .L4
  70 0002 1870     		strb	r0, [r3]
  71 0004 7047     		bx	lr
  72              	.L5:
  73 0006 00BF     		.align	2
  74              	.L4:
  75 0008 06640040 		.word	1073767430
  76              		.cfi_endproc
  77              	.LFE4:
  78              		.size	PWM_WaSens_WriteCounter, .-PWM_WaSens_WriteCounter
  79              		.section	.text.PWM_WaSens_ReadCounter,"ax",%progbits
  80              		.align	2
  81              		.global	PWM_WaSens_ReadCounter
  82              		.thumb
  83              		.thumb_func
  84              		.type	PWM_WaSens_ReadCounter, %function
  85              	PWM_WaSens_ReadCounter:
  86              	.LFB5:
 407:Generated_Source\PSoC5/PWM_WaSens.c ****     }
 408:Generated_Source\PSoC5/PWM_WaSens.c **** 
 409:Generated_Source\PSoC5/PWM_WaSens.c **** 
 410:Generated_Source\PSoC5/PWM_WaSens.c ****     /*******************************************************************************
 411:Generated_Source\PSoC5/PWM_WaSens.c ****     * Function Name: PWM_WaSens_ReadCounter
 412:Generated_Source\PSoC5/PWM_WaSens.c ****     ********************************************************************************
 413:Generated_Source\PSoC5/PWM_WaSens.c ****     *
 414:Generated_Source\PSoC5/PWM_WaSens.c ****     * Summary:
 415:Generated_Source\PSoC5/PWM_WaSens.c ****     *  This function returns the current value of the counter.  It doesn't matter
 416:Generated_Source\PSoC5/PWM_WaSens.c ****     *  if the counter is enabled or running.
 417:Generated_Source\PSoC5/PWM_WaSens.c ****     *
 418:Generated_Source\PSoC5/PWM_WaSens.c ****     * Parameters:
 419:Generated_Source\PSoC5/PWM_WaSens.c ****     *  None
 420:Generated_Source\PSoC5/PWM_WaSens.c ****     *
 421:Generated_Source\PSoC5/PWM_WaSens.c ****     * Return:
 422:Generated_Source\PSoC5/PWM_WaSens.c ****     *  The current value of the counter.
 423:Generated_Source\PSoC5/PWM_WaSens.c ****     *
 424:Generated_Source\PSoC5/PWM_WaSens.c ****     *******************************************************************************/
 425:Generated_Source\PSoC5/PWM_WaSens.c ****     uint8 PWM_WaSens_ReadCounter(void) 
 426:Generated_Source\PSoC5/PWM_WaSens.c ****     {
  87              		.loc 1 426 0
ARM GAS  C:\Users\Lasse\AppData\Local\Temp\cckSATur.s 			page 10


  88              		.cfi_startproc
  89              		@ args = 0, pretend = 0, frame = 0
  90              		@ frame_needed = 0, uses_anonymous_args = 0
  91              		@ link register save eliminated.
 427:Generated_Source\PSoC5/PWM_WaSens.c ****         /* Force capture by reading Accumulator */
 428:Generated_Source\PSoC5/PWM_WaSens.c ****         /* Must first do a software capture to be able to read the counter */
 429:Generated_Source\PSoC5/PWM_WaSens.c ****         /* It is up to the user code to make sure there isn't already captured data in the FIFO */
 430:Generated_Source\PSoC5/PWM_WaSens.c ****           (void)CY_GET_REG8(PWM_WaSens_COUNTERCAP_LSB_PTR_8BIT);
  92              		.loc 1 430 0
  93 0000 024B     		ldr	r3, .L7
  94 0002 1B78     		ldrb	r3, [r3]	@ zero_extendqisi2
 431:Generated_Source\PSoC5/PWM_WaSens.c **** 
 432:Generated_Source\PSoC5/PWM_WaSens.c ****         /* Read the data from the FIFO */
 433:Generated_Source\PSoC5/PWM_WaSens.c ****         return (CY_GET_REG8(PWM_WaSens_CAPTURE_LSB_PTR));
  95              		.loc 1 433 0
  96 0004 024B     		ldr	r3, .L7+4
  97 0006 1878     		ldrb	r0, [r3]	@ zero_extendqisi2
 434:Generated_Source\PSoC5/PWM_WaSens.c ****     }
  98              		.loc 1 434 0
  99 0008 7047     		bx	lr
 100              	.L8:
 101 000a 00BF     		.align	2
 102              	.L7:
 103 000c 16640040 		.word	1073767446
 104 0010 56640040 		.word	1073767510
 105              		.cfi_endproc
 106              	.LFE5:
 107              		.size	PWM_WaSens_ReadCounter, .-PWM_WaSens_ReadCounter
 108              		.section	.text.PWM_WaSens_WritePeriod,"ax",%progbits
 109              		.align	2
 110              		.global	PWM_WaSens_WritePeriod
 111              		.thumb
 112              		.thumb_func
 113              		.type	PWM_WaSens_WritePeriod, %function
 114              	PWM_WaSens_WritePeriod:
 115              	.LFB7:
 435:Generated_Source\PSoC5/PWM_WaSens.c **** 
 436:Generated_Source\PSoC5/PWM_WaSens.c ****     #if (PWM_WaSens_UseStatus)
 437:Generated_Source\PSoC5/PWM_WaSens.c **** 
 438:Generated_Source\PSoC5/PWM_WaSens.c **** 
 439:Generated_Source\PSoC5/PWM_WaSens.c ****         /*******************************************************************************
 440:Generated_Source\PSoC5/PWM_WaSens.c ****         * Function Name: PWM_WaSens_ClearFIFO
 441:Generated_Source\PSoC5/PWM_WaSens.c ****         ********************************************************************************
 442:Generated_Source\PSoC5/PWM_WaSens.c ****         *
 443:Generated_Source\PSoC5/PWM_WaSens.c ****         * Summary:
 444:Generated_Source\PSoC5/PWM_WaSens.c ****         *  This function clears all capture data from the capture FIFO
 445:Generated_Source\PSoC5/PWM_WaSens.c ****         *
 446:Generated_Source\PSoC5/PWM_WaSens.c ****         * Parameters:
 447:Generated_Source\PSoC5/PWM_WaSens.c ****         *  None
 448:Generated_Source\PSoC5/PWM_WaSens.c ****         *
 449:Generated_Source\PSoC5/PWM_WaSens.c ****         * Return:
 450:Generated_Source\PSoC5/PWM_WaSens.c ****         *  None
 451:Generated_Source\PSoC5/PWM_WaSens.c ****         *
 452:Generated_Source\PSoC5/PWM_WaSens.c ****         *******************************************************************************/
 453:Generated_Source\PSoC5/PWM_WaSens.c ****         void PWM_WaSens_ClearFIFO(void) 
 454:Generated_Source\PSoC5/PWM_WaSens.c ****         {
 455:Generated_Source\PSoC5/PWM_WaSens.c ****             while(0u != (PWM_WaSens_ReadStatusRegister() & PWM_WaSens_STATUS_FIFONEMPTY))
ARM GAS  C:\Users\Lasse\AppData\Local\Temp\cckSATur.s 			page 11


 456:Generated_Source\PSoC5/PWM_WaSens.c ****             {
 457:Generated_Source\PSoC5/PWM_WaSens.c ****                 (void)PWM_WaSens_ReadCapture();
 458:Generated_Source\PSoC5/PWM_WaSens.c ****             }
 459:Generated_Source\PSoC5/PWM_WaSens.c ****         }
 460:Generated_Source\PSoC5/PWM_WaSens.c **** 
 461:Generated_Source\PSoC5/PWM_WaSens.c ****     #endif /* PWM_WaSens_UseStatus */
 462:Generated_Source\PSoC5/PWM_WaSens.c **** 
 463:Generated_Source\PSoC5/PWM_WaSens.c **** #endif /* !PWM_WaSens_UsingFixedFunction */
 464:Generated_Source\PSoC5/PWM_WaSens.c **** 
 465:Generated_Source\PSoC5/PWM_WaSens.c **** 
 466:Generated_Source\PSoC5/PWM_WaSens.c **** /*******************************************************************************
 467:Generated_Source\PSoC5/PWM_WaSens.c **** * Function Name: PWM_WaSens_WritePeriod
 468:Generated_Source\PSoC5/PWM_WaSens.c **** ********************************************************************************
 469:Generated_Source\PSoC5/PWM_WaSens.c **** *
 470:Generated_Source\PSoC5/PWM_WaSens.c **** * Summary:
 471:Generated_Source\PSoC5/PWM_WaSens.c **** *  This function is used to change the period of the counter.  The new period
 472:Generated_Source\PSoC5/PWM_WaSens.c **** *  will be loaded the next time terminal count is detected.
 473:Generated_Source\PSoC5/PWM_WaSens.c **** *
 474:Generated_Source\PSoC5/PWM_WaSens.c **** * Parameters:
 475:Generated_Source\PSoC5/PWM_WaSens.c **** *  period:  Period value. May be between 1 and (2^Resolution)-1.  A value of 0
 476:Generated_Source\PSoC5/PWM_WaSens.c **** *           will result in the counter remaining at zero.
 477:Generated_Source\PSoC5/PWM_WaSens.c **** *
 478:Generated_Source\PSoC5/PWM_WaSens.c **** * Return:
 479:Generated_Source\PSoC5/PWM_WaSens.c **** *  None
 480:Generated_Source\PSoC5/PWM_WaSens.c **** *
 481:Generated_Source\PSoC5/PWM_WaSens.c **** *******************************************************************************/
 482:Generated_Source\PSoC5/PWM_WaSens.c **** void PWM_WaSens_WritePeriod(uint8 period) 
 483:Generated_Source\PSoC5/PWM_WaSens.c **** {
 116              		.loc 1 483 0
 117              		.cfi_startproc
 118              		@ args = 0, pretend = 0, frame = 0
 119              		@ frame_needed = 0, uses_anonymous_args = 0
 120              		@ link register save eliminated.
 121              	.LVL1:
 484:Generated_Source\PSoC5/PWM_WaSens.c ****     #if(PWM_WaSens_UsingFixedFunction)
 485:Generated_Source\PSoC5/PWM_WaSens.c ****         CY_SET_REG16(PWM_WaSens_PERIOD_LSB_PTR, (uint16)period);
 486:Generated_Source\PSoC5/PWM_WaSens.c ****     #else
 487:Generated_Source\PSoC5/PWM_WaSens.c ****         CY_SET_REG8(PWM_WaSens_PERIOD_LSB_PTR, period);
 122              		.loc 1 487 0
 123 0000 014B     		ldr	r3, .L10
 124 0002 1870     		strb	r0, [r3]
 125 0004 7047     		bx	lr
 126              	.L11:
 127 0006 00BF     		.align	2
 128              	.L10:
 129 0008 46640040 		.word	1073767494
 130              		.cfi_endproc
 131              	.LFE7:
 132              		.size	PWM_WaSens_WritePeriod, .-PWM_WaSens_WritePeriod
 133              		.section	.text.PWM_WaSens_WriteCompare,"ax",%progbits
 134              		.align	2
 135              		.global	PWM_WaSens_WriteCompare
 136              		.thumb
 137              		.thumb_func
 138              		.type	PWM_WaSens_WriteCompare, %function
 139              	PWM_WaSens_WriteCompare:
 140              	.LFB8:
ARM GAS  C:\Users\Lasse\AppData\Local\Temp\cckSATur.s 			page 12


 488:Generated_Source\PSoC5/PWM_WaSens.c ****     #endif /* (PWM_WaSens_UsingFixedFunction) */
 489:Generated_Source\PSoC5/PWM_WaSens.c **** }
 490:Generated_Source\PSoC5/PWM_WaSens.c **** 
 491:Generated_Source\PSoC5/PWM_WaSens.c **** #if (PWM_WaSens_UseOneCompareMode)
 492:Generated_Source\PSoC5/PWM_WaSens.c **** 
 493:Generated_Source\PSoC5/PWM_WaSens.c **** 
 494:Generated_Source\PSoC5/PWM_WaSens.c ****     /*******************************************************************************
 495:Generated_Source\PSoC5/PWM_WaSens.c ****     * Function Name: PWM_WaSens_WriteCompare
 496:Generated_Source\PSoC5/PWM_WaSens.c ****     ********************************************************************************
 497:Generated_Source\PSoC5/PWM_WaSens.c ****     *
 498:Generated_Source\PSoC5/PWM_WaSens.c ****     * Summary:
 499:Generated_Source\PSoC5/PWM_WaSens.c ****     *  This funtion is used to change the compare1 value when the PWM is in Dither
 500:Generated_Source\PSoC5/PWM_WaSens.c ****     *  mode. The compare output will reflect the new value on the next UDB clock.
 501:Generated_Source\PSoC5/PWM_WaSens.c ****     *  The compare output will be driven high when the present counter value is
 502:Generated_Source\PSoC5/PWM_WaSens.c ****     *  compared to the compare value based on the compare mode defined in
 503:Generated_Source\PSoC5/PWM_WaSens.c ****     *  Dither Mode.
 504:Generated_Source\PSoC5/PWM_WaSens.c ****     *
 505:Generated_Source\PSoC5/PWM_WaSens.c ****     * Parameters:
 506:Generated_Source\PSoC5/PWM_WaSens.c ****     *  compare:  New compare value.
 507:Generated_Source\PSoC5/PWM_WaSens.c ****     *
 508:Generated_Source\PSoC5/PWM_WaSens.c ****     * Return:
 509:Generated_Source\PSoC5/PWM_WaSens.c ****     *  None
 510:Generated_Source\PSoC5/PWM_WaSens.c ****     *
 511:Generated_Source\PSoC5/PWM_WaSens.c ****     * Side Effects:
 512:Generated_Source\PSoC5/PWM_WaSens.c ****     *  This function is only available if the PWM mode parameter is set to
 513:Generated_Source\PSoC5/PWM_WaSens.c ****     *  Dither Mode, Center Aligned Mode or One Output Mode
 514:Generated_Source\PSoC5/PWM_WaSens.c ****     *
 515:Generated_Source\PSoC5/PWM_WaSens.c ****     *******************************************************************************/
 516:Generated_Source\PSoC5/PWM_WaSens.c ****     void PWM_WaSens_WriteCompare(uint8 compare) \
 517:Generated_Source\PSoC5/PWM_WaSens.c ****                                        
 518:Generated_Source\PSoC5/PWM_WaSens.c ****     {
 141              		.loc 1 518 0
 142              		.cfi_startproc
 143              		@ args = 0, pretend = 0, frame = 0
 144              		@ frame_needed = 0, uses_anonymous_args = 0
 145              		@ link register save eliminated.
 146              	.LVL2:
 519:Generated_Source\PSoC5/PWM_WaSens.c ****         #if(PWM_WaSens_UsingFixedFunction)
 520:Generated_Source\PSoC5/PWM_WaSens.c ****             CY_SET_REG16(PWM_WaSens_COMPARE1_LSB_PTR, (uint16)compare);
 521:Generated_Source\PSoC5/PWM_WaSens.c ****         #else
 522:Generated_Source\PSoC5/PWM_WaSens.c ****             CY_SET_REG8(PWM_WaSens_COMPARE1_LSB_PTR, compare);
 147              		.loc 1 522 0
 148 0000 014B     		ldr	r3, .L13
 149 0002 1870     		strb	r0, [r3]
 150 0004 7047     		bx	lr
 151              	.L14:
 152 0006 00BF     		.align	2
 153              	.L13:
 154 0008 26640040 		.word	1073767462
 155              		.cfi_endproc
 156              	.LFE8:
 157              		.size	PWM_WaSens_WriteCompare, .-PWM_WaSens_WriteCompare
 158              		.section	.text.PWM_WaSens_SetInterruptMode,"ax",%progbits
 159              		.align	2
 160              		.global	PWM_WaSens_SetInterruptMode
 161              		.thumb
 162              		.thumb_func
ARM GAS  C:\Users\Lasse\AppData\Local\Temp\cckSATur.s 			page 13


 163              		.type	PWM_WaSens_SetInterruptMode, %function
 164              	PWM_WaSens_SetInterruptMode:
 165              	.LFB9:
 523:Generated_Source\PSoC5/PWM_WaSens.c ****         #endif /* (PWM_WaSens_UsingFixedFunction) */
 524:Generated_Source\PSoC5/PWM_WaSens.c **** 
 525:Generated_Source\PSoC5/PWM_WaSens.c ****         #if (PWM_WaSens_PWMMode == PWM_WaSens__B_PWM__DITHER)
 526:Generated_Source\PSoC5/PWM_WaSens.c ****             #if(PWM_WaSens_UsingFixedFunction)
 527:Generated_Source\PSoC5/PWM_WaSens.c ****                 CY_SET_REG16(PWM_WaSens_COMPARE2_LSB_PTR, (uint16)(compare + 1u));
 528:Generated_Source\PSoC5/PWM_WaSens.c ****             #else
 529:Generated_Source\PSoC5/PWM_WaSens.c ****                 CY_SET_REG8(PWM_WaSens_COMPARE2_LSB_PTR, (compare + 1u));
 530:Generated_Source\PSoC5/PWM_WaSens.c ****             #endif /* (PWM_WaSens_UsingFixedFunction) */
 531:Generated_Source\PSoC5/PWM_WaSens.c ****         #endif /* (PWM_WaSens_PWMMode == PWM_WaSens__B_PWM__DITHER) */
 532:Generated_Source\PSoC5/PWM_WaSens.c ****     }
 533:Generated_Source\PSoC5/PWM_WaSens.c **** 
 534:Generated_Source\PSoC5/PWM_WaSens.c **** 
 535:Generated_Source\PSoC5/PWM_WaSens.c **** #else
 536:Generated_Source\PSoC5/PWM_WaSens.c **** 
 537:Generated_Source\PSoC5/PWM_WaSens.c **** 
 538:Generated_Source\PSoC5/PWM_WaSens.c ****     /*******************************************************************************
 539:Generated_Source\PSoC5/PWM_WaSens.c ****     * Function Name: PWM_WaSens_WriteCompare1
 540:Generated_Source\PSoC5/PWM_WaSens.c ****     ********************************************************************************
 541:Generated_Source\PSoC5/PWM_WaSens.c ****     *
 542:Generated_Source\PSoC5/PWM_WaSens.c ****     * Summary:
 543:Generated_Source\PSoC5/PWM_WaSens.c ****     *  This funtion is used to change the compare1 value.  The compare output will
 544:Generated_Source\PSoC5/PWM_WaSens.c ****     *  reflect the new value on the next UDB clock.  The compare output will be
 545:Generated_Source\PSoC5/PWM_WaSens.c ****     *  driven high when the present counter value is less than or less than or
 546:Generated_Source\PSoC5/PWM_WaSens.c ****     *  equal to the compare register, depending on the mode.
 547:Generated_Source\PSoC5/PWM_WaSens.c ****     *
 548:Generated_Source\PSoC5/PWM_WaSens.c ****     * Parameters:
 549:Generated_Source\PSoC5/PWM_WaSens.c ****     *  compare:  New compare value.
 550:Generated_Source\PSoC5/PWM_WaSens.c ****     *
 551:Generated_Source\PSoC5/PWM_WaSens.c ****     * Return:
 552:Generated_Source\PSoC5/PWM_WaSens.c ****     *  None
 553:Generated_Source\PSoC5/PWM_WaSens.c ****     *
 554:Generated_Source\PSoC5/PWM_WaSens.c ****     *******************************************************************************/
 555:Generated_Source\PSoC5/PWM_WaSens.c ****     void PWM_WaSens_WriteCompare1(uint8 compare) \
 556:Generated_Source\PSoC5/PWM_WaSens.c ****                                         
 557:Generated_Source\PSoC5/PWM_WaSens.c ****     {
 558:Generated_Source\PSoC5/PWM_WaSens.c ****         #if(PWM_WaSens_UsingFixedFunction)
 559:Generated_Source\PSoC5/PWM_WaSens.c ****             CY_SET_REG16(PWM_WaSens_COMPARE1_LSB_PTR, (uint16)compare);
 560:Generated_Source\PSoC5/PWM_WaSens.c ****         #else
 561:Generated_Source\PSoC5/PWM_WaSens.c ****             CY_SET_REG8(PWM_WaSens_COMPARE1_LSB_PTR, compare);
 562:Generated_Source\PSoC5/PWM_WaSens.c ****         #endif /* (PWM_WaSens_UsingFixedFunction) */
 563:Generated_Source\PSoC5/PWM_WaSens.c ****     }
 564:Generated_Source\PSoC5/PWM_WaSens.c **** 
 565:Generated_Source\PSoC5/PWM_WaSens.c **** 
 566:Generated_Source\PSoC5/PWM_WaSens.c ****     /*******************************************************************************
 567:Generated_Source\PSoC5/PWM_WaSens.c ****     * Function Name: PWM_WaSens_WriteCompare2
 568:Generated_Source\PSoC5/PWM_WaSens.c ****     ********************************************************************************
 569:Generated_Source\PSoC5/PWM_WaSens.c ****     *
 570:Generated_Source\PSoC5/PWM_WaSens.c ****     * Summary:
 571:Generated_Source\PSoC5/PWM_WaSens.c ****     *  This funtion is used to change the compare value, for compare1 output.
 572:Generated_Source\PSoC5/PWM_WaSens.c ****     *  The compare output will reflect the new value on the next UDB clock.
 573:Generated_Source\PSoC5/PWM_WaSens.c ****     *  The compare output will be driven high when the present counter value is
 574:Generated_Source\PSoC5/PWM_WaSens.c ****     *  less than or less than or equal to the compare register, depending on the
 575:Generated_Source\PSoC5/PWM_WaSens.c ****     *  mode.
 576:Generated_Source\PSoC5/PWM_WaSens.c ****     *
ARM GAS  C:\Users\Lasse\AppData\Local\Temp\cckSATur.s 			page 14


 577:Generated_Source\PSoC5/PWM_WaSens.c ****     * Parameters:
 578:Generated_Source\PSoC5/PWM_WaSens.c ****     *  compare:  New compare value.
 579:Generated_Source\PSoC5/PWM_WaSens.c ****     *
 580:Generated_Source\PSoC5/PWM_WaSens.c ****     * Return:
 581:Generated_Source\PSoC5/PWM_WaSens.c ****     *  None
 582:Generated_Source\PSoC5/PWM_WaSens.c ****     *
 583:Generated_Source\PSoC5/PWM_WaSens.c ****     *******************************************************************************/
 584:Generated_Source\PSoC5/PWM_WaSens.c ****     void PWM_WaSens_WriteCompare2(uint8 compare) \
 585:Generated_Source\PSoC5/PWM_WaSens.c ****                                         
 586:Generated_Source\PSoC5/PWM_WaSens.c ****     {
 587:Generated_Source\PSoC5/PWM_WaSens.c ****         #if(PWM_WaSens_UsingFixedFunction)
 588:Generated_Source\PSoC5/PWM_WaSens.c ****             CY_SET_REG16(PWM_WaSens_COMPARE2_LSB_PTR, compare);
 589:Generated_Source\PSoC5/PWM_WaSens.c ****         #else
 590:Generated_Source\PSoC5/PWM_WaSens.c ****             CY_SET_REG8(PWM_WaSens_COMPARE2_LSB_PTR, compare);
 591:Generated_Source\PSoC5/PWM_WaSens.c ****         #endif /* (PWM_WaSens_UsingFixedFunction) */
 592:Generated_Source\PSoC5/PWM_WaSens.c ****     }
 593:Generated_Source\PSoC5/PWM_WaSens.c **** #endif /* UseOneCompareMode */
 594:Generated_Source\PSoC5/PWM_WaSens.c **** 
 595:Generated_Source\PSoC5/PWM_WaSens.c **** #if (PWM_WaSens_DeadBandUsed)
 596:Generated_Source\PSoC5/PWM_WaSens.c **** 
 597:Generated_Source\PSoC5/PWM_WaSens.c **** 
 598:Generated_Source\PSoC5/PWM_WaSens.c ****     /*******************************************************************************
 599:Generated_Source\PSoC5/PWM_WaSens.c ****     * Function Name: PWM_WaSens_WriteDeadTime
 600:Generated_Source\PSoC5/PWM_WaSens.c ****     ********************************************************************************
 601:Generated_Source\PSoC5/PWM_WaSens.c ****     *
 602:Generated_Source\PSoC5/PWM_WaSens.c ****     * Summary:
 603:Generated_Source\PSoC5/PWM_WaSens.c ****     *  This function writes the dead-band counts to the corresponding register
 604:Generated_Source\PSoC5/PWM_WaSens.c ****     *
 605:Generated_Source\PSoC5/PWM_WaSens.c ****     * Parameters:
 606:Generated_Source\PSoC5/PWM_WaSens.c ****     *  deadtime:  Number of counts for dead time
 607:Generated_Source\PSoC5/PWM_WaSens.c ****     *
 608:Generated_Source\PSoC5/PWM_WaSens.c ****     * Return:
 609:Generated_Source\PSoC5/PWM_WaSens.c ****     *  None
 610:Generated_Source\PSoC5/PWM_WaSens.c ****     *
 611:Generated_Source\PSoC5/PWM_WaSens.c ****     *******************************************************************************/
 612:Generated_Source\PSoC5/PWM_WaSens.c ****     void PWM_WaSens_WriteDeadTime(uint8 deadtime) 
 613:Generated_Source\PSoC5/PWM_WaSens.c ****     {
 614:Generated_Source\PSoC5/PWM_WaSens.c ****         /* If using the Dead Band 1-255 mode then just write the register */
 615:Generated_Source\PSoC5/PWM_WaSens.c ****         #if(!PWM_WaSens_DeadBand2_4)
 616:Generated_Source\PSoC5/PWM_WaSens.c ****             CY_SET_REG8(PWM_WaSens_DEADBAND_COUNT_PTR, deadtime);
 617:Generated_Source\PSoC5/PWM_WaSens.c ****         #else
 618:Generated_Source\PSoC5/PWM_WaSens.c ****             /* Otherwise the data has to be masked and offset */
 619:Generated_Source\PSoC5/PWM_WaSens.c ****             /* Clear existing data */
 620:Generated_Source\PSoC5/PWM_WaSens.c ****             PWM_WaSens_DEADBAND_COUNT &= ((uint8)(~PWM_WaSens_DEADBAND_COUNT_MASK));
 621:Generated_Source\PSoC5/PWM_WaSens.c **** 
 622:Generated_Source\PSoC5/PWM_WaSens.c ****             /* Set new dead time */
 623:Generated_Source\PSoC5/PWM_WaSens.c ****             #if(PWM_WaSens_DEADBAND_COUNT_SHIFT)
 624:Generated_Source\PSoC5/PWM_WaSens.c ****                 PWM_WaSens_DEADBAND_COUNT |= ((uint8)((uint8)deadtime << PWM_WaSens_DEADBAND_COUNT_
 625:Generated_Source\PSoC5/PWM_WaSens.c ****                                                     PWM_WaSens_DEADBAND_COUNT_MASK;
 626:Generated_Source\PSoC5/PWM_WaSens.c ****             #else
 627:Generated_Source\PSoC5/PWM_WaSens.c ****                 PWM_WaSens_DEADBAND_COUNT |= deadtime & PWM_WaSens_DEADBAND_COUNT_MASK;
 628:Generated_Source\PSoC5/PWM_WaSens.c ****             #endif /* (PWM_WaSens_DEADBAND_COUNT_SHIFT) */
 629:Generated_Source\PSoC5/PWM_WaSens.c **** 
 630:Generated_Source\PSoC5/PWM_WaSens.c ****         #endif /* (!PWM_WaSens_DeadBand2_4) */
 631:Generated_Source\PSoC5/PWM_WaSens.c ****     }
 632:Generated_Source\PSoC5/PWM_WaSens.c **** 
 633:Generated_Source\PSoC5/PWM_WaSens.c **** 
ARM GAS  C:\Users\Lasse\AppData\Local\Temp\cckSATur.s 			page 15


 634:Generated_Source\PSoC5/PWM_WaSens.c ****     /*******************************************************************************
 635:Generated_Source\PSoC5/PWM_WaSens.c ****     * Function Name: PWM_WaSens_ReadDeadTime
 636:Generated_Source\PSoC5/PWM_WaSens.c ****     ********************************************************************************
 637:Generated_Source\PSoC5/PWM_WaSens.c ****     *
 638:Generated_Source\PSoC5/PWM_WaSens.c ****     * Summary:
 639:Generated_Source\PSoC5/PWM_WaSens.c ****     *  This function reads the dead-band counts from the corresponding register
 640:Generated_Source\PSoC5/PWM_WaSens.c ****     *
 641:Generated_Source\PSoC5/PWM_WaSens.c ****     * Parameters:
 642:Generated_Source\PSoC5/PWM_WaSens.c ****     *  None
 643:Generated_Source\PSoC5/PWM_WaSens.c ****     *
 644:Generated_Source\PSoC5/PWM_WaSens.c ****     * Return:
 645:Generated_Source\PSoC5/PWM_WaSens.c ****     *  Dead Band Counts
 646:Generated_Source\PSoC5/PWM_WaSens.c ****     *
 647:Generated_Source\PSoC5/PWM_WaSens.c ****     *******************************************************************************/
 648:Generated_Source\PSoC5/PWM_WaSens.c ****     uint8 PWM_WaSens_ReadDeadTime(void) 
 649:Generated_Source\PSoC5/PWM_WaSens.c ****     {
 650:Generated_Source\PSoC5/PWM_WaSens.c ****         /* If using the Dead Band 1-255 mode then just read the register */
 651:Generated_Source\PSoC5/PWM_WaSens.c ****         #if(!PWM_WaSens_DeadBand2_4)
 652:Generated_Source\PSoC5/PWM_WaSens.c ****             return (CY_GET_REG8(PWM_WaSens_DEADBAND_COUNT_PTR));
 653:Generated_Source\PSoC5/PWM_WaSens.c ****         #else
 654:Generated_Source\PSoC5/PWM_WaSens.c **** 
 655:Generated_Source\PSoC5/PWM_WaSens.c ****             /* Otherwise the data has to be masked and offset */
 656:Generated_Source\PSoC5/PWM_WaSens.c ****             #if(PWM_WaSens_DEADBAND_COUNT_SHIFT)
 657:Generated_Source\PSoC5/PWM_WaSens.c ****                 return ((uint8)(((uint8)(PWM_WaSens_DEADBAND_COUNT & PWM_WaSens_DEADBAND_COUNT_MASK
 658:Generated_Source\PSoC5/PWM_WaSens.c ****                                                                            PWM_WaSens_DEADBAND_COUN
 659:Generated_Source\PSoC5/PWM_WaSens.c ****             #else
 660:Generated_Source\PSoC5/PWM_WaSens.c ****                 return (PWM_WaSens_DEADBAND_COUNT & PWM_WaSens_DEADBAND_COUNT_MASK);
 661:Generated_Source\PSoC5/PWM_WaSens.c ****             #endif /* (PWM_WaSens_DEADBAND_COUNT_SHIFT) */
 662:Generated_Source\PSoC5/PWM_WaSens.c ****         #endif /* (!PWM_WaSens_DeadBand2_4) */
 663:Generated_Source\PSoC5/PWM_WaSens.c ****     }
 664:Generated_Source\PSoC5/PWM_WaSens.c **** #endif /* DeadBandUsed */
 665:Generated_Source\PSoC5/PWM_WaSens.c **** 
 666:Generated_Source\PSoC5/PWM_WaSens.c **** #if (PWM_WaSens_UseStatus || PWM_WaSens_UsingFixedFunction)
 667:Generated_Source\PSoC5/PWM_WaSens.c **** 
 668:Generated_Source\PSoC5/PWM_WaSens.c **** 
 669:Generated_Source\PSoC5/PWM_WaSens.c ****     /*******************************************************************************
 670:Generated_Source\PSoC5/PWM_WaSens.c ****     * Function Name: PWM_WaSens_SetInterruptMode
 671:Generated_Source\PSoC5/PWM_WaSens.c ****     ********************************************************************************
 672:Generated_Source\PSoC5/PWM_WaSens.c ****     *
 673:Generated_Source\PSoC5/PWM_WaSens.c ****     * Summary:
 674:Generated_Source\PSoC5/PWM_WaSens.c ****     *  This function configures the interrupts mask control of theinterrupt
 675:Generated_Source\PSoC5/PWM_WaSens.c ****     *  source status register.
 676:Generated_Source\PSoC5/PWM_WaSens.c ****     *
 677:Generated_Source\PSoC5/PWM_WaSens.c ****     * Parameters:
 678:Generated_Source\PSoC5/PWM_WaSens.c ****     *  uint8 interruptMode: Bit field containing the interrupt sources enabled
 679:Generated_Source\PSoC5/PWM_WaSens.c ****     *
 680:Generated_Source\PSoC5/PWM_WaSens.c ****     * Return:
 681:Generated_Source\PSoC5/PWM_WaSens.c ****     *  None
 682:Generated_Source\PSoC5/PWM_WaSens.c ****     *
 683:Generated_Source\PSoC5/PWM_WaSens.c ****     *******************************************************************************/
 684:Generated_Source\PSoC5/PWM_WaSens.c ****     void PWM_WaSens_SetInterruptMode(uint8 interruptMode) 
 685:Generated_Source\PSoC5/PWM_WaSens.c ****     {
 166              		.loc 1 685 0
 167              		.cfi_startproc
 168              		@ args = 0, pretend = 0, frame = 0
 169              		@ frame_needed = 0, uses_anonymous_args = 0
 170              		@ link register save eliminated.
ARM GAS  C:\Users\Lasse\AppData\Local\Temp\cckSATur.s 			page 16


 171              	.LVL3:
 686:Generated_Source\PSoC5/PWM_WaSens.c ****         CY_SET_REG8(PWM_WaSens_STATUS_MASK_PTR, interruptMode);
 172              		.loc 1 686 0
 173 0000 014B     		ldr	r3, .L16
 174 0002 1870     		strb	r0, [r3]
 175 0004 7047     		bx	lr
 176              	.L17:
 177 0006 00BF     		.align	2
 178              	.L16:
 179 0008 86640040 		.word	1073767558
 180              		.cfi_endproc
 181              	.LFE9:
 182              		.size	PWM_WaSens_SetInterruptMode, .-PWM_WaSens_SetInterruptMode
 183              		.section	.text.PWM_WaSens_ReadStatusRegister,"ax",%progbits
 184              		.align	2
 185              		.global	PWM_WaSens_ReadStatusRegister
 186              		.thumb
 187              		.thumb_func
 188              		.type	PWM_WaSens_ReadStatusRegister, %function
 189              	PWM_WaSens_ReadStatusRegister:
 190              	.LFB10:
 687:Generated_Source\PSoC5/PWM_WaSens.c ****     }
 688:Generated_Source\PSoC5/PWM_WaSens.c **** 
 689:Generated_Source\PSoC5/PWM_WaSens.c **** 
 690:Generated_Source\PSoC5/PWM_WaSens.c ****     /*******************************************************************************
 691:Generated_Source\PSoC5/PWM_WaSens.c ****     * Function Name: PWM_WaSens_ReadStatusRegister
 692:Generated_Source\PSoC5/PWM_WaSens.c ****     ********************************************************************************
 693:Generated_Source\PSoC5/PWM_WaSens.c ****     *
 694:Generated_Source\PSoC5/PWM_WaSens.c ****     * Summary:
 695:Generated_Source\PSoC5/PWM_WaSens.c ****     *  This function returns the current state of the status register.
 696:Generated_Source\PSoC5/PWM_WaSens.c ****     *
 697:Generated_Source\PSoC5/PWM_WaSens.c ****     * Parameters:
 698:Generated_Source\PSoC5/PWM_WaSens.c ****     *  None
 699:Generated_Source\PSoC5/PWM_WaSens.c ****     *
 700:Generated_Source\PSoC5/PWM_WaSens.c ****     * Return:
 701:Generated_Source\PSoC5/PWM_WaSens.c ****     *  uint8 : Current status register value. The status register bits are:
 702:Generated_Source\PSoC5/PWM_WaSens.c ****     *  [7:6] : Unused(0)
 703:Generated_Source\PSoC5/PWM_WaSens.c ****     *  [5]   : Kill event output
 704:Generated_Source\PSoC5/PWM_WaSens.c ****     *  [4]   : FIFO not empty
 705:Generated_Source\PSoC5/PWM_WaSens.c ****     *  [3]   : FIFO full
 706:Generated_Source\PSoC5/PWM_WaSens.c ****     *  [2]   : Terminal count
 707:Generated_Source\PSoC5/PWM_WaSens.c ****     *  [1]   : Compare output 2
 708:Generated_Source\PSoC5/PWM_WaSens.c ****     *  [0]   : Compare output 1
 709:Generated_Source\PSoC5/PWM_WaSens.c ****     *
 710:Generated_Source\PSoC5/PWM_WaSens.c ****     *******************************************************************************/
 711:Generated_Source\PSoC5/PWM_WaSens.c ****     uint8 PWM_WaSens_ReadStatusRegister(void) 
 712:Generated_Source\PSoC5/PWM_WaSens.c ****     {
 191              		.loc 1 712 0
 192              		.cfi_startproc
 193              		@ args = 0, pretend = 0, frame = 0
 194              		@ frame_needed = 0, uses_anonymous_args = 0
 195              		@ link register save eliminated.
 713:Generated_Source\PSoC5/PWM_WaSens.c ****         return (CY_GET_REG8(PWM_WaSens_STATUS_PTR));
 196              		.loc 1 713 0
 197 0000 014B     		ldr	r3, .L19
 198 0002 1878     		ldrb	r0, [r3]	@ zero_extendqisi2
 714:Generated_Source\PSoC5/PWM_WaSens.c ****     }
ARM GAS  C:\Users\Lasse\AppData\Local\Temp\cckSATur.s 			page 17


 199              		.loc 1 714 0
 200 0004 7047     		bx	lr
 201              	.L20:
 202 0006 00BF     		.align	2
 203              	.L19:
 204 0008 66640040 		.word	1073767526
 205              		.cfi_endproc
 206              	.LFE10:
 207              		.size	PWM_WaSens_ReadStatusRegister, .-PWM_WaSens_ReadStatusRegister
 208              		.section	.text.PWM_WaSens_ReadCapture,"ax",%progbits
 209              		.align	2
 210              		.global	PWM_WaSens_ReadCapture
 211              		.thumb
 212              		.thumb_func
 213              		.type	PWM_WaSens_ReadCapture, %function
 214              	PWM_WaSens_ReadCapture:
 215              	.LFB11:
 715:Generated_Source\PSoC5/PWM_WaSens.c **** 
 716:Generated_Source\PSoC5/PWM_WaSens.c **** #endif /* (PWM_WaSens_UseStatus || PWM_WaSens_UsingFixedFunction) */
 717:Generated_Source\PSoC5/PWM_WaSens.c **** 
 718:Generated_Source\PSoC5/PWM_WaSens.c **** 
 719:Generated_Source\PSoC5/PWM_WaSens.c **** #if (PWM_WaSens_UseControl)
 720:Generated_Source\PSoC5/PWM_WaSens.c **** 
 721:Generated_Source\PSoC5/PWM_WaSens.c **** 
 722:Generated_Source\PSoC5/PWM_WaSens.c ****     /*******************************************************************************
 723:Generated_Source\PSoC5/PWM_WaSens.c ****     * Function Name: PWM_WaSens_ReadControlRegister
 724:Generated_Source\PSoC5/PWM_WaSens.c ****     ********************************************************************************
 725:Generated_Source\PSoC5/PWM_WaSens.c ****     *
 726:Generated_Source\PSoC5/PWM_WaSens.c ****     * Summary:
 727:Generated_Source\PSoC5/PWM_WaSens.c ****     *  Returns the current state of the control register. This API is available
 728:Generated_Source\PSoC5/PWM_WaSens.c ****     *  only if the control register is not removed.
 729:Generated_Source\PSoC5/PWM_WaSens.c ****     *
 730:Generated_Source\PSoC5/PWM_WaSens.c ****     * Parameters:
 731:Generated_Source\PSoC5/PWM_WaSens.c ****     *  None
 732:Generated_Source\PSoC5/PWM_WaSens.c ****     *
 733:Generated_Source\PSoC5/PWM_WaSens.c ****     * Return:
 734:Generated_Source\PSoC5/PWM_WaSens.c ****     *  uint8 : Current control register value
 735:Generated_Source\PSoC5/PWM_WaSens.c ****     *
 736:Generated_Source\PSoC5/PWM_WaSens.c ****     *******************************************************************************/
 737:Generated_Source\PSoC5/PWM_WaSens.c ****     uint8 PWM_WaSens_ReadControlRegister(void) 
 738:Generated_Source\PSoC5/PWM_WaSens.c ****     {
 739:Generated_Source\PSoC5/PWM_WaSens.c ****         uint8 result;
 740:Generated_Source\PSoC5/PWM_WaSens.c **** 
 741:Generated_Source\PSoC5/PWM_WaSens.c ****         result = CY_GET_REG8(PWM_WaSens_CONTROL_PTR);
 742:Generated_Source\PSoC5/PWM_WaSens.c ****         return (result);
 743:Generated_Source\PSoC5/PWM_WaSens.c ****     }
 744:Generated_Source\PSoC5/PWM_WaSens.c **** 
 745:Generated_Source\PSoC5/PWM_WaSens.c **** 
 746:Generated_Source\PSoC5/PWM_WaSens.c ****     /*******************************************************************************
 747:Generated_Source\PSoC5/PWM_WaSens.c ****     * Function Name: PWM_WaSens_WriteControlRegister
 748:Generated_Source\PSoC5/PWM_WaSens.c ****     ********************************************************************************
 749:Generated_Source\PSoC5/PWM_WaSens.c ****     *
 750:Generated_Source\PSoC5/PWM_WaSens.c ****     * Summary:
 751:Generated_Source\PSoC5/PWM_WaSens.c ****     *  Sets the bit field of the control register. This API is available only if
 752:Generated_Source\PSoC5/PWM_WaSens.c ****     *  the control register is not removed.
 753:Generated_Source\PSoC5/PWM_WaSens.c ****     *
 754:Generated_Source\PSoC5/PWM_WaSens.c ****     * Parameters:
ARM GAS  C:\Users\Lasse\AppData\Local\Temp\cckSATur.s 			page 18


 755:Generated_Source\PSoC5/PWM_WaSens.c ****     *  uint8 control: Control register bit field, The status register bits are:
 756:Generated_Source\PSoC5/PWM_WaSens.c ****     *  [7]   : PWM Enable
 757:Generated_Source\PSoC5/PWM_WaSens.c ****     *  [6]   : Reset
 758:Generated_Source\PSoC5/PWM_WaSens.c ****     *  [5:3] : Compare Mode2
 759:Generated_Source\PSoC5/PWM_WaSens.c ****     *  [2:0] : Compare Mode2
 760:Generated_Source\PSoC5/PWM_WaSens.c ****     *
 761:Generated_Source\PSoC5/PWM_WaSens.c ****     * Return:
 762:Generated_Source\PSoC5/PWM_WaSens.c ****     *  None
 763:Generated_Source\PSoC5/PWM_WaSens.c ****     *
 764:Generated_Source\PSoC5/PWM_WaSens.c ****     *******************************************************************************/
 765:Generated_Source\PSoC5/PWM_WaSens.c ****     void PWM_WaSens_WriteControlRegister(uint8 control) 
 766:Generated_Source\PSoC5/PWM_WaSens.c ****     {
 767:Generated_Source\PSoC5/PWM_WaSens.c ****         CY_SET_REG8(PWM_WaSens_CONTROL_PTR, control);
 768:Generated_Source\PSoC5/PWM_WaSens.c ****     }
 769:Generated_Source\PSoC5/PWM_WaSens.c **** 
 770:Generated_Source\PSoC5/PWM_WaSens.c **** #endif /* (PWM_WaSens_UseControl) */
 771:Generated_Source\PSoC5/PWM_WaSens.c **** 
 772:Generated_Source\PSoC5/PWM_WaSens.c **** 
 773:Generated_Source\PSoC5/PWM_WaSens.c **** #if (!PWM_WaSens_UsingFixedFunction)
 774:Generated_Source\PSoC5/PWM_WaSens.c **** 
 775:Generated_Source\PSoC5/PWM_WaSens.c **** 
 776:Generated_Source\PSoC5/PWM_WaSens.c ****     /*******************************************************************************
 777:Generated_Source\PSoC5/PWM_WaSens.c ****     * Function Name: PWM_WaSens_ReadCapture
 778:Generated_Source\PSoC5/PWM_WaSens.c ****     ********************************************************************************
 779:Generated_Source\PSoC5/PWM_WaSens.c ****     *
 780:Generated_Source\PSoC5/PWM_WaSens.c ****     * Summary:
 781:Generated_Source\PSoC5/PWM_WaSens.c ****     *  Reads the capture value from the capture FIFO.
 782:Generated_Source\PSoC5/PWM_WaSens.c ****     *
 783:Generated_Source\PSoC5/PWM_WaSens.c ****     * Parameters:
 784:Generated_Source\PSoC5/PWM_WaSens.c ****     *  None
 785:Generated_Source\PSoC5/PWM_WaSens.c ****     *
 786:Generated_Source\PSoC5/PWM_WaSens.c ****     * Return:
 787:Generated_Source\PSoC5/PWM_WaSens.c ****     *  uint8/uint16: The current capture value
 788:Generated_Source\PSoC5/PWM_WaSens.c ****     *
 789:Generated_Source\PSoC5/PWM_WaSens.c ****     *******************************************************************************/
 790:Generated_Source\PSoC5/PWM_WaSens.c ****     uint8 PWM_WaSens_ReadCapture(void) 
 791:Generated_Source\PSoC5/PWM_WaSens.c ****     {
 216              		.loc 1 791 0
 217              		.cfi_startproc
 218              		@ args = 0, pretend = 0, frame = 0
 219              		@ frame_needed = 0, uses_anonymous_args = 0
 220              		@ link register save eliminated.
 792:Generated_Source\PSoC5/PWM_WaSens.c ****         return (CY_GET_REG8(PWM_WaSens_CAPTURE_LSB_PTR));
 221              		.loc 1 792 0
 222 0000 014B     		ldr	r3, .L22
 223 0002 1878     		ldrb	r0, [r3]	@ zero_extendqisi2
 793:Generated_Source\PSoC5/PWM_WaSens.c ****     }
 224              		.loc 1 793 0
 225 0004 7047     		bx	lr
 226              	.L23:
 227 0006 00BF     		.align	2
 228              	.L22:
 229 0008 56640040 		.word	1073767510
 230              		.cfi_endproc
 231              	.LFE11:
 232              		.size	PWM_WaSens_ReadCapture, .-PWM_WaSens_ReadCapture
 233              		.section	.text.PWM_WaSens_ClearFIFO,"ax",%progbits
ARM GAS  C:\Users\Lasse\AppData\Local\Temp\cckSATur.s 			page 19


 234              		.align	2
 235              		.global	PWM_WaSens_ClearFIFO
 236              		.thumb
 237              		.thumb_func
 238              		.type	PWM_WaSens_ClearFIFO, %function
 239              	PWM_WaSens_ClearFIFO:
 240              	.LFB6:
 454:Generated_Source\PSoC5/PWM_WaSens.c ****             while(0u != (PWM_WaSens_ReadStatusRegister() & PWM_WaSens_STATUS_FIFONEMPTY))
 241              		.loc 1 454 0
 242              		.cfi_startproc
 243              		@ args = 0, pretend = 0, frame = 0
 244              		@ frame_needed = 0, uses_anonymous_args = 0
 245 0000 08B5     		push	{r3, lr}
 246              		.cfi_def_cfa_offset 8
 247              		.cfi_offset 3, -8
 248              		.cfi_offset 14, -4
 455:Generated_Source\PSoC5/PWM_WaSens.c ****             {
 249              		.loc 1 455 0
 250 0002 01E0     		b	.L25
 251              	.L26:
 457:Generated_Source\PSoC5/PWM_WaSens.c ****             }
 252              		.loc 1 457 0
 253 0004 FFF7FEFF 		bl	PWM_WaSens_ReadCapture
 254              	.LVL4:
 255              	.L25:
 455:Generated_Source\PSoC5/PWM_WaSens.c ****             {
 256              		.loc 1 455 0
 257 0008 FFF7FEFF 		bl	PWM_WaSens_ReadStatusRegister
 258              	.LVL5:
 259 000c 10F0100F 		tst	r0, #16
 260 0010 F8D1     		bne	.L26
 459:Generated_Source\PSoC5/PWM_WaSens.c **** 
 261              		.loc 1 459 0
 262 0012 08BD     		pop	{r3, pc}
 263              		.cfi_endproc
 264              	.LFE6:
 265              		.size	PWM_WaSens_ClearFIFO, .-PWM_WaSens_ClearFIFO
 266              		.section	.text.PWM_WaSens_Init,"ax",%progbits
 267              		.align	2
 268              		.global	PWM_WaSens_Init
 269              		.thumb
 270              		.thumb_func
 271              		.type	PWM_WaSens_Init, %function
 272              	PWM_WaSens_Init:
 273              	.LFB1:
  85:Generated_Source\PSoC5/PWM_WaSens.c ****     #if (PWM_WaSens_UsingFixedFunction || PWM_WaSens_UseControl)
 274              		.loc 1 85 0
 275              		.cfi_startproc
 276              		@ args = 0, pretend = 0, frame = 0
 277              		@ frame_needed = 0, uses_anonymous_args = 0
 278 0000 10B5     		push	{r4, lr}
 279              		.cfi_def_cfa_offset 8
 280              		.cfi_offset 4, -8
 281              		.cfi_offset 14, -4
 126:Generated_Source\PSoC5/PWM_WaSens.c ****         #else /* (PWM_WaSens_Resolution == 16)*/
 282              		.loc 1 126 0
 283 0002 0E4C     		ldr	r4, .L30
ARM GAS  C:\Users\Lasse\AppData\Local\Temp\cckSATur.s 			page 20


 284 0004 2378     		ldrb	r3, [r4]	@ zero_extendqisi2
 285 0006 43F00103 		orr	r3, r3, #1
 286 000a 2370     		strb	r3, [r4]
 133:Generated_Source\PSoC5/PWM_WaSens.c ****     #endif /* (!PWM_WaSens_UsingFixedFunction) */
 287              		.loc 1 133 0
 288 000c 7D20     		movs	r0, #125
 289 000e FFF7FEFF 		bl	PWM_WaSens_WriteCounter
 290              	.LVL6:
 136:Generated_Source\PSoC5/PWM_WaSens.c **** 
 291              		.loc 1 136 0
 292 0012 7D20     		movs	r0, #125
 293 0014 FFF7FEFF 		bl	PWM_WaSens_WritePeriod
 294              	.LVL7:
 139:Generated_Source\PSoC5/PWM_WaSens.c ****         #else
 295              		.loc 1 139 0
 296 0018 3E20     		movs	r0, #62
 297 001a FFF7FEFF 		bl	PWM_WaSens_WriteCompare
 298              	.LVL8:
 154:Generated_Source\PSoC5/PWM_WaSens.c ****     #endif /* (PWM_WaSens_UseStatus || PWM_WaSens_UsingFixedFunction) */
 299              		.loc 1 154 0
 300 001e 0020     		movs	r0, #0
 301 0020 FFF7FEFF 		bl	PWM_WaSens_SetInterruptMode
 302              	.LVL9:
 167:Generated_Source\PSoC5/PWM_WaSens.c ****             /* Use the interrupt output of the status register for IRQ output */
 303              		.loc 1 167 0
 304 0024 FFF7FEFF 		bl	CyEnterCriticalSection
 305              	.LVL10:
 169:Generated_Source\PSoC5/PWM_WaSens.c **** 
 306              		.loc 1 169 0
 307 0028 2378     		ldrb	r3, [r4]	@ zero_extendqisi2
 308 002a 43F01003 		orr	r3, r3, #16
 309 002e 2370     		strb	r3, [r4]
 172:Generated_Source\PSoC5/PWM_WaSens.c **** 
 310              		.loc 1 172 0
 311 0030 FFF7FEFF 		bl	CyExitCriticalSection
 312              	.LVL11:
 176:Generated_Source\PSoC5/PWM_WaSens.c ****         #endif /* (PWM_WaSens_UseStatus) */
 313              		.loc 1 176 0
 314 0034 FFF7FEFF 		bl	PWM_WaSens_ClearFIFO
 315              	.LVL12:
 316 0038 10BD     		pop	{r4, pc}
 317              	.L31:
 318 003a 00BF     		.align	2
 319              	.L30:
 320 003c 96640040 		.word	1073767574
 321              		.cfi_endproc
 322              	.LFE1:
 323              		.size	PWM_WaSens_Init, .-PWM_WaSens_Init
 324              		.section	.text.PWM_WaSens_Start,"ax",%progbits
 325              		.align	2
 326              		.global	PWM_WaSens_Start
 327              		.thumb
 328              		.thumb_func
 329              		.type	PWM_WaSens_Start, %function
 330              	PWM_WaSens_Start:
 331              	.LFB0:
  56:Generated_Source\PSoC5/PWM_WaSens.c ****     /* If not Initialized then initialize all required hardware and software */
ARM GAS  C:\Users\Lasse\AppData\Local\Temp\cckSATur.s 			page 21


 332              		.loc 1 56 0
 333              		.cfi_startproc
 334              		@ args = 0, pretend = 0, frame = 0
 335              		@ frame_needed = 0, uses_anonymous_args = 0
 336 0000 08B5     		push	{r3, lr}
 337              		.cfi_def_cfa_offset 8
 338              		.cfi_offset 3, -8
 339              		.cfi_offset 14, -4
  58:Generated_Source\PSoC5/PWM_WaSens.c ****     {
 340              		.loc 1 58 0
 341 0002 044B     		ldr	r3, .L35
 342 0004 1B78     		ldrb	r3, [r3]	@ zero_extendqisi2
 343 0006 23B9     		cbnz	r3, .L32
  60:Generated_Source\PSoC5/PWM_WaSens.c ****         PWM_WaSens_initVar = 1u;
 344              		.loc 1 60 0
 345 0008 FFF7FEFF 		bl	PWM_WaSens_Init
 346              	.LVL13:
  61:Generated_Source\PSoC5/PWM_WaSens.c ****     }
 347              		.loc 1 61 0
 348 000c 0122     		movs	r2, #1
 349 000e 014B     		ldr	r3, .L35
 350 0010 1A70     		strb	r2, [r3]
 351              	.L32:
 352 0012 08BD     		pop	{r3, pc}
 353              	.L36:
 354              		.align	2
 355              	.L35:
 356 0014 00000000 		.word	.LANCHOR0
 357              		.cfi_endproc
 358              	.LFE0:
 359              		.size	PWM_WaSens_Start, .-PWM_WaSens_Start
 360              		.section	.text.PWM_WaSens_ReadCompare,"ax",%progbits
 361              		.align	2
 362              		.global	PWM_WaSens_ReadCompare
 363              		.thumb
 364              		.thumb_func
 365              		.type	PWM_WaSens_ReadCompare, %function
 366              	PWM_WaSens_ReadCompare:
 367              	.LFB12:
 794:Generated_Source\PSoC5/PWM_WaSens.c **** 
 795:Generated_Source\PSoC5/PWM_WaSens.c **** #endif /* (!PWM_WaSens_UsingFixedFunction) */
 796:Generated_Source\PSoC5/PWM_WaSens.c **** 
 797:Generated_Source\PSoC5/PWM_WaSens.c **** 
 798:Generated_Source\PSoC5/PWM_WaSens.c **** #if (PWM_WaSens_UseOneCompareMode)
 799:Generated_Source\PSoC5/PWM_WaSens.c **** 
 800:Generated_Source\PSoC5/PWM_WaSens.c **** 
 801:Generated_Source\PSoC5/PWM_WaSens.c ****     /*******************************************************************************
 802:Generated_Source\PSoC5/PWM_WaSens.c ****     * Function Name: PWM_WaSens_ReadCompare
 803:Generated_Source\PSoC5/PWM_WaSens.c ****     ********************************************************************************
 804:Generated_Source\PSoC5/PWM_WaSens.c ****     *
 805:Generated_Source\PSoC5/PWM_WaSens.c ****     * Summary:
 806:Generated_Source\PSoC5/PWM_WaSens.c ****     *  Reads the compare value for the compare output when the PWM Mode parameter is
 807:Generated_Source\PSoC5/PWM_WaSens.c ****     *  set to Dither mode, Center Aligned mode, or One Output mode.
 808:Generated_Source\PSoC5/PWM_WaSens.c ****     *
 809:Generated_Source\PSoC5/PWM_WaSens.c ****     * Parameters:
 810:Generated_Source\PSoC5/PWM_WaSens.c ****     *  None
 811:Generated_Source\PSoC5/PWM_WaSens.c ****     *
ARM GAS  C:\Users\Lasse\AppData\Local\Temp\cckSATur.s 			page 22


 812:Generated_Source\PSoC5/PWM_WaSens.c ****     * Return:
 813:Generated_Source\PSoC5/PWM_WaSens.c ****     *  uint8/uint16: Current compare value
 814:Generated_Source\PSoC5/PWM_WaSens.c ****     *
 815:Generated_Source\PSoC5/PWM_WaSens.c ****     *******************************************************************************/
 816:Generated_Source\PSoC5/PWM_WaSens.c ****     uint8 PWM_WaSens_ReadCompare(void) 
 817:Generated_Source\PSoC5/PWM_WaSens.c ****     {
 368              		.loc 1 817 0
 369              		.cfi_startproc
 370              		@ args = 0, pretend = 0, frame = 0
 371              		@ frame_needed = 0, uses_anonymous_args = 0
 372              		@ link register save eliminated.
 818:Generated_Source\PSoC5/PWM_WaSens.c ****         #if(PWM_WaSens_UsingFixedFunction)
 819:Generated_Source\PSoC5/PWM_WaSens.c ****             return ((uint8)CY_GET_REG16(PWM_WaSens_COMPARE1_LSB_PTR));
 820:Generated_Source\PSoC5/PWM_WaSens.c ****         #else
 821:Generated_Source\PSoC5/PWM_WaSens.c ****             return (CY_GET_REG8(PWM_WaSens_COMPARE1_LSB_PTR));
 373              		.loc 1 821 0
 374 0000 014B     		ldr	r3, .L38
 375 0002 1878     		ldrb	r0, [r3]	@ zero_extendqisi2
 822:Generated_Source\PSoC5/PWM_WaSens.c ****         #endif /* (PWM_WaSens_UsingFixedFunction) */
 823:Generated_Source\PSoC5/PWM_WaSens.c ****     }
 376              		.loc 1 823 0
 377 0004 7047     		bx	lr
 378              	.L39:
 379 0006 00BF     		.align	2
 380              	.L38:
 381 0008 26640040 		.word	1073767462
 382              		.cfi_endproc
 383              	.LFE12:
 384              		.size	PWM_WaSens_ReadCompare, .-PWM_WaSens_ReadCompare
 385              		.section	.text.PWM_WaSens_ReadPeriod,"ax",%progbits
 386              		.align	2
 387              		.global	PWM_WaSens_ReadPeriod
 388              		.thumb
 389              		.thumb_func
 390              		.type	PWM_WaSens_ReadPeriod, %function
 391              	PWM_WaSens_ReadPeriod:
 392              	.LFB13:
 824:Generated_Source\PSoC5/PWM_WaSens.c **** 
 825:Generated_Source\PSoC5/PWM_WaSens.c **** #else
 826:Generated_Source\PSoC5/PWM_WaSens.c **** 
 827:Generated_Source\PSoC5/PWM_WaSens.c **** 
 828:Generated_Source\PSoC5/PWM_WaSens.c ****     /*******************************************************************************
 829:Generated_Source\PSoC5/PWM_WaSens.c ****     * Function Name: PWM_WaSens_ReadCompare1
 830:Generated_Source\PSoC5/PWM_WaSens.c ****     ********************************************************************************
 831:Generated_Source\PSoC5/PWM_WaSens.c ****     *
 832:Generated_Source\PSoC5/PWM_WaSens.c ****     * Summary:
 833:Generated_Source\PSoC5/PWM_WaSens.c ****     *  Reads the compare value for the compare1 output.
 834:Generated_Source\PSoC5/PWM_WaSens.c ****     *
 835:Generated_Source\PSoC5/PWM_WaSens.c ****     * Parameters:
 836:Generated_Source\PSoC5/PWM_WaSens.c ****     *  None
 837:Generated_Source\PSoC5/PWM_WaSens.c ****     *
 838:Generated_Source\PSoC5/PWM_WaSens.c ****     * Return:
 839:Generated_Source\PSoC5/PWM_WaSens.c ****     *  uint8/uint16: Current compare value.
 840:Generated_Source\PSoC5/PWM_WaSens.c ****     *
 841:Generated_Source\PSoC5/PWM_WaSens.c ****     *******************************************************************************/
 842:Generated_Source\PSoC5/PWM_WaSens.c ****     uint8 PWM_WaSens_ReadCompare1(void) 
 843:Generated_Source\PSoC5/PWM_WaSens.c ****     {
ARM GAS  C:\Users\Lasse\AppData\Local\Temp\cckSATur.s 			page 23


 844:Generated_Source\PSoC5/PWM_WaSens.c ****         return (CY_GET_REG8(PWM_WaSens_COMPARE1_LSB_PTR));
 845:Generated_Source\PSoC5/PWM_WaSens.c ****     }
 846:Generated_Source\PSoC5/PWM_WaSens.c **** 
 847:Generated_Source\PSoC5/PWM_WaSens.c **** 
 848:Generated_Source\PSoC5/PWM_WaSens.c ****     /*******************************************************************************
 849:Generated_Source\PSoC5/PWM_WaSens.c ****     * Function Name: PWM_WaSens_ReadCompare2
 850:Generated_Source\PSoC5/PWM_WaSens.c ****     ********************************************************************************
 851:Generated_Source\PSoC5/PWM_WaSens.c ****     *
 852:Generated_Source\PSoC5/PWM_WaSens.c ****     * Summary:
 853:Generated_Source\PSoC5/PWM_WaSens.c ****     *  Reads the compare value for the compare2 output.
 854:Generated_Source\PSoC5/PWM_WaSens.c ****     *
 855:Generated_Source\PSoC5/PWM_WaSens.c ****     * Parameters:
 856:Generated_Source\PSoC5/PWM_WaSens.c ****     *  None
 857:Generated_Source\PSoC5/PWM_WaSens.c ****     *
 858:Generated_Source\PSoC5/PWM_WaSens.c ****     * Return:
 859:Generated_Source\PSoC5/PWM_WaSens.c ****     *  uint8/uint16: Current compare value.
 860:Generated_Source\PSoC5/PWM_WaSens.c ****     *
 861:Generated_Source\PSoC5/PWM_WaSens.c ****     *******************************************************************************/
 862:Generated_Source\PSoC5/PWM_WaSens.c ****     uint8 PWM_WaSens_ReadCompare2(void) 
 863:Generated_Source\PSoC5/PWM_WaSens.c ****     {
 864:Generated_Source\PSoC5/PWM_WaSens.c ****         return (CY_GET_REG8(PWM_WaSens_COMPARE2_LSB_PTR));
 865:Generated_Source\PSoC5/PWM_WaSens.c ****     }
 866:Generated_Source\PSoC5/PWM_WaSens.c **** 
 867:Generated_Source\PSoC5/PWM_WaSens.c **** #endif /* (PWM_WaSens_UseOneCompareMode) */
 868:Generated_Source\PSoC5/PWM_WaSens.c **** 
 869:Generated_Source\PSoC5/PWM_WaSens.c **** 
 870:Generated_Source\PSoC5/PWM_WaSens.c **** /*******************************************************************************
 871:Generated_Source\PSoC5/PWM_WaSens.c **** * Function Name: PWM_WaSens_ReadPeriod
 872:Generated_Source\PSoC5/PWM_WaSens.c **** ********************************************************************************
 873:Generated_Source\PSoC5/PWM_WaSens.c **** *
 874:Generated_Source\PSoC5/PWM_WaSens.c **** * Summary:
 875:Generated_Source\PSoC5/PWM_WaSens.c **** *  Reads the period value used by the PWM hardware.
 876:Generated_Source\PSoC5/PWM_WaSens.c **** *
 877:Generated_Source\PSoC5/PWM_WaSens.c **** * Parameters:
 878:Generated_Source\PSoC5/PWM_WaSens.c **** *  None
 879:Generated_Source\PSoC5/PWM_WaSens.c **** *
 880:Generated_Source\PSoC5/PWM_WaSens.c **** * Return:
 881:Generated_Source\PSoC5/PWM_WaSens.c **** *  uint8/16: Period value
 882:Generated_Source\PSoC5/PWM_WaSens.c **** *
 883:Generated_Source\PSoC5/PWM_WaSens.c **** *******************************************************************************/
 884:Generated_Source\PSoC5/PWM_WaSens.c **** uint8 PWM_WaSens_ReadPeriod(void) 
 885:Generated_Source\PSoC5/PWM_WaSens.c **** {
 393              		.loc 1 885 0
 394              		.cfi_startproc
 395              		@ args = 0, pretend = 0, frame = 0
 396              		@ frame_needed = 0, uses_anonymous_args = 0
 397              		@ link register save eliminated.
 886:Generated_Source\PSoC5/PWM_WaSens.c ****     #if(PWM_WaSens_UsingFixedFunction)
 887:Generated_Source\PSoC5/PWM_WaSens.c ****         return ((uint8)CY_GET_REG16(PWM_WaSens_PERIOD_LSB_PTR));
 888:Generated_Source\PSoC5/PWM_WaSens.c ****     #else
 889:Generated_Source\PSoC5/PWM_WaSens.c ****         return (CY_GET_REG8(PWM_WaSens_PERIOD_LSB_PTR));
 398              		.loc 1 889 0
 399 0000 014B     		ldr	r3, .L41
 400 0002 1878     		ldrb	r0, [r3]	@ zero_extendqisi2
 890:Generated_Source\PSoC5/PWM_WaSens.c ****     #endif /* (PWM_WaSens_UsingFixedFunction) */
 891:Generated_Source\PSoC5/PWM_WaSens.c **** }
 401              		.loc 1 891 0
ARM GAS  C:\Users\Lasse\AppData\Local\Temp\cckSATur.s 			page 24


 402 0004 7047     		bx	lr
 403              	.L42:
 404 0006 00BF     		.align	2
 405              	.L41:
 406 0008 46640040 		.word	1073767494
 407              		.cfi_endproc
 408              	.LFE13:
 409              		.size	PWM_WaSens_ReadPeriod, .-PWM_WaSens_ReadPeriod
 410              		.global	PWM_WaSens_initVar
 411              		.bss
 412              		.set	.LANCHOR0,. + 0
 413              		.type	PWM_WaSens_initVar, %object
 414              		.size	PWM_WaSens_initVar, 1
 415              	PWM_WaSens_initVar:
 416 0000 00       		.space	1
 417              		.text
 418              	.Letext0:
 419              		.file 2 "Generated_Source\\PSoC5\\cytypes.h"
 420              		.file 3 "Generated_Source\\PSoC5\\CyLib.h"