ARM GAS  C:\Users\Lasse\AppData\Local\Temp\cc8NRnLj.s 			page 1


   1              		.syntax unified
   2              		.cpu cortex-m3
   3              		.fpu softvfp
   4              		.eabi_attribute 20, 1
   5              		.eabi_attribute 21, 1
   6              		.eabi_attribute 23, 3
   7              		.eabi_attribute 24, 1
   8              		.eabi_attribute 25, 1
   9              		.eabi_attribute 26, 1
  10              		.eabi_attribute 30, 1
  11              		.eabi_attribute 34, 1
  12              		.eabi_attribute 18, 4
  13              		.thumb
  14              		.syntax unified
  15              		.file	"SonarDriver.c"
  16              		.text
  17              	.Ltext0:
  18              		.cfi_sections	.debug_frame
  19              		.section	.text.Sonar_Start,"ax",%progbits
  20              		.align	2
  21              		.global	Sonar_Start
  22              		.thumb
  23              		.thumb_func
  24              		.type	Sonar_Start, %function
  25              	Sonar_Start:
  26              	.LFB64:
  27              		.file 1 "SonarDriver.c"
   1:SonarDriver.c **** #include "SonarDriver.h"
   2:SonarDriver.c **** 
   3:SonarDriver.c **** void Sonar_Start(){
  28              		.loc 1 3 0
  29              		.cfi_startproc
  30              		@ args = 0, pretend = 0, frame = 0
  31              		@ frame_needed = 0, uses_anonymous_args = 0
  32 0000 08B5     		push	{r3, lr}
  33              		.cfi_def_cfa_offset 8
  34              		.cfi_offset 3, -8
  35              		.cfi_offset 14, -4
   4:SonarDriver.c ****     Trigger_1_Write(0);
  36              		.loc 1 4 0
  37 0002 0020     		movs	r0, #0
  38 0004 FFF7FEFF 		bl	Trigger_1_Write
  39              	.LVL0:
   5:SonarDriver.c ****     Trigger_2_Write(0);
  40              		.loc 1 5 0
  41 0008 0020     		movs	r0, #0
  42 000a FFF7FEFF 		bl	Trigger_2_Write
  43              	.LVL1:
   6:SonarDriver.c ****     sonarTimerDone = 0;
  44              		.loc 1 6 0
  45 000e 0022     		movs	r2, #0
  46 0010 024B     		ldr	r3, .L3
  47 0012 1A70     		strb	r2, [r3]
   7:SonarDriver.c ****     Timer_Sonar_Start();
  48              		.loc 1 7 0
  49 0014 FFF7FEFF 		bl	Timer_Sonar_Start
  50              	.LVL2:
ARM GAS  C:\Users\Lasse\AppData\Local\Temp\cc8NRnLj.s 			page 2


  51 0018 08BD     		pop	{r3, pc}
  52              	.L4:
  53 001a 00BF     		.align	2
  54              	.L3:
  55 001c 00000000 		.word	sonarTimerDone
  56              		.cfi_endproc
  57              	.LFE64:
  58              		.size	Sonar_Start, .-Sonar_Start
  59              		.global	__aeabi_ui2d
  60              		.global	__aeabi_dsub
  61              		.global	__aeabi_ddiv
  62              		.global	__aeabi_dcmplt
  63              		.global	__aeabi_dcmpgt
  64              		.global	__aeabi_dcmpeq
  65              		.global	__aeabi_dadd
  66              		.global	__aeabi_dmul
  67              		.section	.text.Sonar_GetPosition,"ax",%progbits
  68              		.align	2
  69              		.global	Sonar_GetPosition
  70              		.thumb
  71              		.thumb_func
  72              		.type	Sonar_GetPosition, %function
  73              	Sonar_GetPosition:
  74              	.LFB65:
   8:SonarDriver.c **** }
   9:SonarDriver.c **** 
  10:SonarDriver.c **** struct position Sonar_GetPosition(){
  75              		.loc 1 10 0
  76              		.cfi_startproc
  77              		@ args = 0, pretend = 0, frame = 16
  78              		@ frame_needed = 0, uses_anonymous_args = 0
  79              	.LVL3:
  80 0000 2DE97043 		push	{r4, r5, r6, r8, r9, lr}
  81              		.cfi_def_cfa_offset 24
  82              		.cfi_offset 4, -24
  83              		.cfi_offset 5, -20
  84              		.cfi_offset 6, -16
  85              		.cfi_offset 8, -12
  86              		.cfi_offset 9, -8
  87              		.cfi_offset 14, -4
  88 0004 84B0     		sub	sp, sp, #16
  89              		.cfi_def_cfa_offset 40
  90 0006 0646     		mov	r6, r0
  11:SonarDriver.c ****         Trigger_1_Write(1);
  91              		.loc 1 11 0
  92 0008 0120     		movs	r0, #1
  93              	.LVL4:
  94 000a FFF7FEFF 		bl	Trigger_1_Write
  95              	.LVL5:
  12:SonarDriver.c ****         CyDelayUs(10);
  96              		.loc 1 12 0
  97 000e 0A20     		movs	r0, #10
  98 0010 FFF7FEFF 		bl	CyDelayUs
  99              	.LVL6:
  13:SonarDriver.c ****         Trigger_1_Write(0);
 100              		.loc 1 13 0
 101 0014 0020     		movs	r0, #0
ARM GAS  C:\Users\Lasse\AppData\Local\Temp\cc8NRnLj.s 			page 3


 102 0016 FFF7FEFF 		bl	Trigger_1_Write
 103              	.LVL7:
 104              	.L6:
  14:SonarDriver.c ****         
  15:SonarDriver.c ****         while(Echo_1_Read() != 1){}
 105              		.loc 1 15 0 discriminator 1
 106 001a FFF7FEFF 		bl	Echo_1_Read
 107              	.LVL8:
 108 001e 0128     		cmp	r0, #1
 109 0020 FBD1     		bne	.L6
  16:SonarDriver.c ****        
  17:SonarDriver.c ****         Timer_Sonar_WriteCounter(16777215);
 110              		.loc 1 17 0
 111 0022 6FF07F40 		mvn	r0, #-16777216
 112 0026 FFF7FEFF 		bl	Timer_Sonar_WriteCounter
 113              	.LVL9:
 114              	.L7:
  18:SonarDriver.c ****         while(Echo_1_Read() == 1){}
 115              		.loc 1 18 0 discriminator 1
 116 002a FFF7FEFF 		bl	Echo_1_Read
 117              	.LVL10:
 118 002e 0128     		cmp	r0, #1
 119 0030 FBD0     		beq	.L7
  19:SonarDriver.c ****         
  20:SonarDriver.c ****         uint32_t timervaerdi = Timer_Sonar_ReadCounter();
 120              		.loc 1 20 0
 121 0032 FFF7FEFF 		bl	Timer_Sonar_ReadCounter
 122              	.LVL11:
  21:SonarDriver.c ****     
  22:SonarDriver.c ****         double time = ((double)16777215.0 - (double)timervaerdi)/(double)24.0;
 123              		.loc 1 22 0
 124 0036 FFF7FEFF 		bl	__aeabi_ui2d
 125              	.LVL12:
 126 003a 0246     		mov	r2, r0
 127 003c 0B46     		mov	r3, r1
 128 003e 4FF06040 		mov	r0, #-536870912
 129 0042 7449     		ldr	r1, .L33
 130 0044 FFF7FEFF 		bl	__aeabi_dsub
 131              	.LVL13:
 132 0048 0022     		movs	r2, #0
 133 004a 734B     		ldr	r3, .L33+4
 134 004c FFF7FEFF 		bl	__aeabi_ddiv
 135              	.LVL14:
  23:SonarDriver.c ****         double distance_sonar_1 = time/58.0;
 136              		.loc 1 23 0
 137 0050 0022     		movs	r2, #0
 138 0052 724B     		ldr	r3, .L33+8
 139 0054 FFF7FEFF 		bl	__aeabi_ddiv
 140              	.LVL15:
 141 0058 0446     		mov	r4, r0
 142 005a 0D46     		mov	r5, r1
 143              	.LVL16:
  24:SonarDriver.c ****          //double distance = (time * 340.0)/2; 
  25:SonarDriver.c ****    
  26:SonarDriver.c ****         UART_1_PutString("read 1 done \n\r");
 144              		.loc 1 26 0
 145 005c 7048     		ldr	r0, .L33+12
ARM GAS  C:\Users\Lasse\AppData\Local\Temp\cc8NRnLj.s 			page 4


 146 005e FFF7FEFF 		bl	UART_1_PutString
 147              	.LVL17:
  27:SonarDriver.c ****         //Delay between readings:
  28:SonarDriver.c ****         CyDelay(60);
 148              		.loc 1 28 0
 149 0062 3C20     		movs	r0, #60
 150 0064 FFF7FEFF 		bl	CyDelay
 151              	.LVL18:
  29:SonarDriver.c ****         
  30:SonarDriver.c ****         //Sonar 2 reading:
  31:SonarDriver.c ****         Trigger_2_Write(1);
 152              		.loc 1 31 0
 153 0068 0120     		movs	r0, #1
 154 006a FFF7FEFF 		bl	Trigger_2_Write
 155              	.LVL19:
  32:SonarDriver.c ****         CyDelayUs(10);
 156              		.loc 1 32 0
 157 006e 0A20     		movs	r0, #10
 158 0070 FFF7FEFF 		bl	CyDelayUs
 159              	.LVL20:
  33:SonarDriver.c ****         Trigger_2_Write(0);
 160              		.loc 1 33 0
 161 0074 0020     		movs	r0, #0
 162 0076 FFF7FEFF 		bl	Trigger_2_Write
 163              	.LVL21:
 164              	.L8:
  34:SonarDriver.c ****         
  35:SonarDriver.c ****         while(Echo_2_Read() != 1){}
 165              		.loc 1 35 0 discriminator 1
 166 007a FFF7FEFF 		bl	Echo_2_Read
 167              	.LVL22:
 168 007e 0128     		cmp	r0, #1
 169 0080 FBD1     		bne	.L8
  36:SonarDriver.c ****         Timer_Sonar_WriteCounter(16777215);
 170              		.loc 1 36 0
 171 0082 6FF07F40 		mvn	r0, #-16777216
 172 0086 FFF7FEFF 		bl	Timer_Sonar_WriteCounter
 173              	.LVL23:
 174              	.L9:
  37:SonarDriver.c ****         while(Echo_2_Read() == 1){}
 175              		.loc 1 37 0 discriminator 1
 176 008a FFF7FEFF 		bl	Echo_2_Read
 177              	.LVL24:
 178 008e 0128     		cmp	r0, #1
 179 0090 FBD0     		beq	.L9
  38:SonarDriver.c ****         
  39:SonarDriver.c ****         timervaerdi = Timer_Sonar_ReadCounter();
 180              		.loc 1 39 0
 181 0092 FFF7FEFF 		bl	Timer_Sonar_ReadCounter
 182              	.LVL25:
  40:SonarDriver.c ****     
  41:SonarDriver.c ****         double timeus = ((double)16777215.0 - (double)timervaerdi)/(double)24.0;
 183              		.loc 1 41 0
 184 0096 FFF7FEFF 		bl	__aeabi_ui2d
 185              	.LVL26:
 186 009a 0246     		mov	r2, r0
 187 009c 0B46     		mov	r3, r1
ARM GAS  C:\Users\Lasse\AppData\Local\Temp\cc8NRnLj.s 			page 5


 188 009e 4FF06040 		mov	r0, #-536870912
 189 00a2 5C49     		ldr	r1, .L33
 190 00a4 FFF7FEFF 		bl	__aeabi_dsub
 191              	.LVL27:
 192 00a8 0022     		movs	r2, #0
 193 00aa 5B4B     		ldr	r3, .L33+4
 194 00ac FFF7FEFF 		bl	__aeabi_ddiv
 195              	.LVL28:
  42:SonarDriver.c ****         double distance_sonar_2 = timeus/58.0;
 196              		.loc 1 42 0
 197 00b0 0022     		movs	r2, #0
 198 00b2 5A4B     		ldr	r3, .L33+8
 199 00b4 FFF7FEFF 		bl	__aeabi_ddiv
 200              	.LVL29:
 201 00b8 8046     		mov	r8, r0
 202 00ba 8946     		mov	r9, r1
 203              	.LVL30:
  43:SonarDriver.c ****          //double distance = (time * 340.0)/2; 
  44:SonarDriver.c ****         
  45:SonarDriver.c ****         UART_1_PutString("read 2 done \n\r");
 204              		.loc 1 45 0
 205 00bc 5948     		ldr	r0, .L33+16
 206 00be FFF7FEFF 		bl	UART_1_PutString
 207              	.LVL31:
  46:SonarDriver.c ****         if(distance_sonar_1 < 2.5 || distance_sonar_1 > 55){
 208              		.loc 1 46 0
 209 00c2 0022     		movs	r2, #0
 210 00c4 584B     		ldr	r3, .L33+20
 211 00c6 2046     		mov	r0, r4
 212 00c8 2946     		mov	r1, r5
 213 00ca FFF7FEFF 		bl	__aeabi_dcmplt
 214              	.LVL32:
 215 00ce 38B9     		cbnz	r0, .L22
 216              		.loc 1 46 0 is_stmt 0 discriminator 1
 217 00d0 0022     		movs	r2, #0
 218 00d2 564B     		ldr	r3, .L33+24
 219 00d4 2046     		mov	r0, r4
 220 00d6 2946     		mov	r1, r5
 221 00d8 FFF7FEFF 		bl	__aeabi_dcmpgt
 222              	.LVL33:
 223 00dc 18B9     		cbnz	r0, .L23
 224 00de 04E0     		b	.L10
 225              	.L22:
  47:SonarDriver.c ****             //Pigeon not detected
  48:SonarDriver.c ****             distance_sonar_1 = 0;
 226              		.loc 1 48 0 is_stmt 1
 227 00e0 0024     		movs	r4, #0
 228              	.LVL34:
 229 00e2 0025     		movs	r5, #0
 230 00e4 01E0     		b	.L10
 231              	.LVL35:
 232              	.L23:
 233 00e6 0024     		movs	r4, #0
 234              	.LVL36:
 235 00e8 0025     		movs	r5, #0
 236              	.L10:
 237              	.LVL37:
ARM GAS  C:\Users\Lasse\AppData\Local\Temp\cc8NRnLj.s 			page 6


  49:SonarDriver.c ****         }
  50:SonarDriver.c ****             
  51:SonarDriver.c ****         if(distance_sonar_2 < 2.5 || distance_sonar_2 > 55){
 238              		.loc 1 51 0
 239 00ea 0022     		movs	r2, #0
 240 00ec 4E4B     		ldr	r3, .L33+20
 241 00ee 4046     		mov	r0, r8
 242 00f0 4946     		mov	r1, r9
 243 00f2 FFF7FEFF 		bl	__aeabi_dcmplt
 244              	.LVL38:
 245 00f6 38B9     		cbnz	r0, .L24
 246              		.loc 1 51 0 is_stmt 0 discriminator 1
 247 00f8 0022     		movs	r2, #0
 248 00fa 4C4B     		ldr	r3, .L33+24
 249 00fc 4046     		mov	r0, r8
 250 00fe 4946     		mov	r1, r9
 251 0100 FFF7FEFF 		bl	__aeabi_dcmpgt
 252              	.LVL39:
 253 0104 28B9     		cbnz	r0, .L25
 254 0106 08E0     		b	.L11
 255              	.L24:
  52:SonarDriver.c ****             //Pigeon not detected
  53:SonarDriver.c ****             distance_sonar_2 = 0;
 256              		.loc 1 53 0 is_stmt 1
 257 0108 4FF00008 		mov	r8, #0
 258              	.LVL40:
 259 010c 4FF00009 		mov	r9, #0
 260 0110 03E0     		b	.L11
 261              	.LVL41:
 262              	.L25:
 263 0112 4FF00008 		mov	r8, #0
 264              	.LVL42:
 265 0116 4FF00009 		mov	r9, #0
 266              	.L11:
 267              	.LVL43:
  54:SonarDriver.c ****         }
  55:SonarDriver.c ****    
  56:SonarDriver.c ****         if (distance_sonar_1 !=0 && distance_sonar_2 != 0){
 268              		.loc 1 56 0
 269 011a 0022     		movs	r2, #0
 270 011c 0023     		movs	r3, #0
 271 011e 2046     		mov	r0, r4
 272 0120 2946     		mov	r1, r5
 273 0122 FFF7FEFF 		bl	__aeabi_dcmpeq
 274              	.LVL44:
 275 0126 08BB     		cbnz	r0, .L12
 276              		.loc 1 56 0 is_stmt 0 discriminator 1
 277 0128 0022     		movs	r2, #0
 278 012a 0023     		movs	r3, #0
 279 012c 4046     		mov	r0, r8
 280 012e 4946     		mov	r1, r9
 281 0130 FFF7FEFF 		bl	__aeabi_dcmpeq
 282              	.LVL45:
 283 0134 D0B9     		cbnz	r0, .L12
 284              	.LVL46:
 285              	.LBB2:
  57:SonarDriver.c ****                 
ARM GAS  C:\Users\Lasse\AppData\Local\Temp\cc8NRnLj.s 			page 7


  58:SonarDriver.c ****                 uint8_t width = 2; //Both Sonars detect pigeon, so assumed to be in position 2 of 3
  59:SonarDriver.c ****                 //Average distance is calculated
  60:SonarDriver.c ****                 double calculated_distance = ((distance_sonar_1+distance_sonar_2)/2)-5;
 286              		.loc 1 60 0 is_stmt 1
 287 0136 4246     		mov	r2, r8
 288 0138 4B46     		mov	r3, r9
 289 013a 2046     		mov	r0, r4
 290 013c 2946     		mov	r1, r5
 291 013e FFF7FEFF 		bl	__aeabi_dadd
 292              	.LVL47:
 293 0142 0022     		movs	r2, #0
 294 0144 3A4B     		ldr	r3, .L33+28
 295 0146 FFF7FEFF 		bl	__aeabi_dmul
 296              	.LVL48:
 297 014a 0022     		movs	r2, #0
 298 014c 394B     		ldr	r3, .L33+32
 299 014e FFF7FEFF 		bl	__aeabi_dsub
 300              	.LVL49:
  61:SonarDriver.c ****                 
  62:SonarDriver.c ****                 //Struct holding, pigeon detected positive, width, and distance.  
  63:SonarDriver.c ****                 struct position p = {1,width,calculated_distance};
 301              		.loc 1 63 0
 302 0152 0123     		movs	r3, #1
 303 0154 8DF80030 		strb	r3, [sp]
 304 0158 0223     		movs	r3, #2
 305 015a 0193     		str	r3, [sp, #4]
 306 015c CDE90201 		strd	r0, [sp, #8]
  64:SonarDriver.c ****                 return  p; 
 307              		.loc 1 64 0
 308 0160 04AB     		add	r3, sp, #16
 309 0162 13E90F00 		ldmdb	r3, {r0, r1, r2, r3}
 310              	.LVL50:
 311 0166 86E80F00 		stmia	r6, {r0, r1, r2, r3}
 312 016a 4EE0     		b	.L5
 313              	.LVL51:
 314              	.L12:
 315              	.LBE2:
  65:SonarDriver.c ****             }
  66:SonarDriver.c ****         else if(distance_sonar_1 !=0 && distance_sonar_2 == 0){
 316              		.loc 1 66 0
 317 016c 0022     		movs	r2, #0
 318 016e 0023     		movs	r3, #0
 319 0170 2046     		mov	r0, r4
 320 0172 2946     		mov	r1, r5
 321 0174 FFF7FEFF 		bl	__aeabi_dcmpeq
 322              	.LVL52:
 323 0178 C8B9     		cbnz	r0, .L16
 324              		.loc 1 66 0 is_stmt 0 discriminator 1
 325 017a 0022     		movs	r2, #0
 326 017c 0023     		movs	r3, #0
 327 017e 4046     		mov	r0, r8
 328 0180 4946     		mov	r1, r9
 329 0182 FFF7FEFF 		bl	__aeabi_dcmpeq
 330              	.LVL53:
 331 0186 90B1     		cbz	r0, .L16
 332              	.LVL54:
 333              	.LBB3:
ARM GAS  C:\Users\Lasse\AppData\Local\Temp\cc8NRnLj.s 			page 8


  67:SonarDriver.c ****                  uint8_t width = 3; //Only Sonar 1 detects pigeon, so assumed to be in position 3 o
  68:SonarDriver.c ****                
  69:SonarDriver.c ****                 
  70:SonarDriver.c ****                 //Struct holding, pigeon detected positive, width, and distance.  
  71:SonarDriver.c ****                 struct position p = {1,width,distance_sonar_1-5};
 334              		.loc 1 71 0 is_stmt 1
 335 0188 0123     		movs	r3, #1
 336 018a 8DF80030 		strb	r3, [sp]
 337 018e 0323     		movs	r3, #3
 338 0190 0193     		str	r3, [sp, #4]
 339 0192 0022     		movs	r2, #0
 340 0194 274B     		ldr	r3, .L33+32
 341 0196 2046     		mov	r0, r4
 342 0198 2946     		mov	r1, r5
 343 019a FFF7FEFF 		bl	__aeabi_dsub
 344              	.LVL55:
 345 019e CDE90201 		strd	r0, [sp, #8]
  72:SonarDriver.c ****                 return  p;         
 346              		.loc 1 72 0
 347 01a2 04AB     		add	r3, sp, #16
 348 01a4 13E90F00 		ldmdb	r3, {r0, r1, r2, r3}
 349 01a8 86E80F00 		stmia	r6, {r0, r1, r2, r3}
 350 01ac 2DE0     		b	.L5
 351              	.LVL56:
 352              	.L16:
 353              	.LBE3:
  73:SonarDriver.c ****         }
  74:SonarDriver.c ****          else if(distance_sonar_1 ==0 && distance_sonar_2 != 0){
 354              		.loc 1 74 0
 355 01ae 0022     		movs	r2, #0
 356 01b0 0023     		movs	r3, #0
 357 01b2 2046     		mov	r0, r4
 358 01b4 2946     		mov	r1, r5
 359 01b6 FFF7FEFF 		bl	__aeabi_dcmpeq
 360              	.LVL57:
 361 01ba C8B1     		cbz	r0, .L19
 362              		.loc 1 74 0 is_stmt 0 discriminator 1
 363 01bc 0022     		movs	r2, #0
 364 01be 0023     		movs	r3, #0
 365 01c0 4046     		mov	r0, r8
 366 01c2 4946     		mov	r1, r9
 367 01c4 FFF7FEFF 		bl	__aeabi_dcmpeq
 368              	.LVL58:
 369 01c8 90B9     		cbnz	r0, .L19
 370              	.LVL59:
 371              	.LBB4:
  75:SonarDriver.c ****                  uint8_t width = 1; //Only Sonar 1 detects pigeon, so assumed to be in position 1 o
  76:SonarDriver.c ****                
  77:SonarDriver.c ****                 //Struct holding, pigeon detected positive, width, and distance.  
  78:SonarDriver.c ****                 struct position p = {1,width,distance_sonar_2-2};
 372              		.loc 1 78 0 is_stmt 1
 373 01ca 0123     		movs	r3, #1
 374 01cc 8DF80030 		strb	r3, [sp]
 375 01d0 0193     		str	r3, [sp, #4]
 376 01d2 0022     		movs	r2, #0
 377 01d4 4FF08043 		mov	r3, #1073741824
 378 01d8 4046     		mov	r0, r8
ARM GAS  C:\Users\Lasse\AppData\Local\Temp\cc8NRnLj.s 			page 9


 379 01da 4946     		mov	r1, r9
 380 01dc FFF7FEFF 		bl	__aeabi_dsub
 381              	.LVL60:
 382 01e0 CDE90201 		strd	r0, [sp, #8]
  79:SonarDriver.c ****                 return  p;         
 383              		.loc 1 79 0
 384 01e4 04AB     		add	r3, sp, #16
 385 01e6 13E90F00 		ldmdb	r3, {r0, r1, r2, r3}
 386 01ea 86E80F00 		stmia	r6, {r0, r1, r2, r3}
 387 01ee 0CE0     		b	.L5
 388              	.LVL61:
 389              	.L19:
 390              	.LBE4:
 391              	.LBB5:
  80:SonarDriver.c ****         }
  81:SonarDriver.c ****         else {
  82:SonarDriver.c ****             //Pigeon Not detected. An empty struct is returned
  83:SonarDriver.c ****             
  84:SonarDriver.c ****                 //Struct holding, pigeon detected positive, width, and distance.  
  85:SonarDriver.c ****                 struct position p = {0,0,0};
 392              		.loc 1 85 0
 393 01f0 0023     		movs	r3, #0
 394 01f2 8DF80030 		strb	r3, [sp]
 395 01f6 0193     		str	r3, [sp, #4]
 396 01f8 0022     		movs	r2, #0
 397 01fa 0023     		movs	r3, #0
 398 01fc CDE90223 		strd	r2, [sp, #8]
  86:SonarDriver.c ****                 return  p;   
 399              		.loc 1 86 0
 400 0200 04AB     		add	r3, sp, #16
 401 0202 13E90F00 		ldmdb	r3, {r0, r1, r2, r3}
 402 0206 86E80F00 		stmia	r6, {r0, r1, r2, r3}
 403              	.L5:
 404              	.LBE5:
  87:SonarDriver.c ****         }
  88:SonarDriver.c ****     
  89:SonarDriver.c **** }
 405              		.loc 1 89 0
 406 020a 3046     		mov	r0, r6
 407 020c 04B0     		add	sp, sp, #16
 408              		.cfi_def_cfa_offset 24
 409              		@ sp needed
 410 020e BDE87083 		pop	{r4, r5, r6, r8, r9, pc}
 411              	.LVL62:
 412              	.L34:
 413 0212 00BF     		.align	2
 414              	.L33:
 415 0214 FFFF6F41 		.word	1097859071
 416 0218 00003840 		.word	1077411840
 417 021c 00004D40 		.word	1078788096
 418 0220 00000000 		.word	.LC0
 419 0224 10000000 		.word	.LC1
 420 0228 00000440 		.word	1074003968
 421 022c 00804B40 		.word	1078689792
 422 0230 0000E03F 		.word	1071644672
 423 0234 00001440 		.word	1075052544
 424              		.cfi_endproc
ARM GAS  C:\Users\Lasse\AppData\Local\Temp\cc8NRnLj.s 			page 10


 425              	.LFE65:
 426              		.size	Sonar_GetPosition, .-Sonar_GetPosition
 427              		.comm	sonarTimerDone,1,1
 428              		.section	.rodata.str1.4,"aMS",%progbits,1
 429              		.align	2
 430              	.LC0:
 431 0000 72656164 		.ascii	"read 1 done \012\015\000"
 431      20312064 
 431      6F6E6520 
 431      0A0D00
 432 000f 00       		.space	1
 433              	.LC1:
 434 0010 72656164 		.ascii	"read 2 done \012\015\000"
 434      20322064 
 434      6F6E6520 
 434      0A0D00
 435              		.text
 436              	.Letext0:
 437              		.file 2 "c:\\program files (x86)\\cypress\\psoc creator\\4.2\\psoc creator\\import\\gnu\\arm\\5.4.
 438              		.file 3 "c:\\program files (x86)\\cypress\\psoc creator\\4.2\\psoc creator\\import\\gnu\\arm\\5.4.
 439              		.file 4 "Generated_Source\\PSoC5/cytypes.h"
 440              		.file 5 "SonarDriver.h"
 441              		.file 6 "Generated_Source\\PSoC5/core_cm3.h"
 442              		.file 7 "Generated_Source\\PSoC5/Trigger_1.h"
 443              		.file 8 "Generated_Source\\PSoC5/Trigger_2.h"
 444              		.file 9 "Generated_Source\\PSoC5/Timer_Sonar.h"
 445              		.file 10 "Generated_Source\\PSoC5/CyLib.h"
 446              		.file 11 "Generated_Source\\PSoC5/Echo_1.h"
 447              		.file 12 "Generated_Source\\PSoC5/UART_1.h"
 448              		.file 13 "Generated_Source\\PSoC5/Echo_2.h"