ARM GAS  C:\Users\Lasse\AppData\Local\Temp\ccNmmdC1.s 			page 1


   1              		.syntax unified
   2              		.cpu cortex-m3
   3              		.fpu softvfp
   4              		.eabi_attribute 20, 1
   5              		.eabi_attribute 21, 1
   6              		.eabi_attribute 23, 3
   7              		.eabi_attribute 24, 1
   8              		.eabi_attribute 25, 1
   9              		.eabi_attribute 26, 1
  10              		.eabi_attribute 30, 1
  11              		.eabi_attribute 34, 1
  12              		.eabi_attribute 18, 4
  13              		.thumb
  14              		.syntax unified
  15              		.file	"SPI_1.c"
  16              		.text
  17              	.Ltext0:
  18              		.cfi_sections	.debug_frame
  19              		.section	.text.SPI_1_Enable,"ax",%progbits
  20              		.align	2
  21              		.global	SPI_1_Enable
  22              		.thumb
  23              		.thumb_func
  24              		.type	SPI_1_Enable, %function
  25              	SPI_1_Enable:
  26              	.LFB1:
  27              		.file 1 "Generated_Source\\PSoC5\\SPI_1.c"
   1:Generated_Source\PSoC5/SPI_1.c **** /*******************************************************************************
   2:Generated_Source\PSoC5/SPI_1.c **** * File Name: SPI_1.c
   3:Generated_Source\PSoC5/SPI_1.c **** * Version 2.70
   4:Generated_Source\PSoC5/SPI_1.c **** *
   5:Generated_Source\PSoC5/SPI_1.c **** * Description:
   6:Generated_Source\PSoC5/SPI_1.c **** *  This file provides all API functionality of the SPI Slave component.
   7:Generated_Source\PSoC5/SPI_1.c **** *
   8:Generated_Source\PSoC5/SPI_1.c **** * Note:
   9:Generated_Source\PSoC5/SPI_1.c **** *  None.
  10:Generated_Source\PSoC5/SPI_1.c **** *
  11:Generated_Source\PSoC5/SPI_1.c **** ********************************************************************************
  12:Generated_Source\PSoC5/SPI_1.c **** * Copyright 2008-2015, Cypress Semiconductor Corporation.  All rights reserved.
  13:Generated_Source\PSoC5/SPI_1.c **** * You may use this file only in accordance with the license, terms, conditions,
  14:Generated_Source\PSoC5/SPI_1.c **** * disclaimers, and limitations in the end user license agreement accompanying
  15:Generated_Source\PSoC5/SPI_1.c **** * the software package with which this file was provided.
  16:Generated_Source\PSoC5/SPI_1.c **** *******************************************************************************/
  17:Generated_Source\PSoC5/SPI_1.c **** 
  18:Generated_Source\PSoC5/SPI_1.c **** #include "SPI_1_PVT.h"
  19:Generated_Source\PSoC5/SPI_1.c **** 
  20:Generated_Source\PSoC5/SPI_1.c **** #if (SPI_1_TX_SOFTWARE_BUF_ENABLED)
  21:Generated_Source\PSoC5/SPI_1.c **** 
  22:Generated_Source\PSoC5/SPI_1.c ****     volatile uint8 SPI_1_txBuffer[SPI_1_TX_BUFFER_SIZE];
  23:Generated_Source\PSoC5/SPI_1.c ****     volatile uint8 SPI_1_txBufferRead;
  24:Generated_Source\PSoC5/SPI_1.c ****     volatile uint8 SPI_1_txBufferWrite;
  25:Generated_Source\PSoC5/SPI_1.c ****     volatile uint8 SPI_1_txBufferFull;
  26:Generated_Source\PSoC5/SPI_1.c **** 
  27:Generated_Source\PSoC5/SPI_1.c **** #endif /* SPI_1_TX_SOFTWARE_BUF_ENABLED*/
  28:Generated_Source\PSoC5/SPI_1.c **** 
  29:Generated_Source\PSoC5/SPI_1.c **** #if (SPI_1_RX_SOFTWARE_BUF_ENABLED)
  30:Generated_Source\PSoC5/SPI_1.c **** 
ARM GAS  C:\Users\Lasse\AppData\Local\Temp\ccNmmdC1.s 			page 2


  31:Generated_Source\PSoC5/SPI_1.c ****     volatile uint8 SPI_1_rxBuffer[SPI_1_RX_BUFFER_SIZE];
  32:Generated_Source\PSoC5/SPI_1.c ****     volatile uint8 SPI_1_rxBufferRead;
  33:Generated_Source\PSoC5/SPI_1.c ****     volatile uint8 SPI_1_rxBufferWrite;
  34:Generated_Source\PSoC5/SPI_1.c ****     volatile uint8 SPI_1_rxBufferFull;
  35:Generated_Source\PSoC5/SPI_1.c **** 
  36:Generated_Source\PSoC5/SPI_1.c **** #endif /* SPI_1_RX_SOFTWARE_BUF_ENABLED */
  37:Generated_Source\PSoC5/SPI_1.c **** 
  38:Generated_Source\PSoC5/SPI_1.c **** uint8 SPI_1_initVar = 0u;
  39:Generated_Source\PSoC5/SPI_1.c **** 
  40:Generated_Source\PSoC5/SPI_1.c **** volatile uint8 SPI_1_swStatusTx;
  41:Generated_Source\PSoC5/SPI_1.c **** volatile uint8 SPI_1_swStatusRx;
  42:Generated_Source\PSoC5/SPI_1.c **** 
  43:Generated_Source\PSoC5/SPI_1.c **** 
  44:Generated_Source\PSoC5/SPI_1.c **** /*******************************************************************************
  45:Generated_Source\PSoC5/SPI_1.c **** * Function Name: SPI_1_Init
  46:Generated_Source\PSoC5/SPI_1.c **** ********************************************************************************
  47:Generated_Source\PSoC5/SPI_1.c **** *
  48:Generated_Source\PSoC5/SPI_1.c **** * Summary:
  49:Generated_Source\PSoC5/SPI_1.c **** *  Inits/Restores default SPIS configuration provided with customizer.
  50:Generated_Source\PSoC5/SPI_1.c **** *
  51:Generated_Source\PSoC5/SPI_1.c **** * Parameters:
  52:Generated_Source\PSoC5/SPI_1.c **** *  None.
  53:Generated_Source\PSoC5/SPI_1.c **** *
  54:Generated_Source\PSoC5/SPI_1.c **** * Return:
  55:Generated_Source\PSoC5/SPI_1.c **** *  None.
  56:Generated_Source\PSoC5/SPI_1.c **** *
  57:Generated_Source\PSoC5/SPI_1.c **** * Side Effects:
  58:Generated_Source\PSoC5/SPI_1.c **** *  When this function is called it initializes all of the necessary parameters
  59:Generated_Source\PSoC5/SPI_1.c **** *  for execution. i.e. setting the initial interrupt mask, configuring the
  60:Generated_Source\PSoC5/SPI_1.c **** *  interrupt service routine, configuring the bit-counter parameters and
  61:Generated_Source\PSoC5/SPI_1.c **** *  clearing the FIFO and Status Register.
  62:Generated_Source\PSoC5/SPI_1.c **** *
  63:Generated_Source\PSoC5/SPI_1.c **** * Reentrant:
  64:Generated_Source\PSoC5/SPI_1.c **** *  No.
  65:Generated_Source\PSoC5/SPI_1.c **** *
  66:Generated_Source\PSoC5/SPI_1.c **** *******************************************************************************/
  67:Generated_Source\PSoC5/SPI_1.c **** void SPI_1_Init(void) 
  68:Generated_Source\PSoC5/SPI_1.c **** {
  69:Generated_Source\PSoC5/SPI_1.c ****     /*Initialize the Bit counter */
  70:Generated_Source\PSoC5/SPI_1.c ****     SPI_1_COUNTER_PERIOD_REG = SPI_1_BITCTR_INIT;
  71:Generated_Source\PSoC5/SPI_1.c **** 
  72:Generated_Source\PSoC5/SPI_1.c ****     /* ISR initialization */
  73:Generated_Source\PSoC5/SPI_1.c ****     #if(SPI_1_INTERNAL_TX_INT_ENABLED)
  74:Generated_Source\PSoC5/SPI_1.c **** 
  75:Generated_Source\PSoC5/SPI_1.c ****         CyIntDisable(SPI_1_TX_ISR_NUMBER);
  76:Generated_Source\PSoC5/SPI_1.c **** 
  77:Generated_Source\PSoC5/SPI_1.c ****         /* Set the ISR to point to the SPI_1_isr Interrupt. */
  78:Generated_Source\PSoC5/SPI_1.c ****         (void)CyIntSetVector(SPI_1_TX_ISR_NUMBER, &SPI_1_TX_ISR);
  79:Generated_Source\PSoC5/SPI_1.c **** 
  80:Generated_Source\PSoC5/SPI_1.c ****         /* Set the priority. */
  81:Generated_Source\PSoC5/SPI_1.c ****         CyIntSetPriority(SPI_1_TX_ISR_NUMBER, SPI_1_TX_ISR_PRIORITY);
  82:Generated_Source\PSoC5/SPI_1.c **** 
  83:Generated_Source\PSoC5/SPI_1.c ****     #endif /* SPI_1_INTERNAL_TX_INT_ENABLED */
  84:Generated_Source\PSoC5/SPI_1.c **** 
  85:Generated_Source\PSoC5/SPI_1.c ****     #if(SPI_1_INTERNAL_RX_INT_ENABLED)
  86:Generated_Source\PSoC5/SPI_1.c **** 
  87:Generated_Source\PSoC5/SPI_1.c ****         CyIntDisable(SPI_1_RX_ISR_NUMBER);
ARM GAS  C:\Users\Lasse\AppData\Local\Temp\ccNmmdC1.s 			page 3


  88:Generated_Source\PSoC5/SPI_1.c **** 
  89:Generated_Source\PSoC5/SPI_1.c ****         /* Set the ISR to point to the SPI_1_isr Interrupt. */
  90:Generated_Source\PSoC5/SPI_1.c ****         (void)CyIntSetVector(SPI_1_RX_ISR_NUMBER, &SPI_1_RX_ISR);
  91:Generated_Source\PSoC5/SPI_1.c **** 
  92:Generated_Source\PSoC5/SPI_1.c ****         /* Set the priority. */
  93:Generated_Source\PSoC5/SPI_1.c ****         CyIntSetPriority(SPI_1_RX_ISR_NUMBER, SPI_1_RX_ISR_PRIORITY);
  94:Generated_Source\PSoC5/SPI_1.c **** 
  95:Generated_Source\PSoC5/SPI_1.c ****     #endif /* SPI_1_INTERNAL_RX_INT_ENABLED */
  96:Generated_Source\PSoC5/SPI_1.c **** 
  97:Generated_Source\PSoC5/SPI_1.c ****     /* Clear any stray data from the RX and TX FIFO */
  98:Generated_Source\PSoC5/SPI_1.c ****     SPI_1_ClearFIFO();
  99:Generated_Source\PSoC5/SPI_1.c **** 
 100:Generated_Source\PSoC5/SPI_1.c ****     #if(SPI_1_RX_SOFTWARE_BUF_ENABLED)
 101:Generated_Source\PSoC5/SPI_1.c ****         SPI_1_rxBufferFull = 0u;
 102:Generated_Source\PSoC5/SPI_1.c ****         SPI_1_rxBufferRead = 0u;
 103:Generated_Source\PSoC5/SPI_1.c ****         SPI_1_rxBufferWrite = 0u;
 104:Generated_Source\PSoC5/SPI_1.c ****     #endif /* SPI_1_RX_SOFTWARE_BUF_ENABLED */
 105:Generated_Source\PSoC5/SPI_1.c **** 
 106:Generated_Source\PSoC5/SPI_1.c ****     #if(SPI_1_TX_SOFTWARE_BUF_ENABLED)
 107:Generated_Source\PSoC5/SPI_1.c ****         SPI_1_txBufferFull = 0u;
 108:Generated_Source\PSoC5/SPI_1.c ****         SPI_1_txBufferRead = 0u;
 109:Generated_Source\PSoC5/SPI_1.c ****         SPI_1_txBufferWrite = 0u;
 110:Generated_Source\PSoC5/SPI_1.c ****     #endif /* SPI_1_TX_SOFTWARE_BUF_ENABLED */
 111:Generated_Source\PSoC5/SPI_1.c **** 
 112:Generated_Source\PSoC5/SPI_1.c ****     (void) SPI_1_ReadTxStatus(); /* Clear any pending status bits */
 113:Generated_Source\PSoC5/SPI_1.c ****     (void) SPI_1_ReadRxStatus(); /* Clear any pending status bits */
 114:Generated_Source\PSoC5/SPI_1.c **** 
 115:Generated_Source\PSoC5/SPI_1.c **** 
 116:Generated_Source\PSoC5/SPI_1.c ****     /* Configure the Initial interrupt mask */
 117:Generated_Source\PSoC5/SPI_1.c ****     #if (SPI_1_TX_SOFTWARE_BUF_ENABLED)
 118:Generated_Source\PSoC5/SPI_1.c ****         SPI_1_TX_STATUS_MASK_REG  = (SPI_1_TX_INIT_INTERRUPTS_MASK &
 119:Generated_Source\PSoC5/SPI_1.c ****                                                 (uint8)~SPI_1_STS_TX_FIFO_NOT_FULL);
 120:Generated_Source\PSoC5/SPI_1.c ****     #else /* SPI_1_TX_SOFTWARE_BUF_ENABLED */
 121:Generated_Source\PSoC5/SPI_1.c ****         SPI_1_TX_STATUS_MASK_REG  = SPI_1_TX_INIT_INTERRUPTS_MASK;
 122:Generated_Source\PSoC5/SPI_1.c ****     #endif /* SPI_1_TX_SOFTWARE_BUF_ENABLED */
 123:Generated_Source\PSoC5/SPI_1.c **** 
 124:Generated_Source\PSoC5/SPI_1.c ****     SPI_1_RX_STATUS_MASK_REG  = SPI_1_RX_INIT_INTERRUPTS_MASK;
 125:Generated_Source\PSoC5/SPI_1.c **** }
 126:Generated_Source\PSoC5/SPI_1.c **** 
 127:Generated_Source\PSoC5/SPI_1.c **** 
 128:Generated_Source\PSoC5/SPI_1.c **** /*******************************************************************************
 129:Generated_Source\PSoC5/SPI_1.c **** * Function Name: SPI_1_Enable
 130:Generated_Source\PSoC5/SPI_1.c **** ********************************************************************************
 131:Generated_Source\PSoC5/SPI_1.c **** *
 132:Generated_Source\PSoC5/SPI_1.c **** * Summary:
 133:Generated_Source\PSoC5/SPI_1.c **** *  Enable SPIS component.
 134:Generated_Source\PSoC5/SPI_1.c **** *
 135:Generated_Source\PSoC5/SPI_1.c **** * Parameters:
 136:Generated_Source\PSoC5/SPI_1.c **** *  None.
 137:Generated_Source\PSoC5/SPI_1.c **** *
 138:Generated_Source\PSoC5/SPI_1.c **** * Return:
 139:Generated_Source\PSoC5/SPI_1.c **** *  None.
 140:Generated_Source\PSoC5/SPI_1.c **** *
 141:Generated_Source\PSoC5/SPI_1.c **** *******************************************************************************/
 142:Generated_Source\PSoC5/SPI_1.c **** void SPI_1_Enable(void) 
 143:Generated_Source\PSoC5/SPI_1.c **** {
  28              		.loc 1 143 0
ARM GAS  C:\Users\Lasse\AppData\Local\Temp\ccNmmdC1.s 			page 4


  29              		.cfi_startproc
  30              		@ args = 0, pretend = 0, frame = 0
  31              		@ frame_needed = 0, uses_anonymous_args = 0
  32 0000 08B5     		push	{r3, lr}
  33              		.cfi_def_cfa_offset 8
  34              		.cfi_offset 3, -8
  35              		.cfi_offset 14, -4
 144:Generated_Source\PSoC5/SPI_1.c ****     uint8 enableInterrupts;
 145:Generated_Source\PSoC5/SPI_1.c ****     enableInterrupts = CyEnterCriticalSection();
  36              		.loc 1 145 0
  37 0002 FFF7FEFF 		bl	CyEnterCriticalSection
  38              	.LVL0:
 146:Generated_Source\PSoC5/SPI_1.c **** 
 147:Generated_Source\PSoC5/SPI_1.c ****     SPI_1_COUNTER_CONTROL_REG |= SPI_1_CNTR_ENABLE;
  39              		.loc 1 147 0
  40 0006 0B4A     		ldr	r2, .L3
  41 0008 1378     		ldrb	r3, [r2]	@ zero_extendqisi2
  42 000a 43F02003 		orr	r3, r3, #32
  43 000e 1370     		strb	r3, [r2]
 148:Generated_Source\PSoC5/SPI_1.c ****     SPI_1_TX_STATUS_ACTL_REG |= SPI_1_INT_ENABLE;
  44              		.loc 1 148 0
  45 0010 FC32     		adds	r2, r2, #252
  46 0012 1378     		ldrb	r3, [r2]	@ zero_extendqisi2
  47 0014 43F01003 		orr	r3, r3, #16
  48 0018 1370     		strb	r3, [r2]
 149:Generated_Source\PSoC5/SPI_1.c ****     SPI_1_RX_STATUS_ACTL_REG |= SPI_1_INT_ENABLE;
  49              		.loc 1 149 0
  50 001a A2F58072 		sub	r2, r2, #256
  51 001e 1378     		ldrb	r3, [r2]	@ zero_extendqisi2
  52 0020 43F01003 		orr	r3, r3, #16
  53 0024 1370     		strb	r3, [r2]
 150:Generated_Source\PSoC5/SPI_1.c **** 
 151:Generated_Source\PSoC5/SPI_1.c ****     CyExitCriticalSection(enableInterrupts);
  54              		.loc 1 151 0
  55 0026 FFF7FEFF 		bl	CyExitCriticalSection
  56              	.LVL1:
 152:Generated_Source\PSoC5/SPI_1.c **** 
 153:Generated_Source\PSoC5/SPI_1.c ****     #if(SPI_1_INTERNAL_TX_INT_ENABLED)
 154:Generated_Source\PSoC5/SPI_1.c ****         CyIntEnable(SPI_1_TX_ISR_NUMBER);
 155:Generated_Source\PSoC5/SPI_1.c ****     #endif /* SPI_1_INTERNAL_TX_INT_ENABLED */
 156:Generated_Source\PSoC5/SPI_1.c **** 
 157:Generated_Source\PSoC5/SPI_1.c ****     #if(SPI_1_INTERNAL_RX_INT_ENABLED)
 158:Generated_Source\PSoC5/SPI_1.c ****         CyIntEnable(SPI_1_RX_ISR_NUMBER);
  57              		.loc 1 158 0
  58 002a 4FF48072 		mov	r2, #256
  59 002e 024B     		ldr	r3, .L3+4
  60 0030 1A60     		str	r2, [r3]
  61 0032 08BD     		pop	{r3, pc}
  62              	.L4:
  63              		.align	2
  64              	.L3:
  65 0034 9C640040 		.word	1073767580
  66 0038 00E100E0 		.word	-536813312
  67              		.cfi_endproc
  68              	.LFE1:
  69              		.size	SPI_1_Enable, .-SPI_1_Enable
  70              		.section	.text.SPI_1_Stop,"ax",%progbits
ARM GAS  C:\Users\Lasse\AppData\Local\Temp\ccNmmdC1.s 			page 5


  71              		.align	2
  72              		.global	SPI_1_Stop
  73              		.thumb
  74              		.thumb_func
  75              		.type	SPI_1_Stop, %function
  76              	SPI_1_Stop:
  77              	.LFB3:
 159:Generated_Source\PSoC5/SPI_1.c ****     #endif /* SPI_1_INTERNAL_RX_INT_ENABLED */
 160:Generated_Source\PSoC5/SPI_1.c **** }
 161:Generated_Source\PSoC5/SPI_1.c **** 
 162:Generated_Source\PSoC5/SPI_1.c **** 
 163:Generated_Source\PSoC5/SPI_1.c **** /*******************************************************************************
 164:Generated_Source\PSoC5/SPI_1.c **** * Function Name: SPI_1_Start
 165:Generated_Source\PSoC5/SPI_1.c **** ********************************************************************************
 166:Generated_Source\PSoC5/SPI_1.c **** *
 167:Generated_Source\PSoC5/SPI_1.c **** * Summary:
 168:Generated_Source\PSoC5/SPI_1.c **** *  Initialize and Enable the SPI Slave component.
 169:Generated_Source\PSoC5/SPI_1.c **** *
 170:Generated_Source\PSoC5/SPI_1.c **** * Parameters:
 171:Generated_Source\PSoC5/SPI_1.c **** *  None.
 172:Generated_Source\PSoC5/SPI_1.c **** *
 173:Generated_Source\PSoC5/SPI_1.c **** * Return:
 174:Generated_Source\PSoC5/SPI_1.c **** *  None.
 175:Generated_Source\PSoC5/SPI_1.c **** *
 176:Generated_Source\PSoC5/SPI_1.c **** * Global variables:
 177:Generated_Source\PSoC5/SPI_1.c **** *  SPI_1_initVar - used to check initial configuration, modified on
 178:Generated_Source\PSoC5/SPI_1.c **** *  first function call.
 179:Generated_Source\PSoC5/SPI_1.c **** *
 180:Generated_Source\PSoC5/SPI_1.c **** * Theory:
 181:Generated_Source\PSoC5/SPI_1.c **** *  Enable the clock input to enable operation.
 182:Generated_Source\PSoC5/SPI_1.c **** *
 183:Generated_Source\PSoC5/SPI_1.c **** * Reentrant:
 184:Generated_Source\PSoC5/SPI_1.c **** *  No.
 185:Generated_Source\PSoC5/SPI_1.c **** *
 186:Generated_Source\PSoC5/SPI_1.c **** *******************************************************************************/
 187:Generated_Source\PSoC5/SPI_1.c **** void SPI_1_Start(void) 
 188:Generated_Source\PSoC5/SPI_1.c **** {
 189:Generated_Source\PSoC5/SPI_1.c ****     if(SPI_1_initVar == 0u)
 190:Generated_Source\PSoC5/SPI_1.c ****     {
 191:Generated_Source\PSoC5/SPI_1.c ****         SPI_1_Init();
 192:Generated_Source\PSoC5/SPI_1.c ****         SPI_1_initVar = 1u;
 193:Generated_Source\PSoC5/SPI_1.c ****     }
 194:Generated_Source\PSoC5/SPI_1.c **** 
 195:Generated_Source\PSoC5/SPI_1.c ****     SPI_1_Enable();
 196:Generated_Source\PSoC5/SPI_1.c **** }
 197:Generated_Source\PSoC5/SPI_1.c **** 
 198:Generated_Source\PSoC5/SPI_1.c **** 
 199:Generated_Source\PSoC5/SPI_1.c **** /*******************************************************************************
 200:Generated_Source\PSoC5/SPI_1.c **** * Function Name: SPI_1_Stop
 201:Generated_Source\PSoC5/SPI_1.c **** ********************************************************************************
 202:Generated_Source\PSoC5/SPI_1.c **** *
 203:Generated_Source\PSoC5/SPI_1.c **** * Summary:
 204:Generated_Source\PSoC5/SPI_1.c **** *  Disable the SPI Slave component.
 205:Generated_Source\PSoC5/SPI_1.c **** *
 206:Generated_Source\PSoC5/SPI_1.c **** * Parameters:
 207:Generated_Source\PSoC5/SPI_1.c **** *  None.
 208:Generated_Source\PSoC5/SPI_1.c **** *
ARM GAS  C:\Users\Lasse\AppData\Local\Temp\ccNmmdC1.s 			page 6


 209:Generated_Source\PSoC5/SPI_1.c **** * Return:
 210:Generated_Source\PSoC5/SPI_1.c **** *  None.
 211:Generated_Source\PSoC5/SPI_1.c **** *
 212:Generated_Source\PSoC5/SPI_1.c **** * Theory:
 213:Generated_Source\PSoC5/SPI_1.c **** *  Disable the internal interrupt if one is used.
 214:Generated_Source\PSoC5/SPI_1.c **** *
 215:Generated_Source\PSoC5/SPI_1.c **** *******************************************************************************/
 216:Generated_Source\PSoC5/SPI_1.c **** void SPI_1_Stop(void) 
 217:Generated_Source\PSoC5/SPI_1.c **** {
  78              		.loc 1 217 0
  79              		.cfi_startproc
  80              		@ args = 0, pretend = 0, frame = 0
  81              		@ frame_needed = 0, uses_anonymous_args = 0
  82 0000 08B5     		push	{r3, lr}
  83              		.cfi_def_cfa_offset 8
  84              		.cfi_offset 3, -8
  85              		.cfi_offset 14, -4
 218:Generated_Source\PSoC5/SPI_1.c ****     uint8 enableInterrupts;
 219:Generated_Source\PSoC5/SPI_1.c ****     enableInterrupts = CyEnterCriticalSection();
  86              		.loc 1 219 0
  87 0002 FFF7FEFF 		bl	CyEnterCriticalSection
  88              	.LVL2:
 220:Generated_Source\PSoC5/SPI_1.c **** 
 221:Generated_Source\PSoC5/SPI_1.c ****     SPI_1_TX_STATUS_ACTL_REG &= (uint8)~SPI_1_INT_ENABLE;
  89              		.loc 1 221 0
  90 0006 094A     		ldr	r2, .L7
  91 0008 1378     		ldrb	r3, [r2]	@ zero_extendqisi2
  92 000a 03F0EF03 		and	r3, r3, #239
  93 000e 1370     		strb	r3, [r2]
 222:Generated_Source\PSoC5/SPI_1.c ****     SPI_1_RX_STATUS_ACTL_REG &= (uint8)~SPI_1_INT_ENABLE;
  94              		.loc 1 222 0
  95 0010 A2F58072 		sub	r2, r2, #256
  96 0014 1378     		ldrb	r3, [r2]	@ zero_extendqisi2
  97 0016 03F0EF03 		and	r3, r3, #239
  98 001a 1370     		strb	r3, [r2]
 223:Generated_Source\PSoC5/SPI_1.c **** 
 224:Generated_Source\PSoC5/SPI_1.c ****     CyExitCriticalSection(enableInterrupts);
  99              		.loc 1 224 0
 100 001c FFF7FEFF 		bl	CyExitCriticalSection
 101              	.LVL3:
 225:Generated_Source\PSoC5/SPI_1.c **** 
 226:Generated_Source\PSoC5/SPI_1.c ****     #if(SPI_1_INTERNAL_TX_INT_ENABLED)
 227:Generated_Source\PSoC5/SPI_1.c ****         CyIntDisable(SPI_1_TX_ISR_NUMBER);
 228:Generated_Source\PSoC5/SPI_1.c ****     #endif /* SPI_1_INTERNAL_TX_INT_ENABLED */
 229:Generated_Source\PSoC5/SPI_1.c **** 
 230:Generated_Source\PSoC5/SPI_1.c ****     #if(SPI_1_INTERNAL_RX_INT_ENABLED)
 231:Generated_Source\PSoC5/SPI_1.c ****         CyIntDisable(SPI_1_RX_ISR_NUMBER);
 102              		.loc 1 231 0
 103 0020 4FF48072 		mov	r2, #256
 104 0024 024B     		ldr	r3, .L7+4
 105 0026 1A60     		str	r2, [r3]
 106 0028 08BD     		pop	{r3, pc}
 107              	.L8:
 108 002a 00BF     		.align	2
 109              	.L7:
 110 002c 98650040 		.word	1073767832
 111 0030 80E100E0 		.word	-536813184
ARM GAS  C:\Users\Lasse\AppData\Local\Temp\ccNmmdC1.s 			page 7


 112              		.cfi_endproc
 113              	.LFE3:
 114              		.size	SPI_1_Stop, .-SPI_1_Stop
 115              		.section	.text.SPI_1_EnableTxInt,"ax",%progbits
 116              		.align	2
 117              		.global	SPI_1_EnableTxInt
 118              		.thumb
 119              		.thumb_func
 120              		.type	SPI_1_EnableTxInt, %function
 121              	SPI_1_EnableTxInt:
 122              	.LFB4:
 232:Generated_Source\PSoC5/SPI_1.c ****     #endif /* SPI_1_INTERNAL_RX_INT_ENABLED */
 233:Generated_Source\PSoC5/SPI_1.c **** }
 234:Generated_Source\PSoC5/SPI_1.c **** 
 235:Generated_Source\PSoC5/SPI_1.c **** 
 236:Generated_Source\PSoC5/SPI_1.c **** /*******************************************************************************
 237:Generated_Source\PSoC5/SPI_1.c **** * Function Name: SPI_1_EnableTxInt
 238:Generated_Source\PSoC5/SPI_1.c **** ********************************************************************************
 239:Generated_Source\PSoC5/SPI_1.c **** *
 240:Generated_Source\PSoC5/SPI_1.c **** * Summary:
 241:Generated_Source\PSoC5/SPI_1.c **** *  Enable internal Tx interrupt generation.
 242:Generated_Source\PSoC5/SPI_1.c **** *
 243:Generated_Source\PSoC5/SPI_1.c **** * Parameters:
 244:Generated_Source\PSoC5/SPI_1.c **** *  None.
 245:Generated_Source\PSoC5/SPI_1.c **** *
 246:Generated_Source\PSoC5/SPI_1.c **** * Return:
 247:Generated_Source\PSoC5/SPI_1.c **** *  None.
 248:Generated_Source\PSoC5/SPI_1.c **** *
 249:Generated_Source\PSoC5/SPI_1.c **** * Theory:
 250:Generated_Source\PSoC5/SPI_1.c **** *  Enable the internal Tx interrupt output -or- the interrupt component itself.
 251:Generated_Source\PSoC5/SPI_1.c **** *
 252:Generated_Source\PSoC5/SPI_1.c **** *******************************************************************************/
 253:Generated_Source\PSoC5/SPI_1.c **** void SPI_1_EnableTxInt(void) 
 254:Generated_Source\PSoC5/SPI_1.c **** {
 123              		.loc 1 254 0
 124              		.cfi_startproc
 125              		@ args = 0, pretend = 0, frame = 0
 126              		@ frame_needed = 0, uses_anonymous_args = 0
 127              		@ link register save eliminated.
 128 0000 7047     		bx	lr
 129              		.cfi_endproc
 130              	.LFE4:
 131              		.size	SPI_1_EnableTxInt, .-SPI_1_EnableTxInt
 132 0002 00BF     		.section	.text.SPI_1_EnableRxInt,"ax",%progbits
 133              		.align	2
 134              		.global	SPI_1_EnableRxInt
 135              		.thumb
 136              		.thumb_func
 137              		.type	SPI_1_EnableRxInt, %function
 138              	SPI_1_EnableRxInt:
 139              	.LFB5:
 255:Generated_Source\PSoC5/SPI_1.c ****     #if(SPI_1_INTERNAL_TX_INT_ENABLED)
 256:Generated_Source\PSoC5/SPI_1.c ****         CyIntEnable(SPI_1_TX_ISR_NUMBER);
 257:Generated_Source\PSoC5/SPI_1.c ****     #endif /* SPI_1_INTERNAL_TX_INT_ENABLED */
 258:Generated_Source\PSoC5/SPI_1.c **** }
 259:Generated_Source\PSoC5/SPI_1.c **** 
 260:Generated_Source\PSoC5/SPI_1.c **** 
ARM GAS  C:\Users\Lasse\AppData\Local\Temp\ccNmmdC1.s 			page 8


 261:Generated_Source\PSoC5/SPI_1.c **** /*******************************************************************************
 262:Generated_Source\PSoC5/SPI_1.c **** * Function Name: SPI_1_EnableRxInt
 263:Generated_Source\PSoC5/SPI_1.c **** ********************************************************************************
 264:Generated_Source\PSoC5/SPI_1.c **** *
 265:Generated_Source\PSoC5/SPI_1.c **** * Summary:
 266:Generated_Source\PSoC5/SPI_1.c **** *  Enable internal Rx interrupt generation.
 267:Generated_Source\PSoC5/SPI_1.c **** *
 268:Generated_Source\PSoC5/SPI_1.c **** * Parameters:
 269:Generated_Source\PSoC5/SPI_1.c **** *  None.
 270:Generated_Source\PSoC5/SPI_1.c **** *
 271:Generated_Source\PSoC5/SPI_1.c **** * Return:
 272:Generated_Source\PSoC5/SPI_1.c **** *  None.
 273:Generated_Source\PSoC5/SPI_1.c **** *
 274:Generated_Source\PSoC5/SPI_1.c **** * Theory:
 275:Generated_Source\PSoC5/SPI_1.c **** *  Enable the internal Rx interrupt output -or- the interrupt component itself.
 276:Generated_Source\PSoC5/SPI_1.c **** *
 277:Generated_Source\PSoC5/SPI_1.c **** *******************************************************************************/
 278:Generated_Source\PSoC5/SPI_1.c **** void SPI_1_EnableRxInt(void) 
 279:Generated_Source\PSoC5/SPI_1.c **** {
 140              		.loc 1 279 0
 141              		.cfi_startproc
 142              		@ args = 0, pretend = 0, frame = 0
 143              		@ frame_needed = 0, uses_anonymous_args = 0
 144              		@ link register save eliminated.
 280:Generated_Source\PSoC5/SPI_1.c ****     #if(SPI_1_INTERNAL_RX_INT_ENABLED)
 281:Generated_Source\PSoC5/SPI_1.c ****         CyIntEnable(SPI_1_RX_ISR_NUMBER);
 145              		.loc 1 281 0
 146 0000 4FF48072 		mov	r2, #256
 147 0004 014B     		ldr	r3, .L11
 148 0006 1A60     		str	r2, [r3]
 149 0008 7047     		bx	lr
 150              	.L12:
 151 000a 00BF     		.align	2
 152              	.L11:
 153 000c 00E100E0 		.word	-536813312
 154              		.cfi_endproc
 155              	.LFE5:
 156              		.size	SPI_1_EnableRxInt, .-SPI_1_EnableRxInt
 157              		.section	.text.SPI_1_DisableTxInt,"ax",%progbits
 158              		.align	2
 159              		.global	SPI_1_DisableTxInt
 160              		.thumb
 161              		.thumb_func
 162              		.type	SPI_1_DisableTxInt, %function
 163              	SPI_1_DisableTxInt:
 164              	.LFB6:
 282:Generated_Source\PSoC5/SPI_1.c ****     #endif /* SPI_1_INTERNAL_RX_INT_ENABLED */
 283:Generated_Source\PSoC5/SPI_1.c **** }
 284:Generated_Source\PSoC5/SPI_1.c **** 
 285:Generated_Source\PSoC5/SPI_1.c **** 
 286:Generated_Source\PSoC5/SPI_1.c **** /*******************************************************************************
 287:Generated_Source\PSoC5/SPI_1.c **** * Function Name: SPI_1_DisableTxInt
 288:Generated_Source\PSoC5/SPI_1.c **** ********************************************************************************
 289:Generated_Source\PSoC5/SPI_1.c **** *
 290:Generated_Source\PSoC5/SPI_1.c **** * Summary:
 291:Generated_Source\PSoC5/SPI_1.c **** *  Disable internal Tx interrupt generation.
 292:Generated_Source\PSoC5/SPI_1.c **** *
ARM GAS  C:\Users\Lasse\AppData\Local\Temp\ccNmmdC1.s 			page 9


 293:Generated_Source\PSoC5/SPI_1.c **** * Parameters:
 294:Generated_Source\PSoC5/SPI_1.c **** *  None.
 295:Generated_Source\PSoC5/SPI_1.c **** *
 296:Generated_Source\PSoC5/SPI_1.c **** * Return:
 297:Generated_Source\PSoC5/SPI_1.c **** *  None.
 298:Generated_Source\PSoC5/SPI_1.c **** *
 299:Generated_Source\PSoC5/SPI_1.c **** * Theory:
 300:Generated_Source\PSoC5/SPI_1.c **** *  Disable the internal Tx interrupt output -or- the interrupt component itself.
 301:Generated_Source\PSoC5/SPI_1.c **** *
 302:Generated_Source\PSoC5/SPI_1.c **** *******************************************************************************/
 303:Generated_Source\PSoC5/SPI_1.c **** void SPI_1_DisableTxInt(void) 
 304:Generated_Source\PSoC5/SPI_1.c **** {
 165              		.loc 1 304 0
 166              		.cfi_startproc
 167              		@ args = 0, pretend = 0, frame = 0
 168              		@ frame_needed = 0, uses_anonymous_args = 0
 169              		@ link register save eliminated.
 170 0000 7047     		bx	lr
 171              		.cfi_endproc
 172              	.LFE6:
 173              		.size	SPI_1_DisableTxInt, .-SPI_1_DisableTxInt
 174 0002 00BF     		.section	.text.SPI_1_DisableRxInt,"ax",%progbits
 175              		.align	2
 176              		.global	SPI_1_DisableRxInt
 177              		.thumb
 178              		.thumb_func
 179              		.type	SPI_1_DisableRxInt, %function
 180              	SPI_1_DisableRxInt:
 181              	.LFB7:
 305:Generated_Source\PSoC5/SPI_1.c ****     #if(SPI_1_INTERNAL_TX_INT_ENABLED)
 306:Generated_Source\PSoC5/SPI_1.c ****         CyIntDisable(SPI_1_TX_ISR_NUMBER);
 307:Generated_Source\PSoC5/SPI_1.c ****     #endif /* SPI_1_INTERNAL_TX_INT_ENABLED */
 308:Generated_Source\PSoC5/SPI_1.c **** }
 309:Generated_Source\PSoC5/SPI_1.c **** 
 310:Generated_Source\PSoC5/SPI_1.c **** 
 311:Generated_Source\PSoC5/SPI_1.c **** /*******************************************************************************
 312:Generated_Source\PSoC5/SPI_1.c **** * Function Name: SPI_1_DisableRxInt
 313:Generated_Source\PSoC5/SPI_1.c **** ********************************************************************************
 314:Generated_Source\PSoC5/SPI_1.c **** *
 315:Generated_Source\PSoC5/SPI_1.c **** * Summary:
 316:Generated_Source\PSoC5/SPI_1.c **** *  Disable internal Rx interrupt generation.
 317:Generated_Source\PSoC5/SPI_1.c **** *
 318:Generated_Source\PSoC5/SPI_1.c **** * Parameters:
 319:Generated_Source\PSoC5/SPI_1.c **** *  None.
 320:Generated_Source\PSoC5/SPI_1.c **** *
 321:Generated_Source\PSoC5/SPI_1.c **** * Return:
 322:Generated_Source\PSoC5/SPI_1.c **** *  None.
 323:Generated_Source\PSoC5/SPI_1.c **** *
 324:Generated_Source\PSoC5/SPI_1.c **** * Theory:
 325:Generated_Source\PSoC5/SPI_1.c **** *  Disable the internal Rx interrupt output -or- the interrupt component itself.
 326:Generated_Source\PSoC5/SPI_1.c **** *
 327:Generated_Source\PSoC5/SPI_1.c **** *******************************************************************************/
 328:Generated_Source\PSoC5/SPI_1.c **** void SPI_1_DisableRxInt(void) 
 329:Generated_Source\PSoC5/SPI_1.c **** {
 182              		.loc 1 329 0
 183              		.cfi_startproc
 184              		@ args = 0, pretend = 0, frame = 0
ARM GAS  C:\Users\Lasse\AppData\Local\Temp\ccNmmdC1.s 			page 10


 185              		@ frame_needed = 0, uses_anonymous_args = 0
 186              		@ link register save eliminated.
 330:Generated_Source\PSoC5/SPI_1.c ****     #if(SPI_1_INTERNAL_RX_INT_ENABLED)
 331:Generated_Source\PSoC5/SPI_1.c ****         CyIntDisable(SPI_1_RX_ISR_NUMBER);
 187              		.loc 1 331 0
 188 0000 4FF48072 		mov	r2, #256
 189 0004 014B     		ldr	r3, .L15
 190 0006 1A60     		str	r2, [r3]
 191 0008 7047     		bx	lr
 192              	.L16:
 193 000a 00BF     		.align	2
 194              	.L15:
 195 000c 80E100E0 		.word	-536813184
 196              		.cfi_endproc
 197              	.LFE7:
 198              		.size	SPI_1_DisableRxInt, .-SPI_1_DisableRxInt
 199              		.section	.text.SPI_1_SetTxInterruptMode,"ax",%progbits
 200              		.align	2
 201              		.global	SPI_1_SetTxInterruptMode
 202              		.thumb
 203              		.thumb_func
 204              		.type	SPI_1_SetTxInterruptMode, %function
 205              	SPI_1_SetTxInterruptMode:
 206              	.LFB8:
 332:Generated_Source\PSoC5/SPI_1.c ****     #endif /* SPI_1_INTERNAL_RX_INT_ENABLED */
 333:Generated_Source\PSoC5/SPI_1.c **** }
 334:Generated_Source\PSoC5/SPI_1.c **** 
 335:Generated_Source\PSoC5/SPI_1.c **** 
 336:Generated_Source\PSoC5/SPI_1.c **** /*******************************************************************************
 337:Generated_Source\PSoC5/SPI_1.c **** * Function Name: SPI_1_SetTxInterruptMode
 338:Generated_Source\PSoC5/SPI_1.c **** ********************************************************************************
 339:Generated_Source\PSoC5/SPI_1.c **** *
 340:Generated_Source\PSoC5/SPI_1.c **** * Summary:
 341:Generated_Source\PSoC5/SPI_1.c **** *  Configure which status bits trigger an interrupt event.
 342:Generated_Source\PSoC5/SPI_1.c **** *
 343:Generated_Source\PSoC5/SPI_1.c **** * Parameters:
 344:Generated_Source\PSoC5/SPI_1.c **** *  intSrc: An or'd combination of the desired status bit masks (defined in the
 345:Generated_Source\PSoC5/SPI_1.c **** *  header file).
 346:Generated_Source\PSoC5/SPI_1.c **** *
 347:Generated_Source\PSoC5/SPI_1.c **** * Return:
 348:Generated_Source\PSoC5/SPI_1.c **** *  None.
 349:Generated_Source\PSoC5/SPI_1.c **** *
 350:Generated_Source\PSoC5/SPI_1.c **** * Theory:
 351:Generated_Source\PSoC5/SPI_1.c **** *  Enables the output of specific status bits to the interrupt controller.
 352:Generated_Source\PSoC5/SPI_1.c **** *
 353:Generated_Source\PSoC5/SPI_1.c **** *******************************************************************************/
 354:Generated_Source\PSoC5/SPI_1.c **** void SPI_1_SetTxInterruptMode(uint8 intSrc) 
 355:Generated_Source\PSoC5/SPI_1.c **** {
 207              		.loc 1 355 0
 208              		.cfi_startproc
 209              		@ args = 0, pretend = 0, frame = 0
 210              		@ frame_needed = 0, uses_anonymous_args = 0
 211              		@ link register save eliminated.
 212              	.LVL4:
 356:Generated_Source\PSoC5/SPI_1.c ****     SPI_1_TX_STATUS_MASK_REG  = intSrc;
 213              		.loc 1 356 0
 214 0000 014B     		ldr	r3, .L18
ARM GAS  C:\Users\Lasse\AppData\Local\Temp\ccNmmdC1.s 			page 11


 215 0002 1870     		strb	r0, [r3]
 216 0004 7047     		bx	lr
 217              	.L19:
 218 0006 00BF     		.align	2
 219              	.L18:
 220 0008 88650040 		.word	1073767816
 221              		.cfi_endproc
 222              	.LFE8:
 223              		.size	SPI_1_SetTxInterruptMode, .-SPI_1_SetTxInterruptMode
 224              		.section	.text.SPI_1_SetRxInterruptMode,"ax",%progbits
 225              		.align	2
 226              		.global	SPI_1_SetRxInterruptMode
 227              		.thumb
 228              		.thumb_func
 229              		.type	SPI_1_SetRxInterruptMode, %function
 230              	SPI_1_SetRxInterruptMode:
 231              	.LFB9:
 357:Generated_Source\PSoC5/SPI_1.c **** }
 358:Generated_Source\PSoC5/SPI_1.c **** 
 359:Generated_Source\PSoC5/SPI_1.c **** 
 360:Generated_Source\PSoC5/SPI_1.c **** /*******************************************************************************
 361:Generated_Source\PSoC5/SPI_1.c **** * Function Name: SPI_1_SetRxInterruptMode
 362:Generated_Source\PSoC5/SPI_1.c **** ********************************************************************************
 363:Generated_Source\PSoC5/SPI_1.c **** *
 364:Generated_Source\PSoC5/SPI_1.c **** * Summary:
 365:Generated_Source\PSoC5/SPI_1.c **** *  Configure which status bits trigger an interrupt event.
 366:Generated_Source\PSoC5/SPI_1.c **** *
 367:Generated_Source\PSoC5/SPI_1.c **** * Parameters:
 368:Generated_Source\PSoC5/SPI_1.c **** *  intSrc: An or'd combination of the desired status bit masks (defined in the
 369:Generated_Source\PSoC5/SPI_1.c **** *  header file).
 370:Generated_Source\PSoC5/SPI_1.c **** *
 371:Generated_Source\PSoC5/SPI_1.c **** * Return:
 372:Generated_Source\PSoC5/SPI_1.c **** *  None.
 373:Generated_Source\PSoC5/SPI_1.c **** *
 374:Generated_Source\PSoC5/SPI_1.c **** * Theory:
 375:Generated_Source\PSoC5/SPI_1.c **** *  Enables the output of specific status bits to the interrupt controller.
 376:Generated_Source\PSoC5/SPI_1.c **** *
 377:Generated_Source\PSoC5/SPI_1.c **** *******************************************************************************/
 378:Generated_Source\PSoC5/SPI_1.c **** void SPI_1_SetRxInterruptMode(uint8 intSrc) 
 379:Generated_Source\PSoC5/SPI_1.c **** {
 232              		.loc 1 379 0
 233              		.cfi_startproc
 234              		@ args = 0, pretend = 0, frame = 0
 235              		@ frame_needed = 0, uses_anonymous_args = 0
 236              		@ link register save eliminated.
 237              	.LVL5:
 380:Generated_Source\PSoC5/SPI_1.c ****     SPI_1_RX_STATUS_MASK_REG  = intSrc;
 238              		.loc 1 380 0
 239 0000 014B     		ldr	r3, .L21
 240 0002 1870     		strb	r0, [r3]
 241 0004 7047     		bx	lr
 242              	.L22:
 243 0006 00BF     		.align	2
 244              	.L21:
 245 0008 88640040 		.word	1073767560
 246              		.cfi_endproc
 247              	.LFE9:
ARM GAS  C:\Users\Lasse\AppData\Local\Temp\ccNmmdC1.s 			page 12


 248              		.size	SPI_1_SetRxInterruptMode, .-SPI_1_SetRxInterruptMode
 249              		.section	.text.SPI_1_ReadTxStatus,"ax",%progbits
 250              		.align	2
 251              		.global	SPI_1_ReadTxStatus
 252              		.thumb
 253              		.thumb_func
 254              		.type	SPI_1_ReadTxStatus, %function
 255              	SPI_1_ReadTxStatus:
 256              	.LFB10:
 381:Generated_Source\PSoC5/SPI_1.c **** }
 382:Generated_Source\PSoC5/SPI_1.c **** 
 383:Generated_Source\PSoC5/SPI_1.c **** 
 384:Generated_Source\PSoC5/SPI_1.c **** /*******************************************************************************
 385:Generated_Source\PSoC5/SPI_1.c **** * Function Name: SPI_1_ReadTxStatus
 386:Generated_Source\PSoC5/SPI_1.c **** ********************************************************************************
 387:Generated_Source\PSoC5/SPI_1.c **** *
 388:Generated_Source\PSoC5/SPI_1.c **** * Summary:
 389:Generated_Source\PSoC5/SPI_1.c **** *  Read the Tx status register for the component.
 390:Generated_Source\PSoC5/SPI_1.c **** *
 391:Generated_Source\PSoC5/SPI_1.c **** * Parameters:
 392:Generated_Source\PSoC5/SPI_1.c **** *  None.
 393:Generated_Source\PSoC5/SPI_1.c **** *
 394:Generated_Source\PSoC5/SPI_1.c **** * Return:
 395:Generated_Source\PSoC5/SPI_1.c **** *  Contents of the Tx status register.
 396:Generated_Source\PSoC5/SPI_1.c **** *
 397:Generated_Source\PSoC5/SPI_1.c **** * Global variables:
 398:Generated_Source\PSoC5/SPI_1.c **** *  SPI_1_swStatusTx - used to store in software status register,
 399:Generated_Source\PSoC5/SPI_1.c **** *  modified every function call - resets to zero.
 400:Generated_Source\PSoC5/SPI_1.c **** *
 401:Generated_Source\PSoC5/SPI_1.c **** * Theory:
 402:Generated_Source\PSoC5/SPI_1.c **** *  Allows the user and the API to read the Tx status register for error
 403:Generated_Source\PSoC5/SPI_1.c **** *  detection and flow control.
 404:Generated_Source\PSoC5/SPI_1.c **** *
 405:Generated_Source\PSoC5/SPI_1.c **** * Side Effects:
 406:Generated_Source\PSoC5/SPI_1.c **** *  Clear Tx status register of the component.
 407:Generated_Source\PSoC5/SPI_1.c **** *
 408:Generated_Source\PSoC5/SPI_1.c **** * Reentrant:
 409:Generated_Source\PSoC5/SPI_1.c **** *  No.
 410:Generated_Source\PSoC5/SPI_1.c **** *
 411:Generated_Source\PSoC5/SPI_1.c **** *******************************************************************************/
 412:Generated_Source\PSoC5/SPI_1.c **** uint8 SPI_1_ReadTxStatus(void) 
 413:Generated_Source\PSoC5/SPI_1.c **** {
 257              		.loc 1 413 0
 258              		.cfi_startproc
 259              		@ args = 0, pretend = 0, frame = 0
 260              		@ frame_needed = 0, uses_anonymous_args = 0
 261              		@ link register save eliminated.
 414:Generated_Source\PSoC5/SPI_1.c ****     uint8 tmpStatus;
 415:Generated_Source\PSoC5/SPI_1.c **** 
 416:Generated_Source\PSoC5/SPI_1.c ****     #if (SPI_1_TX_SOFTWARE_BUF_ENABLED)
 417:Generated_Source\PSoC5/SPI_1.c **** 
 418:Generated_Source\PSoC5/SPI_1.c ****         SPI_1_DisableTxInt();
 419:Generated_Source\PSoC5/SPI_1.c **** 
 420:Generated_Source\PSoC5/SPI_1.c ****         tmpStatus = SPI_1_GET_STATUS_TX(SPI_1_swStatusTx);
 421:Generated_Source\PSoC5/SPI_1.c **** 
 422:Generated_Source\PSoC5/SPI_1.c ****         SPI_1_swStatusTx = 0u;
 423:Generated_Source\PSoC5/SPI_1.c **** 
ARM GAS  C:\Users\Lasse\AppData\Local\Temp\ccNmmdC1.s 			page 13


 424:Generated_Source\PSoC5/SPI_1.c ****         /* Enable Interrupts */
 425:Generated_Source\PSoC5/SPI_1.c ****         SPI_1_EnableTxInt();
 426:Generated_Source\PSoC5/SPI_1.c **** 
 427:Generated_Source\PSoC5/SPI_1.c ****     #else /* !SPI_1_TX_SOFTWARE_BUF_ENABLED */
 428:Generated_Source\PSoC5/SPI_1.c **** 
 429:Generated_Source\PSoC5/SPI_1.c ****         tmpStatus = SPI_1_TX_STATUS_REG;
 262              		.loc 1 429 0
 263 0000 014B     		ldr	r3, .L24
 264 0002 1878     		ldrb	r0, [r3]	@ zero_extendqisi2
 265              	.LVL6:
 430:Generated_Source\PSoC5/SPI_1.c **** 
 431:Generated_Source\PSoC5/SPI_1.c ****     #endif /* SPI_1_TX_SOFTWARE_BUF_ENABLED */
 432:Generated_Source\PSoC5/SPI_1.c **** 
 433:Generated_Source\PSoC5/SPI_1.c ****     return(tmpStatus);
 434:Generated_Source\PSoC5/SPI_1.c **** }
 266              		.loc 1 434 0
 267 0004 7047     		bx	lr
 268              	.L25:
 269 0006 00BF     		.align	2
 270              	.L24:
 271 0008 68650040 		.word	1073767784
 272              		.cfi_endproc
 273              	.LFE10:
 274              		.size	SPI_1_ReadTxStatus, .-SPI_1_ReadTxStatus
 275              		.section	.text.SPI_1_ReadRxStatus,"ax",%progbits
 276              		.align	2
 277              		.global	SPI_1_ReadRxStatus
 278              		.thumb
 279              		.thumb_func
 280              		.type	SPI_1_ReadRxStatus, %function
 281              	SPI_1_ReadRxStatus:
 282              	.LFB11:
 435:Generated_Source\PSoC5/SPI_1.c **** 
 436:Generated_Source\PSoC5/SPI_1.c **** 
 437:Generated_Source\PSoC5/SPI_1.c **** /*******************************************************************************
 438:Generated_Source\PSoC5/SPI_1.c **** * Function Name: SPI_1_ReadRxStatus
 439:Generated_Source\PSoC5/SPI_1.c **** ********************************************************************************
 440:Generated_Source\PSoC5/SPI_1.c **** *
 441:Generated_Source\PSoC5/SPI_1.c **** * Summary:
 442:Generated_Source\PSoC5/SPI_1.c **** *  Read the Rx status register for the component.
 443:Generated_Source\PSoC5/SPI_1.c **** *
 444:Generated_Source\PSoC5/SPI_1.c **** * Parameters:
 445:Generated_Source\PSoC5/SPI_1.c **** *  None.
 446:Generated_Source\PSoC5/SPI_1.c **** *
 447:Generated_Source\PSoC5/SPI_1.c **** * Return:
 448:Generated_Source\PSoC5/SPI_1.c **** *  Contents of the Rx status register.
 449:Generated_Source\PSoC5/SPI_1.c **** *
 450:Generated_Source\PSoC5/SPI_1.c **** * Global variables:
 451:Generated_Source\PSoC5/SPI_1.c **** *  SPI_1_swStatusRx - used to store in software Rx status register,
 452:Generated_Source\PSoC5/SPI_1.c **** *  modified every function call - resets to zero.
 453:Generated_Source\PSoC5/SPI_1.c **** *
 454:Generated_Source\PSoC5/SPI_1.c **** * Theory:
 455:Generated_Source\PSoC5/SPI_1.c **** *  Allows the user and the API to read the Rx status register for error
 456:Generated_Source\PSoC5/SPI_1.c **** *  detection and flow control.
 457:Generated_Source\PSoC5/SPI_1.c **** *
 458:Generated_Source\PSoC5/SPI_1.c **** * Side Effects:
 459:Generated_Source\PSoC5/SPI_1.c **** *  Clear Rx status register of the component.
ARM GAS  C:\Users\Lasse\AppData\Local\Temp\ccNmmdC1.s 			page 14


 460:Generated_Source\PSoC5/SPI_1.c **** *
 461:Generated_Source\PSoC5/SPI_1.c **** * Reentrant:
 462:Generated_Source\PSoC5/SPI_1.c **** *  No.
 463:Generated_Source\PSoC5/SPI_1.c **** *
 464:Generated_Source\PSoC5/SPI_1.c **** *******************************************************************************/
 465:Generated_Source\PSoC5/SPI_1.c **** uint8 SPI_1_ReadRxStatus(void) 
 466:Generated_Source\PSoC5/SPI_1.c **** {
 283              		.loc 1 466 0
 284              		.cfi_startproc
 285              		@ args = 0, pretend = 0, frame = 0
 286              		@ frame_needed = 0, uses_anonymous_args = 0
 287              		@ link register save eliminated.
 467:Generated_Source\PSoC5/SPI_1.c ****     uint8 tmpStatus;
 468:Generated_Source\PSoC5/SPI_1.c **** 
 469:Generated_Source\PSoC5/SPI_1.c ****     #if (SPI_1_RX_SOFTWARE_BUF_ENABLED)
 470:Generated_Source\PSoC5/SPI_1.c **** 
 471:Generated_Source\PSoC5/SPI_1.c ****         SPI_1_DisableRxInt();
 472:Generated_Source\PSoC5/SPI_1.c **** 
 473:Generated_Source\PSoC5/SPI_1.c ****         tmpStatus = SPI_1_GET_STATUS_RX(SPI_1_swStatusRx);
 474:Generated_Source\PSoC5/SPI_1.c **** 
 475:Generated_Source\PSoC5/SPI_1.c ****         SPI_1_swStatusRx = 0u;
 476:Generated_Source\PSoC5/SPI_1.c **** 
 477:Generated_Source\PSoC5/SPI_1.c ****         /* Enable Interrupts */
 478:Generated_Source\PSoC5/SPI_1.c ****         SPI_1_EnableRxInt();
 479:Generated_Source\PSoC5/SPI_1.c **** 
 480:Generated_Source\PSoC5/SPI_1.c ****     #else /* !SPI_1_RX_SOFTWARE_BUF_ENABLED */
 481:Generated_Source\PSoC5/SPI_1.c **** 
 482:Generated_Source\PSoC5/SPI_1.c ****         tmpStatus = SPI_1_RX_STATUS_REG;
 288              		.loc 1 482 0
 289 0000 014B     		ldr	r3, .L27
 290 0002 1878     		ldrb	r0, [r3]	@ zero_extendqisi2
 291              	.LVL7:
 483:Generated_Source\PSoC5/SPI_1.c **** 
 484:Generated_Source\PSoC5/SPI_1.c ****     #endif /* SPI_1_RX_SOFTWARE_BUF_ENABLED */
 485:Generated_Source\PSoC5/SPI_1.c **** 
 486:Generated_Source\PSoC5/SPI_1.c ****     return(tmpStatus);
 487:Generated_Source\PSoC5/SPI_1.c **** }
 292              		.loc 1 487 0
 293 0004 7047     		bx	lr
 294              	.L28:
 295 0006 00BF     		.align	2
 296              	.L27:
 297 0008 68640040 		.word	1073767528
 298              		.cfi_endproc
 299              	.LFE11:
 300              		.size	SPI_1_ReadRxStatus, .-SPI_1_ReadRxStatus
 301              		.section	.text.SPI_1_WriteTxData,"ax",%progbits
 302              		.align	2
 303              		.global	SPI_1_WriteTxData
 304              		.thumb
 305              		.thumb_func
 306              		.type	SPI_1_WriteTxData, %function
 307              	SPI_1_WriteTxData:
 308              	.LFB12:
 488:Generated_Source\PSoC5/SPI_1.c **** 
 489:Generated_Source\PSoC5/SPI_1.c **** 
 490:Generated_Source\PSoC5/SPI_1.c **** /*******************************************************************************
ARM GAS  C:\Users\Lasse\AppData\Local\Temp\ccNmmdC1.s 			page 15


 491:Generated_Source\PSoC5/SPI_1.c **** * Function Name: SPI_1_WriteTxData
 492:Generated_Source\PSoC5/SPI_1.c **** ********************************************************************************
 493:Generated_Source\PSoC5/SPI_1.c **** *
 494:Generated_Source\PSoC5/SPI_1.c **** * Summary:
 495:Generated_Source\PSoC5/SPI_1.c **** *  Write a byte of data to be sent across the SPI.
 496:Generated_Source\PSoC5/SPI_1.c **** *
 497:Generated_Source\PSoC5/SPI_1.c **** * Parameters:
 498:Generated_Source\PSoC5/SPI_1.c **** *  txDataByte: The data value to send across the SPI.
 499:Generated_Source\PSoC5/SPI_1.c **** *
 500:Generated_Source\PSoC5/SPI_1.c **** * Return:
 501:Generated_Source\PSoC5/SPI_1.c **** *  None.
 502:Generated_Source\PSoC5/SPI_1.c **** *
 503:Generated_Source\PSoC5/SPI_1.c **** * Global variables:
 504:Generated_Source\PSoC5/SPI_1.c **** *  SPI_1_txBufferWrite - used for the account of the bytes which
 505:Generated_Source\PSoC5/SPI_1.c **** *  have been written down in the TX software buffer, modified every function
 506:Generated_Source\PSoC5/SPI_1.c **** *  call if TX Software Buffer is used.
 507:Generated_Source\PSoC5/SPI_1.c **** *  SPI_1_txBufferRead - used for the account of the bytes which
 508:Generated_Source\PSoC5/SPI_1.c **** *  have been read from the TX software buffer.
 509:Generated_Source\PSoC5/SPI_1.c **** *  SPI_1_txBuffer[SPI_1_TX_BUFFER_SIZE] - used to store
 510:Generated_Source\PSoC5/SPI_1.c **** *  data to sending, modified every function call if TX Software Buffer is used.
 511:Generated_Source\PSoC5/SPI_1.c **** *
 512:Generated_Source\PSoC5/SPI_1.c **** * Theory:
 513:Generated_Source\PSoC5/SPI_1.c **** *  Allows the user to transmit any byte of data in a single transfer.
 514:Generated_Source\PSoC5/SPI_1.c **** *
 515:Generated_Source\PSoC5/SPI_1.c **** * Side Effects:
 516:Generated_Source\PSoC5/SPI_1.c **** *  If this function is called again before the previous byte is finished then
 517:Generated_Source\PSoC5/SPI_1.c **** *  the next byte will be appended to the transfer with no time between
 518:Generated_Source\PSoC5/SPI_1.c **** *  the byte transfers. Clear Tx status register of the component.
 519:Generated_Source\PSoC5/SPI_1.c **** *
 520:Generated_Source\PSoC5/SPI_1.c **** * Reentrant:
 521:Generated_Source\PSoC5/SPI_1.c **** *  No.
 522:Generated_Source\PSoC5/SPI_1.c **** *
 523:Generated_Source\PSoC5/SPI_1.c **** *******************************************************************************/
 524:Generated_Source\PSoC5/SPI_1.c **** void SPI_1_WriteTxData(uint8 txData) 
 525:Generated_Source\PSoC5/SPI_1.c **** {
 309              		.loc 1 525 0
 310              		.cfi_startproc
 311              		@ args = 0, pretend = 0, frame = 0
 312              		@ frame_needed = 0, uses_anonymous_args = 0
 313              		@ link register save eliminated.
 314              	.LVL8:
 315              	.L30:
 526:Generated_Source\PSoC5/SPI_1.c ****     #if(SPI_1_TX_SOFTWARE_BUF_ENABLED)
 527:Generated_Source\PSoC5/SPI_1.c **** 
 528:Generated_Source\PSoC5/SPI_1.c ****         uint8 tempStatus;
 529:Generated_Source\PSoC5/SPI_1.c ****         uint8 tmpTxBufferRead;
 530:Generated_Source\PSoC5/SPI_1.c **** 
 531:Generated_Source\PSoC5/SPI_1.c ****         /* Block if buffer is full, so we don't overwrite. */
 532:Generated_Source\PSoC5/SPI_1.c ****         do
 533:Generated_Source\PSoC5/SPI_1.c ****         {
 534:Generated_Source\PSoC5/SPI_1.c ****             tmpTxBufferRead = SPI_1_txBufferRead;
 535:Generated_Source\PSoC5/SPI_1.c ****             if (0u == tmpTxBufferRead)
 536:Generated_Source\PSoC5/SPI_1.c ****             {
 537:Generated_Source\PSoC5/SPI_1.c ****                 tmpTxBufferRead = SPI_1_TX_BUFFER_SIZE - 1u;
 538:Generated_Source\PSoC5/SPI_1.c ****             }
 539:Generated_Source\PSoC5/SPI_1.c ****             else
 540:Generated_Source\PSoC5/SPI_1.c ****             {
ARM GAS  C:\Users\Lasse\AppData\Local\Temp\ccNmmdC1.s 			page 16


 541:Generated_Source\PSoC5/SPI_1.c ****                 tmpTxBufferRead--;
 542:Generated_Source\PSoC5/SPI_1.c ****             }
 543:Generated_Source\PSoC5/SPI_1.c **** 
 544:Generated_Source\PSoC5/SPI_1.c ****         }
 545:Generated_Source\PSoC5/SPI_1.c ****         while(tmpTxBufferRead == SPI_1_txBufferWrite);
 546:Generated_Source\PSoC5/SPI_1.c **** 
 547:Generated_Source\PSoC5/SPI_1.c ****         /* Disable Interrupt to protect variables that could change on interrupt. */
 548:Generated_Source\PSoC5/SPI_1.c ****         SPI_1_DisableTxInt();
 549:Generated_Source\PSoC5/SPI_1.c **** 
 550:Generated_Source\PSoC5/SPI_1.c ****         tempStatus = SPI_1_GET_STATUS_TX(SPI_1_swStatusTx);
 551:Generated_Source\PSoC5/SPI_1.c ****         SPI_1_swStatusTx = tempStatus;
 552:Generated_Source\PSoC5/SPI_1.c **** 
 553:Generated_Source\PSoC5/SPI_1.c ****         if((SPI_1_txBufferRead == SPI_1_txBufferWrite) &&
 554:Generated_Source\PSoC5/SPI_1.c ****             (0u != (SPI_1_swStatusTx & SPI_1_STS_TX_FIFO_NOT_FULL)))
 555:Generated_Source\PSoC5/SPI_1.c ****         {
 556:Generated_Source\PSoC5/SPI_1.c ****             /* Put data element into the TX FIFO */
 557:Generated_Source\PSoC5/SPI_1.c ****             CY_SET_REG8(SPI_1_TXDATA_PTR, txData);
 558:Generated_Source\PSoC5/SPI_1.c ****         }
 559:Generated_Source\PSoC5/SPI_1.c ****         else
 560:Generated_Source\PSoC5/SPI_1.c ****         {
 561:Generated_Source\PSoC5/SPI_1.c ****             /* Put data element into the software buffer */
 562:Generated_Source\PSoC5/SPI_1.c ****             SPI_1_txBufferWrite++;
 563:Generated_Source\PSoC5/SPI_1.c ****             if(SPI_1_txBufferWrite >= SPI_1_TX_BUFFER_SIZE)
 564:Generated_Source\PSoC5/SPI_1.c ****             {
 565:Generated_Source\PSoC5/SPI_1.c ****                 SPI_1_txBufferWrite = 0u;
 566:Generated_Source\PSoC5/SPI_1.c ****             }
 567:Generated_Source\PSoC5/SPI_1.c **** 
 568:Generated_Source\PSoC5/SPI_1.c ****             if(SPI_1_txBufferWrite == SPI_1_txBufferRead)
 569:Generated_Source\PSoC5/SPI_1.c ****             {
 570:Generated_Source\PSoC5/SPI_1.c ****                 SPI_1_txBufferRead++;
 571:Generated_Source\PSoC5/SPI_1.c ****                 if(SPI_1_txBufferRead >= SPI_1_RX_BUFFER_SIZE)
 572:Generated_Source\PSoC5/SPI_1.c ****                 {
 573:Generated_Source\PSoC5/SPI_1.c ****                     SPI_1_txBufferRead = 0u;
 574:Generated_Source\PSoC5/SPI_1.c ****                 }
 575:Generated_Source\PSoC5/SPI_1.c ****                 SPI_1_txBufferFull = 1u;
 576:Generated_Source\PSoC5/SPI_1.c ****             }
 577:Generated_Source\PSoC5/SPI_1.c **** 
 578:Generated_Source\PSoC5/SPI_1.c ****             SPI_1_txBuffer[SPI_1_txBufferWrite] = txData;
 579:Generated_Source\PSoC5/SPI_1.c **** 
 580:Generated_Source\PSoC5/SPI_1.c ****             SPI_1_TX_STATUS_MASK_REG |= SPI_1_STS_TX_FIFO_NOT_FULL;
 581:Generated_Source\PSoC5/SPI_1.c ****         }
 582:Generated_Source\PSoC5/SPI_1.c **** 
 583:Generated_Source\PSoC5/SPI_1.c ****         /* Enable Interrupt. */
 584:Generated_Source\PSoC5/SPI_1.c ****         SPI_1_EnableTxInt();
 585:Generated_Source\PSoC5/SPI_1.c **** 
 586:Generated_Source\PSoC5/SPI_1.c ****     #else /* !SPI_1_TX_SOFTWARE_BUF_ENABLED */
 587:Generated_Source\PSoC5/SPI_1.c ****         /* Wait until TX FIFO has a place */
 588:Generated_Source\PSoC5/SPI_1.c ****         while(0u == (SPI_1_TX_STATUS_REG & SPI_1_STS_TX_FIFO_NOT_FULL))
 316              		.loc 1 588 0 discriminator 1
 317 0000 034B     		ldr	r3, .L31
 318 0002 1B78     		ldrb	r3, [r3]	@ zero_extendqisi2
 319 0004 13F0020F 		tst	r3, #2
 320 0008 FAD0     		beq	.L30
 589:Generated_Source\PSoC5/SPI_1.c ****         {
 590:Generated_Source\PSoC5/SPI_1.c ****         }
 591:Generated_Source\PSoC5/SPI_1.c **** 
 592:Generated_Source\PSoC5/SPI_1.c ****         /* Put data element into the TX FIFO */
ARM GAS  C:\Users\Lasse\AppData\Local\Temp\ccNmmdC1.s 			page 17


 593:Generated_Source\PSoC5/SPI_1.c ****         CY_SET_REG8(SPI_1_TXDATA_PTR, txData);
 321              		.loc 1 593 0
 322 000a 024B     		ldr	r3, .L31+4
 323 000c 1870     		strb	r0, [r3]
 324 000e 7047     		bx	lr
 325              	.L32:
 326              		.align	2
 327              	.L31:
 328 0010 68650040 		.word	1073767784
 329 0014 4B640040 		.word	1073767499
 330              		.cfi_endproc
 331              	.LFE12:
 332              		.size	SPI_1_WriteTxData, .-SPI_1_WriteTxData
 333              		.section	.text.SPI_1_WriteTxDataZero,"ax",%progbits
 334              		.align	2
 335              		.global	SPI_1_WriteTxDataZero
 336              		.thumb
 337              		.thumb_func
 338              		.type	SPI_1_WriteTxDataZero, %function
 339              	SPI_1_WriteTxDataZero:
 340              	.LFB13:
 594:Generated_Source\PSoC5/SPI_1.c ****         
 595:Generated_Source\PSoC5/SPI_1.c ****     #endif /* SPI_1_TX_SOFTWARE_BUF_ENABLED */
 596:Generated_Source\PSoC5/SPI_1.c **** }
 597:Generated_Source\PSoC5/SPI_1.c **** 
 598:Generated_Source\PSoC5/SPI_1.c **** #if(SPI_1_MODE_USE_ZERO != 0u)
 599:Generated_Source\PSoC5/SPI_1.c **** 
 600:Generated_Source\PSoC5/SPI_1.c ****     /*******************************************************************************
 601:Generated_Source\PSoC5/SPI_1.c ****     * Function Name: SPI_1_WriteTxDataZero
 602:Generated_Source\PSoC5/SPI_1.c ****     ********************************************************************************
 603:Generated_Source\PSoC5/SPI_1.c ****     *
 604:Generated_Source\PSoC5/SPI_1.c ****     * Summary:
 605:Generated_Source\PSoC5/SPI_1.c ****     *  Write a byte zero of data to be sent across the SPI. This must be used in
 606:Generated_Source\PSoC5/SPI_1.c ****     *  Mode 00 and 01 if the FIFO is empty and data is not being sent.
 607:Generated_Source\PSoC5/SPI_1.c ****     *
 608:Generated_Source\PSoC5/SPI_1.c ****     * Parameters:
 609:Generated_Source\PSoC5/SPI_1.c ****     *  txDataByte: The data value to send across the SPI.
 610:Generated_Source\PSoC5/SPI_1.c ****     *
 611:Generated_Source\PSoC5/SPI_1.c ****     * Return:
 612:Generated_Source\PSoC5/SPI_1.c ****     *  None.
 613:Generated_Source\PSoC5/SPI_1.c ****     *
 614:Generated_Source\PSoC5/SPI_1.c ****     * Theory:
 615:Generated_Source\PSoC5/SPI_1.c ****     *  Allows the user to transmit any byte of data in a single transfer. Clear
 616:Generated_Source\PSoC5/SPI_1.c ****     *  status register of the component.
 617:Generated_Source\PSoC5/SPI_1.c ****     *
 618:Generated_Source\PSoC5/SPI_1.c ****     *******************************************************************************/
 619:Generated_Source\PSoC5/SPI_1.c ****     void SPI_1_WriteTxDataZero(uint8 txDataByte)
 620:Generated_Source\PSoC5/SPI_1.c ****                                         
 621:Generated_Source\PSoC5/SPI_1.c ****     {
 341              		.loc 1 621 0
 342              		.cfi_startproc
 343              		@ args = 0, pretend = 0, frame = 0
 344              		@ frame_needed = 0, uses_anonymous_args = 0
 345              		@ link register save eliminated.
 346              	.LVL9:
 622:Generated_Source\PSoC5/SPI_1.c ****         CY_SET_REG8(SPI_1_TXDATA_ZERO_PTR, txDataByte);
 347              		.loc 1 622 0
ARM GAS  C:\Users\Lasse\AppData\Local\Temp\ccNmmdC1.s 			page 18


 348 0000 014B     		ldr	r3, .L34
 349 0002 1870     		strb	r0, [r3]
 350 0004 7047     		bx	lr
 351              	.L35:
 352 0006 00BF     		.align	2
 353              	.L34:
 354 0008 0B640040 		.word	1073767435
 355              		.cfi_endproc
 356              	.LFE13:
 357              		.size	SPI_1_WriteTxDataZero, .-SPI_1_WriteTxDataZero
 358              		.section	.text.SPI_1_ReadRxData,"ax",%progbits
 359              		.align	2
 360              		.global	SPI_1_ReadRxData
 361              		.thumb
 362              		.thumb_func
 363              		.type	SPI_1_ReadRxData, %function
 364              	SPI_1_ReadRxData:
 365              	.LFB14:
 623:Generated_Source\PSoC5/SPI_1.c ****     }
 624:Generated_Source\PSoC5/SPI_1.c **** 
 625:Generated_Source\PSoC5/SPI_1.c **** #endif /* (SPI_1_MODE_USE_ZERO != 0u) */
 626:Generated_Source\PSoC5/SPI_1.c **** 
 627:Generated_Source\PSoC5/SPI_1.c **** 
 628:Generated_Source\PSoC5/SPI_1.c **** /*******************************************************************************
 629:Generated_Source\PSoC5/SPI_1.c **** * Function Name: SPI_1_ReadRxData
 630:Generated_Source\PSoC5/SPI_1.c **** ********************************************************************************
 631:Generated_Source\PSoC5/SPI_1.c **** *
 632:Generated_Source\PSoC5/SPI_1.c **** * Summary:
 633:Generated_Source\PSoC5/SPI_1.c **** *  Read the next byte of data received across the SPI.
 634:Generated_Source\PSoC5/SPI_1.c **** *
 635:Generated_Source\PSoC5/SPI_1.c **** * Parameters:
 636:Generated_Source\PSoC5/SPI_1.c **** *  None.
 637:Generated_Source\PSoC5/SPI_1.c **** *
 638:Generated_Source\PSoC5/SPI_1.c **** * Return:
 639:Generated_Source\PSoC5/SPI_1.c **** *  The next byte of data read from the FIFO.
 640:Generated_Source\PSoC5/SPI_1.c **** *
 641:Generated_Source\PSoC5/SPI_1.c **** * Global variables:
 642:Generated_Source\PSoC5/SPI_1.c **** *  SPI_1_rxBufferWrite - used for the account of the bytes which
 643:Generated_Source\PSoC5/SPI_1.c **** *  have been written down in the RX software buffer.
 644:Generated_Source\PSoC5/SPI_1.c **** *  SPI_1_rxBufferRead - used for the account of the bytes which
 645:Generated_Source\PSoC5/SPI_1.c **** *  have been read from the RX software buffer, modified every function
 646:Generated_Source\PSoC5/SPI_1.c **** *  call if RX Software Buffer is used.
 647:Generated_Source\PSoC5/SPI_1.c **** *  SPI_1_rxBuffer[SPI_1_RX_BUFFER_SIZE] - used to store
 648:Generated_Source\PSoC5/SPI_1.c **** *  received data.
 649:Generated_Source\PSoC5/SPI_1.c **** *
 650:Generated_Source\PSoC5/SPI_1.c **** * Theory:
 651:Generated_Source\PSoC5/SPI_1.c **** *  Allows the user to read a byte of data received.
 652:Generated_Source\PSoC5/SPI_1.c **** *
 653:Generated_Source\PSoC5/SPI_1.c **** * Side Effects:
 654:Generated_Source\PSoC5/SPI_1.c **** *  Will return invalid data if the FIFO is empty.  User should poll for FIFO
 655:Generated_Source\PSoC5/SPI_1.c **** *  empty status before calling Read function.
 656:Generated_Source\PSoC5/SPI_1.c **** *
 657:Generated_Source\PSoC5/SPI_1.c **** * Reentrant:
 658:Generated_Source\PSoC5/SPI_1.c **** *  No.
 659:Generated_Source\PSoC5/SPI_1.c **** *
 660:Generated_Source\PSoC5/SPI_1.c **** *******************************************************************************/
 661:Generated_Source\PSoC5/SPI_1.c **** uint8 SPI_1_ReadRxData(void) 
ARM GAS  C:\Users\Lasse\AppData\Local\Temp\ccNmmdC1.s 			page 19


 662:Generated_Source\PSoC5/SPI_1.c **** {
 366              		.loc 1 662 0
 367              		.cfi_startproc
 368              		@ args = 0, pretend = 0, frame = 0
 369              		@ frame_needed = 0, uses_anonymous_args = 0
 370              		@ link register save eliminated.
 663:Generated_Source\PSoC5/SPI_1.c ****     uint8 rxData;
 664:Generated_Source\PSoC5/SPI_1.c **** 
 665:Generated_Source\PSoC5/SPI_1.c ****     #if(SPI_1_RX_SOFTWARE_BUF_ENABLED)
 666:Generated_Source\PSoC5/SPI_1.c **** 
 667:Generated_Source\PSoC5/SPI_1.c ****         /* Disable Interrupt to protect variables that could change on interrupt. */
 668:Generated_Source\PSoC5/SPI_1.c ****         SPI_1_DisableRxInt();
 669:Generated_Source\PSoC5/SPI_1.c **** 
 670:Generated_Source\PSoC5/SPI_1.c ****         if(SPI_1_rxBufferRead != SPI_1_rxBufferWrite)
 671:Generated_Source\PSoC5/SPI_1.c ****         {
 672:Generated_Source\PSoC5/SPI_1.c ****             if(SPI_1_rxBufferFull == 0u)
 673:Generated_Source\PSoC5/SPI_1.c ****             {
 674:Generated_Source\PSoC5/SPI_1.c ****                 SPI_1_rxBufferRead++;
 675:Generated_Source\PSoC5/SPI_1.c ****                 if(SPI_1_rxBufferRead >= SPI_1_RX_BUFFER_SIZE)
 676:Generated_Source\PSoC5/SPI_1.c ****                 {
 677:Generated_Source\PSoC5/SPI_1.c ****                     SPI_1_rxBufferRead = 0u;
 678:Generated_Source\PSoC5/SPI_1.c ****                 }
 679:Generated_Source\PSoC5/SPI_1.c ****             }
 680:Generated_Source\PSoC5/SPI_1.c ****             else
 681:Generated_Source\PSoC5/SPI_1.c ****             {
 682:Generated_Source\PSoC5/SPI_1.c ****                 SPI_1_rxBufferFull = 0u;
 683:Generated_Source\PSoC5/SPI_1.c ****             }
 684:Generated_Source\PSoC5/SPI_1.c ****         }
 685:Generated_Source\PSoC5/SPI_1.c **** 
 686:Generated_Source\PSoC5/SPI_1.c ****         rxData = SPI_1_rxBuffer[SPI_1_rxBufferRead];
 687:Generated_Source\PSoC5/SPI_1.c **** 
 688:Generated_Source\PSoC5/SPI_1.c ****         /* Enable Interrupt. */
 689:Generated_Source\PSoC5/SPI_1.c ****         SPI_1_EnableRxInt();
 690:Generated_Source\PSoC5/SPI_1.c **** 
 691:Generated_Source\PSoC5/SPI_1.c ****     #else /* !SPI_1_RX_SOFTWARE_BUF_ENABLED */
 692:Generated_Source\PSoC5/SPI_1.c **** 
 693:Generated_Source\PSoC5/SPI_1.c ****         rxData = CY_GET_REG8(SPI_1_RXDATA_PTR);
 371              		.loc 1 693 0
 372 0000 014B     		ldr	r3, .L37
 373 0002 1878     		ldrb	r0, [r3]	@ zero_extendqisi2
 374              	.LVL10:
 694:Generated_Source\PSoC5/SPI_1.c **** 
 695:Generated_Source\PSoC5/SPI_1.c ****     #endif /* SPI_1_RX_SOFTWARE_BUF_ENABLED */
 696:Generated_Source\PSoC5/SPI_1.c **** 
 697:Generated_Source\PSoC5/SPI_1.c ****     return (rxData);
 698:Generated_Source\PSoC5/SPI_1.c **** 
 699:Generated_Source\PSoC5/SPI_1.c **** }
 375              		.loc 1 699 0
 376 0004 7047     		bx	lr
 377              	.L38:
 378 0006 00BF     		.align	2
 379              	.L37:
 380 0008 5B640040 		.word	1073767515
 381              		.cfi_endproc
 382              	.LFE14:
 383              		.size	SPI_1_ReadRxData, .-SPI_1_ReadRxData
 384              		.section	.text.SPI_1_GetRxBufferSize,"ax",%progbits
ARM GAS  C:\Users\Lasse\AppData\Local\Temp\ccNmmdC1.s 			page 20


 385              		.align	2
 386              		.global	SPI_1_GetRxBufferSize
 387              		.thumb
 388              		.thumb_func
 389              		.type	SPI_1_GetRxBufferSize, %function
 390              	SPI_1_GetRxBufferSize:
 391              	.LFB15:
 700:Generated_Source\PSoC5/SPI_1.c **** 
 701:Generated_Source\PSoC5/SPI_1.c **** 
 702:Generated_Source\PSoC5/SPI_1.c **** /*******************************************************************************
 703:Generated_Source\PSoC5/SPI_1.c **** * Function Name: SPI_1_GetRxBufferSize
 704:Generated_Source\PSoC5/SPI_1.c **** ********************************************************************************
 705:Generated_Source\PSoC5/SPI_1.c **** *
 706:Generated_Source\PSoC5/SPI_1.c **** * Summary:
 707:Generated_Source\PSoC5/SPI_1.c **** *  Returns the number of bytes/words of data currently held in the RX buffer.
 708:Generated_Source\PSoC5/SPI_1.c **** *  If RX Software Buffer not used then function return 0 if FIFO empty or 1 if
 709:Generated_Source\PSoC5/SPI_1.c **** *  FIFO not empty. In another case function return size of RX Software Buffer.
 710:Generated_Source\PSoC5/SPI_1.c **** *
 711:Generated_Source\PSoC5/SPI_1.c **** * Parameters:
 712:Generated_Source\PSoC5/SPI_1.c **** *  None.
 713:Generated_Source\PSoC5/SPI_1.c **** *
 714:Generated_Source\PSoC5/SPI_1.c **** * Return:
 715:Generated_Source\PSoC5/SPI_1.c **** *  Integer count of the number of bytes/words in the RX buffer.
 716:Generated_Source\PSoC5/SPI_1.c **** *
 717:Generated_Source\PSoC5/SPI_1.c **** * Global variables:
 718:Generated_Source\PSoC5/SPI_1.c **** *  SPI_1_rxBufferWrite - used for the account of the bytes which
 719:Generated_Source\PSoC5/SPI_1.c **** *  have been written down in the RX software buffer.
 720:Generated_Source\PSoC5/SPI_1.c **** *  SPI_1_rxBufferRead - used for the account of the bytes which
 721:Generated_Source\PSoC5/SPI_1.c **** *  have been read from the RX software buffer.
 722:Generated_Source\PSoC5/SPI_1.c **** *
 723:Generated_Source\PSoC5/SPI_1.c **** * Theory:
 724:Generated_Source\PSoC5/SPI_1.c **** *  Allows the user to find out how full the RX Buffer is.
 725:Generated_Source\PSoC5/SPI_1.c **** *
 726:Generated_Source\PSoC5/SPI_1.c **** *******************************************************************************/
 727:Generated_Source\PSoC5/SPI_1.c **** uint8 SPI_1_GetRxBufferSize(void) 
 728:Generated_Source\PSoC5/SPI_1.c **** {
 392              		.loc 1 728 0
 393              		.cfi_startproc
 394              		@ args = 0, pretend = 0, frame = 0
 395              		@ frame_needed = 0, uses_anonymous_args = 0
 396              		@ link register save eliminated.
 729:Generated_Source\PSoC5/SPI_1.c ****     uint8 size;
 730:Generated_Source\PSoC5/SPI_1.c **** 
 731:Generated_Source\PSoC5/SPI_1.c ****     #if(SPI_1_RX_SOFTWARE_BUF_ENABLED)
 732:Generated_Source\PSoC5/SPI_1.c **** 
 733:Generated_Source\PSoC5/SPI_1.c ****         /* Disable Interrupt to protect variables that could change on interrupt. */
 734:Generated_Source\PSoC5/SPI_1.c ****         SPI_1_DisableRxInt();
 735:Generated_Source\PSoC5/SPI_1.c **** 
 736:Generated_Source\PSoC5/SPI_1.c ****         if(SPI_1_rxBufferRead == SPI_1_rxBufferWrite)
 737:Generated_Source\PSoC5/SPI_1.c ****         {
 738:Generated_Source\PSoC5/SPI_1.c ****             size = 0u; /* No data in RX buffer */
 739:Generated_Source\PSoC5/SPI_1.c ****         }
 740:Generated_Source\PSoC5/SPI_1.c ****         else if(SPI_1_rxBufferRead < SPI_1_rxBufferWrite)
 741:Generated_Source\PSoC5/SPI_1.c ****         {
 742:Generated_Source\PSoC5/SPI_1.c ****             size = (SPI_1_rxBufferWrite - SPI_1_rxBufferRead);
 743:Generated_Source\PSoC5/SPI_1.c ****         }
 744:Generated_Source\PSoC5/SPI_1.c ****         else
ARM GAS  C:\Users\Lasse\AppData\Local\Temp\ccNmmdC1.s 			page 21


 745:Generated_Source\PSoC5/SPI_1.c ****         {
 746:Generated_Source\PSoC5/SPI_1.c ****             size = (SPI_1_RX_BUFFER_SIZE - SPI_1_rxBufferRead) + SPI_1_rxBufferWrite;
 747:Generated_Source\PSoC5/SPI_1.c ****         }
 748:Generated_Source\PSoC5/SPI_1.c **** 
 749:Generated_Source\PSoC5/SPI_1.c ****         /* Enable interrupt. */
 750:Generated_Source\PSoC5/SPI_1.c ****         SPI_1_EnableRxInt();
 751:Generated_Source\PSoC5/SPI_1.c **** 
 752:Generated_Source\PSoC5/SPI_1.c ****     #else /* !SPI_1_RX_SOFTWARE_BUF_ENABLED*/
 753:Generated_Source\PSoC5/SPI_1.c **** 
 754:Generated_Source\PSoC5/SPI_1.c ****         /* We can only know if there is data in the fifo. */
 755:Generated_Source\PSoC5/SPI_1.c ****         size = ((SPI_1_RX_STATUS_REG & SPI_1_STS_RX_FIFO_NOT_EMPTY) != 0u) ? 1u : 0u;
 397              		.loc 1 755 0
 398 0000 044B     		ldr	r3, .L42
 399 0002 1B78     		ldrb	r3, [r3]	@ zero_extendqisi2
 400 0004 13F0080F 		tst	r3, #8
 401 0008 01D0     		beq	.L41
 402 000a 0120     		movs	r0, #1
 403 000c 7047     		bx	lr
 404              	.L41:
 405 000e 0020     		movs	r0, #0
 406              	.LVL11:
 756:Generated_Source\PSoC5/SPI_1.c **** 
 757:Generated_Source\PSoC5/SPI_1.c ****     #endif /* SPI_1_RX_SOFTWARE_BUF_ENABLED */
 758:Generated_Source\PSoC5/SPI_1.c **** 
 759:Generated_Source\PSoC5/SPI_1.c ****     return (size);
 760:Generated_Source\PSoC5/SPI_1.c **** }
 407              		.loc 1 760 0
 408 0010 7047     		bx	lr
 409              	.L43:
 410 0012 00BF     		.align	2
 411              	.L42:
 412 0014 68640040 		.word	1073767528
 413              		.cfi_endproc
 414              	.LFE15:
 415              		.size	SPI_1_GetRxBufferSize, .-SPI_1_GetRxBufferSize
 416              		.section	.text.SPI_1_GetTxBufferSize,"ax",%progbits
 417              		.align	2
 418              		.global	SPI_1_GetTxBufferSize
 419              		.thumb
 420              		.thumb_func
 421              		.type	SPI_1_GetTxBufferSize, %function
 422              	SPI_1_GetTxBufferSize:
 423              	.LFB16:
 761:Generated_Source\PSoC5/SPI_1.c **** 
 762:Generated_Source\PSoC5/SPI_1.c **** 
 763:Generated_Source\PSoC5/SPI_1.c **** /*******************************************************************************
 764:Generated_Source\PSoC5/SPI_1.c **** * Function Name: SPI_1_GetTxBufferSize
 765:Generated_Source\PSoC5/SPI_1.c **** ********************************************************************************
 766:Generated_Source\PSoC5/SPI_1.c **** *
 767:Generated_Source\PSoC5/SPI_1.c **** * Summary:
 768:Generated_Source\PSoC5/SPI_1.c **** *  Returns the number of bytes/words of data currently held in the TX buffer.
 769:Generated_Source\PSoC5/SPI_1.c **** *  If TX Software Buffer not used then function return 0 - if FIFO empty, 1 - if
 770:Generated_Source\PSoC5/SPI_1.c **** *  FIFO not full, 4 - if FIFO full. In another case function return size of TX
 771:Generated_Source\PSoC5/SPI_1.c **** *  Software Buffer.
 772:Generated_Source\PSoC5/SPI_1.c **** *
 773:Generated_Source\PSoC5/SPI_1.c **** * Parameters:
 774:Generated_Source\PSoC5/SPI_1.c **** *  None.
ARM GAS  C:\Users\Lasse\AppData\Local\Temp\ccNmmdC1.s 			page 22


 775:Generated_Source\PSoC5/SPI_1.c **** *
 776:Generated_Source\PSoC5/SPI_1.c **** * Return:
 777:Generated_Source\PSoC5/SPI_1.c **** *  Integer count of the number of bytes/words in the TX buffer.
 778:Generated_Source\PSoC5/SPI_1.c **** *
 779:Generated_Source\PSoC5/SPI_1.c **** * Global variables:
 780:Generated_Source\PSoC5/SPI_1.c **** *  SPI_1_txBufferWrite - used for the account of the bytes which
 781:Generated_Source\PSoC5/SPI_1.c **** *  have been written down in the TX software buffer.
 782:Generated_Source\PSoC5/SPI_1.c **** *  SPI_1_txBufferRead - used for the account of the bytes which
 783:Generated_Source\PSoC5/SPI_1.c **** *  have been read from the TX software buffer.
 784:Generated_Source\PSoC5/SPI_1.c **** *
 785:Generated_Source\PSoC5/SPI_1.c **** * Theory:
 786:Generated_Source\PSoC5/SPI_1.c **** *  Allows the user to find out how full the TX Buffer is.
 787:Generated_Source\PSoC5/SPI_1.c **** *
 788:Generated_Source\PSoC5/SPI_1.c **** * Side Effects:
 789:Generated_Source\PSoC5/SPI_1.c **** *  Clear status register of the component.
 790:Generated_Source\PSoC5/SPI_1.c **** *
 791:Generated_Source\PSoC5/SPI_1.c **** *******************************************************************************/
 792:Generated_Source\PSoC5/SPI_1.c **** uint8  SPI_1_GetTxBufferSize(void) 
 793:Generated_Source\PSoC5/SPI_1.c **** {
 424              		.loc 1 793 0
 425              		.cfi_startproc
 426              		@ args = 0, pretend = 0, frame = 0
 427              		@ frame_needed = 0, uses_anonymous_args = 0
 428              		@ link register save eliminated.
 794:Generated_Source\PSoC5/SPI_1.c ****     uint8 size;
 795:Generated_Source\PSoC5/SPI_1.c **** 
 796:Generated_Source\PSoC5/SPI_1.c ****     #if(SPI_1_TX_SOFTWARE_BUF_ENABLED)
 797:Generated_Source\PSoC5/SPI_1.c **** 
 798:Generated_Source\PSoC5/SPI_1.c ****         /* Disable Interrupt to protect variables that could change on interrupt. */
 799:Generated_Source\PSoC5/SPI_1.c ****         SPI_1_DisableTxInt();
 800:Generated_Source\PSoC5/SPI_1.c **** 
 801:Generated_Source\PSoC5/SPI_1.c ****         if(SPI_1_txBufferRead == SPI_1_txBufferWrite)
 802:Generated_Source\PSoC5/SPI_1.c ****         {
 803:Generated_Source\PSoC5/SPI_1.c ****             size = 0u;
 804:Generated_Source\PSoC5/SPI_1.c ****         }
 805:Generated_Source\PSoC5/SPI_1.c ****         else if(SPI_1_txBufferRead < SPI_1_txBufferWrite)
 806:Generated_Source\PSoC5/SPI_1.c ****         {
 807:Generated_Source\PSoC5/SPI_1.c ****             size = (SPI_1_txBufferWrite - SPI_1_txBufferRead);
 808:Generated_Source\PSoC5/SPI_1.c ****         }
 809:Generated_Source\PSoC5/SPI_1.c ****         else
 810:Generated_Source\PSoC5/SPI_1.c ****         {
 811:Generated_Source\PSoC5/SPI_1.c ****             size = (SPI_1_TX_BUFFER_SIZE - SPI_1_txBufferRead) + SPI_1_txBufferWrite;
 812:Generated_Source\PSoC5/SPI_1.c ****         }
 813:Generated_Source\PSoC5/SPI_1.c **** 
 814:Generated_Source\PSoC5/SPI_1.c ****         /* Enable Interrupt. */
 815:Generated_Source\PSoC5/SPI_1.c ****         SPI_1_EnableTxInt();
 816:Generated_Source\PSoC5/SPI_1.c **** 
 817:Generated_Source\PSoC5/SPI_1.c ****     #else /* !SPI_1_TX_SOFTWARE_BUF_ENABLED */
 818:Generated_Source\PSoC5/SPI_1.c **** 
 819:Generated_Source\PSoC5/SPI_1.c ****         size = SPI_1_TX_STATUS_REG;
 429              		.loc 1 819 0
 430 0000 074B     		ldr	r3, .L48
 431 0002 1B78     		ldrb	r3, [r3]	@ zero_extendqisi2
 432 0004 DBB2     		uxtb	r3, r3
 433              	.LVL12:
 820:Generated_Source\PSoC5/SPI_1.c **** 
 821:Generated_Source\PSoC5/SPI_1.c ****         /* Is the fifo is full. */
ARM GAS  C:\Users\Lasse\AppData\Local\Temp\ccNmmdC1.s 			page 23


 822:Generated_Source\PSoC5/SPI_1.c ****         if((size & SPI_1_STS_TX_FIFO_EMPTY) != 0u)
 434              		.loc 1 822 0
 435 0006 13F0040F 		tst	r3, #4
 436 000a 04D1     		bne	.L46
 823:Generated_Source\PSoC5/SPI_1.c ****         {
 824:Generated_Source\PSoC5/SPI_1.c ****             size = 0u;
 825:Generated_Source\PSoC5/SPI_1.c ****         }
 826:Generated_Source\PSoC5/SPI_1.c ****         else if((size & SPI_1_STS_TX_FIFO_NOT_FULL) != 0u)
 437              		.loc 1 826 0
 438 000c 13F0020F 		tst	r3, #2
 439 0010 03D0     		beq	.L47
 827:Generated_Source\PSoC5/SPI_1.c ****         {
 828:Generated_Source\PSoC5/SPI_1.c ****             size = 1u;
 440              		.loc 1 828 0
 441 0012 0120     		movs	r0, #1
 442 0014 7047     		bx	lr
 443              	.L46:
 824:Generated_Source\PSoC5/SPI_1.c ****         }
 444              		.loc 1 824 0
 445 0016 0020     		movs	r0, #0
 446 0018 7047     		bx	lr
 447              	.L47:
 829:Generated_Source\PSoC5/SPI_1.c ****         }
 830:Generated_Source\PSoC5/SPI_1.c ****         else
 831:Generated_Source\PSoC5/SPI_1.c ****         {
 832:Generated_Source\PSoC5/SPI_1.c ****             size = 4u;
 448              		.loc 1 832 0
 449 001a 0420     		movs	r0, #4
 450              	.LVL13:
 833:Generated_Source\PSoC5/SPI_1.c ****         }
 834:Generated_Source\PSoC5/SPI_1.c **** 
 835:Generated_Source\PSoC5/SPI_1.c ****     #endif /* SPI_1_TX_SOFTWARE_BUF_ENABLED */
 836:Generated_Source\PSoC5/SPI_1.c **** 
 837:Generated_Source\PSoC5/SPI_1.c ****     return (size);
 838:Generated_Source\PSoC5/SPI_1.c **** }
 451              		.loc 1 838 0
 452 001c 7047     		bx	lr
 453              	.L49:
 454 001e 00BF     		.align	2
 455              	.L48:
 456 0020 68650040 		.word	1073767784
 457              		.cfi_endproc
 458              	.LFE16:
 459              		.size	SPI_1_GetTxBufferSize, .-SPI_1_GetTxBufferSize
 460              		.section	.text.SPI_1_ClearRxBuffer,"ax",%progbits
 461              		.align	2
 462              		.global	SPI_1_ClearRxBuffer
 463              		.thumb
 464              		.thumb_func
 465              		.type	SPI_1_ClearRxBuffer, %function
 466              	SPI_1_ClearRxBuffer:
 467              	.LFB17:
 839:Generated_Source\PSoC5/SPI_1.c **** 
 840:Generated_Source\PSoC5/SPI_1.c **** 
 841:Generated_Source\PSoC5/SPI_1.c **** /*******************************************************************************
 842:Generated_Source\PSoC5/SPI_1.c **** * Function Name: SPI_1_ClearRxBuffer
 843:Generated_Source\PSoC5/SPI_1.c **** ********************************************************************************
ARM GAS  C:\Users\Lasse\AppData\Local\Temp\ccNmmdC1.s 			page 24


 844:Generated_Source\PSoC5/SPI_1.c **** *
 845:Generated_Source\PSoC5/SPI_1.c **** * Summary:
 846:Generated_Source\PSoC5/SPI_1.c **** *  Clear the RX RAM buffer by setting the read and write pointers both to zero.
 847:Generated_Source\PSoC5/SPI_1.c **** *
 848:Generated_Source\PSoC5/SPI_1.c **** * Parameters:
 849:Generated_Source\PSoC5/SPI_1.c **** *  None.
 850:Generated_Source\PSoC5/SPI_1.c **** *
 851:Generated_Source\PSoC5/SPI_1.c **** * Return:
 852:Generated_Source\PSoC5/SPI_1.c **** *  None.
 853:Generated_Source\PSoC5/SPI_1.c **** *
 854:Generated_Source\PSoC5/SPI_1.c **** * Global variables:
 855:Generated_Source\PSoC5/SPI_1.c **** *  SPI_1_rxBufferWrite - used for the account of the bytes which
 856:Generated_Source\PSoC5/SPI_1.c **** *  have been written down in the RX software buffer, modified every function
 857:Generated_Source\PSoC5/SPI_1.c **** *  call - resets to zero.
 858:Generated_Source\PSoC5/SPI_1.c **** *  SPI_1_rxBufferRead - used for the account of the bytes which
 859:Generated_Source\PSoC5/SPI_1.c **** *  have been read from the RX software buffer, modified every function call -
 860:Generated_Source\PSoC5/SPI_1.c **** *  resets to zero.
 861:Generated_Source\PSoC5/SPI_1.c **** *
 862:Generated_Source\PSoC5/SPI_1.c **** * Theory:
 863:Generated_Source\PSoC5/SPI_1.c **** *  Setting the pointers to zero makes the system believe there is no data to
 864:Generated_Source\PSoC5/SPI_1.c **** *  read and writing will resume at address 0 overwriting any data that may have
 865:Generated_Source\PSoC5/SPI_1.c **** *  remained in the RAM.
 866:Generated_Source\PSoC5/SPI_1.c **** *
 867:Generated_Source\PSoC5/SPI_1.c **** * Side Effects:
 868:Generated_Source\PSoC5/SPI_1.c **** *  Any received data not read from the RAM buffer will be lost when overwritten.
 869:Generated_Source\PSoC5/SPI_1.c **** *
 870:Generated_Source\PSoC5/SPI_1.c **** * Reentrant:
 871:Generated_Source\PSoC5/SPI_1.c **** *  No.
 872:Generated_Source\PSoC5/SPI_1.c **** *
 873:Generated_Source\PSoC5/SPI_1.c **** *******************************************************************************/
 874:Generated_Source\PSoC5/SPI_1.c **** void SPI_1_ClearRxBuffer(void) 
 875:Generated_Source\PSoC5/SPI_1.c **** {
 468              		.loc 1 875 0
 469              		.cfi_startproc
 470              		@ args = 0, pretend = 0, frame = 0
 471              		@ frame_needed = 0, uses_anonymous_args = 0
 472              		@ link register save eliminated.
 876:Generated_Source\PSoC5/SPI_1.c ****     /* Clear Hardware RX FIFO */
 877:Generated_Source\PSoC5/SPI_1.c ****     while((SPI_1_RX_STATUS_REG & SPI_1_STS_RX_FIFO_NOT_EMPTY) != 0u)
 473              		.loc 1 877 0
 474 0000 01E0     		b	.L51
 475              	.L52:
 878:Generated_Source\PSoC5/SPI_1.c ****     {
 879:Generated_Source\PSoC5/SPI_1.c ****         CY_GET_REG8(SPI_1_RXDATA_PTR);
 476              		.loc 1 879 0
 477 0002 044B     		ldr	r3, .L53
 478 0004 1B78     		ldrb	r3, [r3]	@ zero_extendqisi2
 479              	.L51:
 877:Generated_Source\PSoC5/SPI_1.c ****     {
 480              		.loc 1 877 0
 481 0006 044B     		ldr	r3, .L53+4
 482 0008 1B78     		ldrb	r3, [r3]	@ zero_extendqisi2
 483 000a 13F0080F 		tst	r3, #8
 484 000e F8D1     		bne	.L52
 880:Generated_Source\PSoC5/SPI_1.c ****     }
 881:Generated_Source\PSoC5/SPI_1.c **** 
 882:Generated_Source\PSoC5/SPI_1.c ****     #if(SPI_1_RX_SOFTWARE_BUF_ENABLED)
ARM GAS  C:\Users\Lasse\AppData\Local\Temp\ccNmmdC1.s 			page 25


 883:Generated_Source\PSoC5/SPI_1.c **** 
 884:Generated_Source\PSoC5/SPI_1.c ****         /* Disable interrupt to protect variables that could change on interrupt. */
 885:Generated_Source\PSoC5/SPI_1.c ****         SPI_1_DisableRxInt();
 886:Generated_Source\PSoC5/SPI_1.c **** 
 887:Generated_Source\PSoC5/SPI_1.c ****         SPI_1_rxBufferRead  = 0u;
 888:Generated_Source\PSoC5/SPI_1.c ****         SPI_1_rxBufferWrite = 0u;
 889:Generated_Source\PSoC5/SPI_1.c **** 		SPI_1_rxBufferFull  = 0u;
 890:Generated_Source\PSoC5/SPI_1.c ****         /* Enable interrupt. */
 891:Generated_Source\PSoC5/SPI_1.c ****         SPI_1_EnableRxInt();
 892:Generated_Source\PSoC5/SPI_1.c **** 
 893:Generated_Source\PSoC5/SPI_1.c ****     #endif /* SPI_1_RX_SOFTWARE_BUF_ENABLED */
 894:Generated_Source\PSoC5/SPI_1.c **** }
 485              		.loc 1 894 0
 486 0010 7047     		bx	lr
 487              	.L54:
 488 0012 00BF     		.align	2
 489              	.L53:
 490 0014 5B640040 		.word	1073767515
 491 0018 68640040 		.word	1073767528
 492              		.cfi_endproc
 493              	.LFE17:
 494              		.size	SPI_1_ClearRxBuffer, .-SPI_1_ClearRxBuffer
 495              		.section	.text.SPI_1_ClearTxBuffer,"ax",%progbits
 496              		.align	2
 497              		.global	SPI_1_ClearTxBuffer
 498              		.thumb
 499              		.thumb_func
 500              		.type	SPI_1_ClearTxBuffer, %function
 501              	SPI_1_ClearTxBuffer:
 502              	.LFB18:
 895:Generated_Source\PSoC5/SPI_1.c **** 
 896:Generated_Source\PSoC5/SPI_1.c **** 
 897:Generated_Source\PSoC5/SPI_1.c **** /*******************************************************************************
 898:Generated_Source\PSoC5/SPI_1.c **** * Function Name: SPI_1_ClearTxBuffer
 899:Generated_Source\PSoC5/SPI_1.c **** ********************************************************************************
 900:Generated_Source\PSoC5/SPI_1.c **** *
 901:Generated_Source\PSoC5/SPI_1.c **** * Summary:
 902:Generated_Source\PSoC5/SPI_1.c **** *  Clear the TX RAM buffer by setting the read and write pointers both to zero.
 903:Generated_Source\PSoC5/SPI_1.c **** *
 904:Generated_Source\PSoC5/SPI_1.c **** * Parameters:
 905:Generated_Source\PSoC5/SPI_1.c **** *  None.
 906:Generated_Source\PSoC5/SPI_1.c **** *
 907:Generated_Source\PSoC5/SPI_1.c **** * Return:
 908:Generated_Source\PSoC5/SPI_1.c **** *  None.
 909:Generated_Source\PSoC5/SPI_1.c **** *
 910:Generated_Source\PSoC5/SPI_1.c **** * Global variables:
 911:Generated_Source\PSoC5/SPI_1.c **** *  SPI_1_txBufferWrite - used for the account of the bytes which
 912:Generated_Source\PSoC5/SPI_1.c **** *  have been written down in the TX software buffer, modified every function
 913:Generated_Source\PSoC5/SPI_1.c **** *  call - resets to zero.
 914:Generated_Source\PSoC5/SPI_1.c **** *  SPI_1_txBufferRead - used for the account of the bytes which
 915:Generated_Source\PSoC5/SPI_1.c **** *  have been read from the TX software buffer, modified every function call -
 916:Generated_Source\PSoC5/SPI_1.c **** *  resets to zero.
 917:Generated_Source\PSoC5/SPI_1.c **** *
 918:Generated_Source\PSoC5/SPI_1.c **** * Theory:
 919:Generated_Source\PSoC5/SPI_1.c **** *  Setting the pointers to zero makes the system believe there is no data to
 920:Generated_Source\PSoC5/SPI_1.c **** *  read and writing will resume at address 0 overwriting any data that may have
 921:Generated_Source\PSoC5/SPI_1.c **** *  remained in the RAM.
ARM GAS  C:\Users\Lasse\AppData\Local\Temp\ccNmmdC1.s 			page 26


 922:Generated_Source\PSoC5/SPI_1.c **** *
 923:Generated_Source\PSoC5/SPI_1.c **** * Side Effects:
 924:Generated_Source\PSoC5/SPI_1.c **** *  Any data not yet transmitted from the RAM buffer will be lost when
 925:Generated_Source\PSoC5/SPI_1.c **** *  overwritten.
 926:Generated_Source\PSoC5/SPI_1.c **** *
 927:Generated_Source\PSoC5/SPI_1.c **** * Reentrant:
 928:Generated_Source\PSoC5/SPI_1.c **** *  No.
 929:Generated_Source\PSoC5/SPI_1.c **** *
 930:Generated_Source\PSoC5/SPI_1.c **** *******************************************************************************/
 931:Generated_Source\PSoC5/SPI_1.c **** void SPI_1_ClearTxBuffer(void) 
 932:Generated_Source\PSoC5/SPI_1.c **** {
 503              		.loc 1 932 0
 504              		.cfi_startproc
 505              		@ args = 0, pretend = 0, frame = 0
 506              		@ frame_needed = 0, uses_anonymous_args = 0
 507 0000 08B5     		push	{r3, lr}
 508              		.cfi_def_cfa_offset 8
 509              		.cfi_offset 3, -8
 510              		.cfi_offset 14, -4
 933:Generated_Source\PSoC5/SPI_1.c ****     uint8 enableInterrupts;
 934:Generated_Source\PSoC5/SPI_1.c **** 
 935:Generated_Source\PSoC5/SPI_1.c ****     /* Clear Hardware TX FIFO */
 936:Generated_Source\PSoC5/SPI_1.c ****     enableInterrupts = CyEnterCriticalSection();
 511              		.loc 1 936 0
 512 0002 FFF7FEFF 		bl	CyEnterCriticalSection
 513              	.LVL14:
 937:Generated_Source\PSoC5/SPI_1.c **** 
 938:Generated_Source\PSoC5/SPI_1.c ****     #if(SPI_1_DATA_WIDTH <= 8u)
 939:Generated_Source\PSoC5/SPI_1.c **** 
 940:Generated_Source\PSoC5/SPI_1.c ****         /* Clear TX FIFO */
 941:Generated_Source\PSoC5/SPI_1.c ****         SPI_1_TX_AUX_CONTROL_DP0_REG |= (uint8)SPI_1_FIFO_CLR;
 514              		.loc 1 941 0
 515 0006 064B     		ldr	r3, .L57
 516 0008 1A78     		ldrb	r2, [r3]	@ zero_extendqisi2
 517 000a 42F00302 		orr	r2, r2, #3
 518 000e 1A70     		strb	r2, [r3]
 942:Generated_Source\PSoC5/SPI_1.c ****         SPI_1_TX_AUX_CONTROL_DP0_REG &= (uint8)~SPI_1_FIFO_CLR;
 519              		.loc 1 942 0
 520 0010 1A78     		ldrb	r2, [r3]	@ zero_extendqisi2
 521 0012 02F0FC02 		and	r2, r2, #252
 522 0016 1A70     		strb	r2, [r3]
 943:Generated_Source\PSoC5/SPI_1.c **** 
 944:Generated_Source\PSoC5/SPI_1.c ****     #else
 945:Generated_Source\PSoC5/SPI_1.c **** 
 946:Generated_Source\PSoC5/SPI_1.c ****         /* Clear TX FIFO */
 947:Generated_Source\PSoC5/SPI_1.c ****         SPI_1_TX_AUX_CONTROL_DP0_REG |= (uint8)SPI_1_FIFO_CLR;
 948:Generated_Source\PSoC5/SPI_1.c ****         SPI_1_TX_AUX_CONTROL_DP0_REG &= (uint8)~SPI_1_FIFO_CLR;
 949:Generated_Source\PSoC5/SPI_1.c ****         SPI_1_TX_AUX_CONTROL_DP1_REG |= (uint8)SPI_1_FIFO_CLR;
 950:Generated_Source\PSoC5/SPI_1.c ****         SPI_1_TX_AUX_CONTROL_DP1_REG &= (uint8)~SPI_1_FIFO_CLR;
 951:Generated_Source\PSoC5/SPI_1.c **** 
 952:Generated_Source\PSoC5/SPI_1.c ****     #endif /* SPI_1_DATA_WIDTH > 8u */
 953:Generated_Source\PSoC5/SPI_1.c **** 
 954:Generated_Source\PSoC5/SPI_1.c ****     CyExitCriticalSection(enableInterrupts);
 523              		.loc 1 954 0
 524 0018 FFF7FEFF 		bl	CyExitCriticalSection
 525              	.LVL15:
 526 001c 08BD     		pop	{r3, pc}
ARM GAS  C:\Users\Lasse\AppData\Local\Temp\ccNmmdC1.s 			page 27


 527              	.L58:
 528 001e 00BF     		.align	2
 529              	.L57:
 530 0020 9B640040 		.word	1073767579
 531              		.cfi_endproc
 532              	.LFE18:
 533              		.size	SPI_1_ClearTxBuffer, .-SPI_1_ClearTxBuffer
 534              		.section	.text.SPI_1_PutArray,"ax",%progbits
 535              		.align	2
 536              		.global	SPI_1_PutArray
 537              		.thumb
 538              		.thumb_func
 539              		.type	SPI_1_PutArray, %function
 540              	SPI_1_PutArray:
 541              	.LFB19:
 955:Generated_Source\PSoC5/SPI_1.c **** 
 956:Generated_Source\PSoC5/SPI_1.c ****     #if(SPI_1_TX_SOFTWARE_BUF_ENABLED)
 957:Generated_Source\PSoC5/SPI_1.c **** 
 958:Generated_Source\PSoC5/SPI_1.c ****         /* Disable Interrupt to protect variables that could change on interrupt. */
 959:Generated_Source\PSoC5/SPI_1.c ****         SPI_1_DisableTxInt();
 960:Generated_Source\PSoC5/SPI_1.c **** 
 961:Generated_Source\PSoC5/SPI_1.c ****         SPI_1_txBufferRead  = 0u;
 962:Generated_Source\PSoC5/SPI_1.c ****         SPI_1_txBufferWrite = 0u;
 963:Generated_Source\PSoC5/SPI_1.c **** 		SPI_1_txBufferFull  = 0u;
 964:Generated_Source\PSoC5/SPI_1.c **** 		
 965:Generated_Source\PSoC5/SPI_1.c ****         /* If Buffer is empty then disable TX FIFO status interrupt */
 966:Generated_Source\PSoC5/SPI_1.c ****         SPI_1_TX_STATUS_MASK_REG &= (uint8)~SPI_1_STS_TX_FIFO_NOT_FULL;
 967:Generated_Source\PSoC5/SPI_1.c **** 
 968:Generated_Source\PSoC5/SPI_1.c ****         /* Enable Interrupt. */
 969:Generated_Source\PSoC5/SPI_1.c ****         SPI_1_EnableTxInt();
 970:Generated_Source\PSoC5/SPI_1.c **** 
 971:Generated_Source\PSoC5/SPI_1.c ****     #endif /* SPI_1_TX_SOFTWARE_BUF_ENABLED */
 972:Generated_Source\PSoC5/SPI_1.c **** }
 973:Generated_Source\PSoC5/SPI_1.c **** 
 974:Generated_Source\PSoC5/SPI_1.c **** 
 975:Generated_Source\PSoC5/SPI_1.c **** #if (SPI_1_BIDIRECTIONAL_MODE != 0u)
 976:Generated_Source\PSoC5/SPI_1.c **** 
 977:Generated_Source\PSoC5/SPI_1.c ****     /*******************************************************************************
 978:Generated_Source\PSoC5/SPI_1.c ****     * Function Name: SPI_1_TxEnable
 979:Generated_Source\PSoC5/SPI_1.c ****     ********************************************************************************
 980:Generated_Source\PSoC5/SPI_1.c ****     *
 981:Generated_Source\PSoC5/SPI_1.c ****     * Summary:
 982:Generated_Source\PSoC5/SPI_1.c ****     *  If the SPI Slave is configured to use a single bi-directional pin then this
 983:Generated_Source\PSoC5/SPI_1.c ****     *  will set the bi-directional pin to transmit.
 984:Generated_Source\PSoC5/SPI_1.c ****     *
 985:Generated_Source\PSoC5/SPI_1.c ****     * Parameters:
 986:Generated_Source\PSoC5/SPI_1.c ****     *  None.
 987:Generated_Source\PSoC5/SPI_1.c ****     *
 988:Generated_Source\PSoC5/SPI_1.c ****     * Return:
 989:Generated_Source\PSoC5/SPI_1.c ****     *  None.
 990:Generated_Source\PSoC5/SPI_1.c ****     *
 991:Generated_Source\PSoC5/SPI_1.c ****     *******************************************************************************/
 992:Generated_Source\PSoC5/SPI_1.c ****     void SPI_1_TxEnable(void) 
 993:Generated_Source\PSoC5/SPI_1.c ****     {
 994:Generated_Source\PSoC5/SPI_1.c ****             SPI_1_CONTROL_REG |= SPI_1_CTRL_TX_SIGNAL_EN;
 995:Generated_Source\PSoC5/SPI_1.c ****     }
 996:Generated_Source\PSoC5/SPI_1.c **** 
ARM GAS  C:\Users\Lasse\AppData\Local\Temp\ccNmmdC1.s 			page 28


 997:Generated_Source\PSoC5/SPI_1.c **** 
 998:Generated_Source\PSoC5/SPI_1.c ****     /*******************************************************************************
 999:Generated_Source\PSoC5/SPI_1.c ****     * Function Name: SPI_1_TxDisable
1000:Generated_Source\PSoC5/SPI_1.c ****     ********************************************************************************
1001:Generated_Source\PSoC5/SPI_1.c ****     *
1002:Generated_Source\PSoC5/SPI_1.c ****     * Summary:
1003:Generated_Source\PSoC5/SPI_1.c ****     *  If the SPI Slave is configured to use a single bi-directional pin then this
1004:Generated_Source\PSoC5/SPI_1.c ****     *  will set the bi-directional pin to receive.
1005:Generated_Source\PSoC5/SPI_1.c ****     *
1006:Generated_Source\PSoC5/SPI_1.c ****     * Parameters:
1007:Generated_Source\PSoC5/SPI_1.c ****     *  None.
1008:Generated_Source\PSoC5/SPI_1.c ****     *
1009:Generated_Source\PSoC5/SPI_1.c ****     * Return:
1010:Generated_Source\PSoC5/SPI_1.c ****     *  None.
1011:Generated_Source\PSoC5/SPI_1.c ****     *
1012:Generated_Source\PSoC5/SPI_1.c ****     *******************************************************************************/
1013:Generated_Source\PSoC5/SPI_1.c ****     void SPI_1_TxDisable(void) 
1014:Generated_Source\PSoC5/SPI_1.c ****     {
1015:Generated_Source\PSoC5/SPI_1.c ****             SPI_1_CONTROL_REG &= (uint8)~SPI_1_CTRL_TX_SIGNAL_EN;
1016:Generated_Source\PSoC5/SPI_1.c ****     }
1017:Generated_Source\PSoC5/SPI_1.c **** 
1018:Generated_Source\PSoC5/SPI_1.c **** #endif /* SPI_1_BIDIRECTIONAL_MODE != 0u */
1019:Generated_Source\PSoC5/SPI_1.c **** 
1020:Generated_Source\PSoC5/SPI_1.c **** 
1021:Generated_Source\PSoC5/SPI_1.c **** /*******************************************************************************
1022:Generated_Source\PSoC5/SPI_1.c **** * Function Name: SPI_1_PutArray
1023:Generated_Source\PSoC5/SPI_1.c **** ********************************************************************************
1024:Generated_Source\PSoC5/SPI_1.c **** *
1025:Generated_Source\PSoC5/SPI_1.c **** * Summary:
1026:Generated_Source\PSoC5/SPI_1.c **** *  Write available data from RAM/ROM to the TX buffer while space is available
1027:Generated_Source\PSoC5/SPI_1.c **** *  in the TX buffer. Keep trying until all data is passed to the TX buffer. If
1028:Generated_Source\PSoC5/SPI_1.c **** *  used Mode 00 or 01 before PutArray() function should be called
1029:Generated_Source\PSoC5/SPI_1.c **** *  WriteTxDataZero() function.
1030:Generated_Source\PSoC5/SPI_1.c **** *
1031:Generated_Source\PSoC5/SPI_1.c **** * Parameters:
1032:Generated_Source\PSoC5/SPI_1.c **** *  *buffer: Pointer to the location in RAM containing the data to send
1033:Generated_Source\PSoC5/SPI_1.c **** *  byteCount: The number of bytes to move to the transmit buffer.
1034:Generated_Source\PSoC5/SPI_1.c **** *
1035:Generated_Source\PSoC5/SPI_1.c **** * Return:
1036:Generated_Source\PSoC5/SPI_1.c **** *  None.
1037:Generated_Source\PSoC5/SPI_1.c **** *
1038:Generated_Source\PSoC5/SPI_1.c **** * Side Effects:
1039:Generated_Source\PSoC5/SPI_1.c **** *  Will stay in this routine until all data has been sent.  May get locked in
1040:Generated_Source\PSoC5/SPI_1.c **** *  this loop if data is not being initiated by the master if there is not
1041:Generated_Source\PSoC5/SPI_1.c **** *  enough room in the TX FIFO.
1042:Generated_Source\PSoC5/SPI_1.c **** *
1043:Generated_Source\PSoC5/SPI_1.c **** * Reentrant:
1044:Generated_Source\PSoC5/SPI_1.c **** *  No.
1045:Generated_Source\PSoC5/SPI_1.c **** *
1046:Generated_Source\PSoC5/SPI_1.c **** *******************************************************************************/
1047:Generated_Source\PSoC5/SPI_1.c **** void SPI_1_PutArray(const uint8 buffer[], uint8 byteCount)
1048:Generated_Source\PSoC5/SPI_1.c ****                                                                     
1049:Generated_Source\PSoC5/SPI_1.c **** {
 542              		.loc 1 1049 0
 543              		.cfi_startproc
 544              		@ args = 0, pretend = 0, frame = 0
 545              		@ frame_needed = 0, uses_anonymous_args = 0
ARM GAS  C:\Users\Lasse\AppData\Local\Temp\ccNmmdC1.s 			page 29


 546              	.LVL16:
 547 0000 70B5     		push	{r4, r5, r6, lr}
 548              		.cfi_def_cfa_offset 16
 549              		.cfi_offset 4, -16
 550              		.cfi_offset 5, -12
 551              		.cfi_offset 6, -8
 552              		.cfi_offset 14, -4
 553 0002 0646     		mov	r6, r0
 554 0004 0C46     		mov	r4, r1
 555              	.LVL17:
1050:Generated_Source\PSoC5/SPI_1.c ****     uint8 bufIndex;
1051:Generated_Source\PSoC5/SPI_1.c ****     bufIndex = 0u;
 556              		.loc 1 1051 0
 557 0006 0025     		movs	r5, #0
1052:Generated_Source\PSoC5/SPI_1.c **** 
1053:Generated_Source\PSoC5/SPI_1.c ****     while(byteCount > 0u)
 558              		.loc 1 1053 0
 559 0008 06E0     		b	.L60
 560              	.LVL18:
 561              	.L61:
1054:Generated_Source\PSoC5/SPI_1.c ****     {
1055:Generated_Source\PSoC5/SPI_1.c ****         SPI_1_WriteTxData(buffer[bufIndex]);
 562              		.loc 1 1055 0
 563 000a 705D     		ldrb	r0, [r6, r5]	@ zero_extendqisi2
 564 000c FFF7FEFF 		bl	SPI_1_WriteTxData
 565              	.LVL19:
1056:Generated_Source\PSoC5/SPI_1.c ****         bufIndex++;
 566              		.loc 1 1056 0
 567 0010 0135     		adds	r5, r5, #1
 568              	.LVL20:
 569 0012 EDB2     		uxtb	r5, r5
 570              	.LVL21:
1057:Generated_Source\PSoC5/SPI_1.c ****         byteCount--;
 571              		.loc 1 1057 0
 572 0014 013C     		subs	r4, r4, #1
 573              	.LVL22:
 574 0016 E4B2     		uxtb	r4, r4
 575              	.LVL23:
 576              	.L60:
1053:Generated_Source\PSoC5/SPI_1.c ****     {
 577              		.loc 1 1053 0
 578 0018 002C     		cmp	r4, #0
 579 001a F6D1     		bne	.L61
1058:Generated_Source\PSoC5/SPI_1.c ****     }
1059:Generated_Source\PSoC5/SPI_1.c **** }
 580              		.loc 1 1059 0
 581 001c 70BD     		pop	{r4, r5, r6, pc}
 582              		.cfi_endproc
 583              	.LFE19:
 584              		.size	SPI_1_PutArray, .-SPI_1_PutArray
 585 001e 00BF     		.section	.text.SPI_1_ClearFIFO,"ax",%progbits
 586              		.align	2
 587              		.global	SPI_1_ClearFIFO
 588              		.thumb
 589              		.thumb_func
 590              		.type	SPI_1_ClearFIFO, %function
 591              	SPI_1_ClearFIFO:
ARM GAS  C:\Users\Lasse\AppData\Local\Temp\ccNmmdC1.s 			page 30


 592              	.LFB20:
1060:Generated_Source\PSoC5/SPI_1.c **** 
1061:Generated_Source\PSoC5/SPI_1.c **** 
1062:Generated_Source\PSoC5/SPI_1.c **** /*******************************************************************************
1063:Generated_Source\PSoC5/SPI_1.c **** * Function Name: SPI_1_ClearFIFO
1064:Generated_Source\PSoC5/SPI_1.c **** ********************************************************************************
1065:Generated_Source\PSoC5/SPI_1.c **** *
1066:Generated_Source\PSoC5/SPI_1.c **** * Summary:
1067:Generated_Source\PSoC5/SPI_1.c **** *  Clear the RX and TX FIFO's of all data for a fresh start.
1068:Generated_Source\PSoC5/SPI_1.c **** *
1069:Generated_Source\PSoC5/SPI_1.c **** * Parameters:
1070:Generated_Source\PSoC5/SPI_1.c **** *  None.
1071:Generated_Source\PSoC5/SPI_1.c **** *
1072:Generated_Source\PSoC5/SPI_1.c **** * Return:
1073:Generated_Source\PSoC5/SPI_1.c **** *  None.
1074:Generated_Source\PSoC5/SPI_1.c **** *
1075:Generated_Source\PSoC5/SPI_1.c **** * Side Effects:
1076:Generated_Source\PSoC5/SPI_1.c **** *  Clear status register of the component.
1077:Generated_Source\PSoC5/SPI_1.c **** *
1078:Generated_Source\PSoC5/SPI_1.c **** *******************************************************************************/
1079:Generated_Source\PSoC5/SPI_1.c **** void SPI_1_ClearFIFO(void) 
1080:Generated_Source\PSoC5/SPI_1.c **** {
 593              		.loc 1 1080 0
 594              		.cfi_startproc
 595              		@ args = 0, pretend = 0, frame = 0
 596              		@ frame_needed = 0, uses_anonymous_args = 0
 597 0000 08B5     		push	{r3, lr}
 598              		.cfi_def_cfa_offset 8
 599              		.cfi_offset 3, -8
 600              		.cfi_offset 14, -4
1081:Generated_Source\PSoC5/SPI_1.c ****     uint8 enableInterrupts;
1082:Generated_Source\PSoC5/SPI_1.c **** 
1083:Generated_Source\PSoC5/SPI_1.c ****     while((SPI_1_RX_STATUS_REG & SPI_1_STS_RX_FIFO_NOT_EMPTY) != 0u)
 601              		.loc 1 1083 0
 602 0002 01E0     		b	.L64
 603              	.L65:
1084:Generated_Source\PSoC5/SPI_1.c ****     {
1085:Generated_Source\PSoC5/SPI_1.c ****         CY_GET_REG8(SPI_1_RXDATA_PTR);
 604              		.loc 1 1085 0
 605 0004 0A4B     		ldr	r3, .L67
 606 0006 1B78     		ldrb	r3, [r3]	@ zero_extendqisi2
 607              	.L64:
1083:Generated_Source\PSoC5/SPI_1.c ****     {
 608              		.loc 1 1083 0
 609 0008 0A4B     		ldr	r3, .L67+4
 610 000a 1B78     		ldrb	r3, [r3]	@ zero_extendqisi2
 611 000c 13F0080F 		tst	r3, #8
 612 0010 F8D1     		bne	.L65
1086:Generated_Source\PSoC5/SPI_1.c ****     }
1087:Generated_Source\PSoC5/SPI_1.c **** 
1088:Generated_Source\PSoC5/SPI_1.c ****     enableInterrupts = CyEnterCriticalSection();
 613              		.loc 1 1088 0
 614 0012 FFF7FEFF 		bl	CyEnterCriticalSection
 615              	.LVL24:
1089:Generated_Source\PSoC5/SPI_1.c **** 
1090:Generated_Source\PSoC5/SPI_1.c ****     #if(SPI_1_DATA_WIDTH <= 8u)
1091:Generated_Source\PSoC5/SPI_1.c **** 
ARM GAS  C:\Users\Lasse\AppData\Local\Temp\ccNmmdC1.s 			page 31


1092:Generated_Source\PSoC5/SPI_1.c ****         /* Clear TX FIFO */
1093:Generated_Source\PSoC5/SPI_1.c ****         SPI_1_TX_AUX_CONTROL_DP0_REG |= (uint8)SPI_1_FIFO_CLR;
 616              		.loc 1 1093 0
 617 0016 084B     		ldr	r3, .L67+8
 618 0018 1A78     		ldrb	r2, [r3]	@ zero_extendqisi2
 619 001a 42F00302 		orr	r2, r2, #3
 620 001e 1A70     		strb	r2, [r3]
1094:Generated_Source\PSoC5/SPI_1.c ****         SPI_1_TX_AUX_CONTROL_DP0_REG &= (uint8)~SPI_1_FIFO_CLR;
 621              		.loc 1 1094 0
 622 0020 1A78     		ldrb	r2, [r3]	@ zero_extendqisi2
 623 0022 02F0FC02 		and	r2, r2, #252
 624 0026 1A70     		strb	r2, [r3]
1095:Generated_Source\PSoC5/SPI_1.c **** 
1096:Generated_Source\PSoC5/SPI_1.c ****     #else
1097:Generated_Source\PSoC5/SPI_1.c **** 
1098:Generated_Source\PSoC5/SPI_1.c ****         /* Clear TX FIFO */
1099:Generated_Source\PSoC5/SPI_1.c ****         SPI_1_TX_AUX_CONTROL_DP0_REG |= (uint8)SPI_1_FIFO_CLR;
1100:Generated_Source\PSoC5/SPI_1.c ****         SPI_1_TX_AUX_CONTROL_DP0_REG &= (uint8)~SPI_1_FIFO_CLR;
1101:Generated_Source\PSoC5/SPI_1.c ****         SPI_1_TX_AUX_CONTROL_DP1_REG |= (uint8)SPI_1_FIFO_CLR;
1102:Generated_Source\PSoC5/SPI_1.c ****         SPI_1_TX_AUX_CONTROL_DP1_REG &= (uint8)~SPI_1_FIFO_CLR;
1103:Generated_Source\PSoC5/SPI_1.c **** 
1104:Generated_Source\PSoC5/SPI_1.c ****     #endif /* SPI_1_DATA_WIDTH <= 8u */
1105:Generated_Source\PSoC5/SPI_1.c **** 
1106:Generated_Source\PSoC5/SPI_1.c ****     CyExitCriticalSection(enableInterrupts);
 625              		.loc 1 1106 0
 626 0028 FFF7FEFF 		bl	CyExitCriticalSection
 627              	.LVL25:
 628 002c 08BD     		pop	{r3, pc}
 629              	.L68:
 630 002e 00BF     		.align	2
 631              	.L67:
 632 0030 5B640040 		.word	1073767515
 633 0034 68640040 		.word	1073767528
 634 0038 9B640040 		.word	1073767579
 635              		.cfi_endproc
 636              	.LFE20:
 637              		.size	SPI_1_ClearFIFO, .-SPI_1_ClearFIFO
 638              		.section	.text.SPI_1_Init,"ax",%progbits
 639              		.align	2
 640              		.global	SPI_1_Init
 641              		.thumb
 642              		.thumb_func
 643              		.type	SPI_1_Init, %function
 644              	SPI_1_Init:
 645              	.LFB0:
  68:Generated_Source\PSoC5/SPI_1.c ****     /*Initialize the Bit counter */
 646              		.loc 1 68 0
 647              		.cfi_startproc
 648              		@ args = 0, pretend = 0, frame = 0
 649              		@ frame_needed = 0, uses_anonymous_args = 0
 650 0000 08B5     		push	{r3, lr}
 651              		.cfi_def_cfa_offset 8
 652              		.cfi_offset 3, -8
 653              		.cfi_offset 14, -4
  70:Generated_Source\PSoC5/SPI_1.c **** 
 654              		.loc 1 70 0
 655 0002 0722     		movs	r2, #7
ARM GAS  C:\Users\Lasse\AppData\Local\Temp\ccNmmdC1.s 			page 32


 656 0004 0D4B     		ldr	r3, .L71
 657 0006 1A70     		strb	r2, [r3]
  87:Generated_Source\PSoC5/SPI_1.c **** 
 658              		.loc 1 87 0
 659 0008 4FF48072 		mov	r2, #256
 660 000c 0C4B     		ldr	r3, .L71+4
 661 000e 1A60     		str	r2, [r3]
  90:Generated_Source\PSoC5/SPI_1.c **** 
 662              		.loc 1 90 0
 663 0010 0C49     		ldr	r1, .L71+8
 664 0012 0820     		movs	r0, #8
 665 0014 FFF7FEFF 		bl	CyIntSetVector
 666              	.LVL26:
  93:Generated_Source\PSoC5/SPI_1.c **** 
 667              		.loc 1 93 0
 668 0018 0021     		movs	r1, #0
 669 001a 0820     		movs	r0, #8
 670 001c FFF7FEFF 		bl	CyIntSetPriority
 671              	.LVL27:
  98:Generated_Source\PSoC5/SPI_1.c **** 
 672              		.loc 1 98 0
 673 0020 FFF7FEFF 		bl	SPI_1_ClearFIFO
 674              	.LVL28:
 112:Generated_Source\PSoC5/SPI_1.c ****     (void) SPI_1_ReadRxStatus(); /* Clear any pending status bits */
 675              		.loc 1 112 0
 676 0024 FFF7FEFF 		bl	SPI_1_ReadTxStatus
 677              	.LVL29:
 113:Generated_Source\PSoC5/SPI_1.c **** 
 678              		.loc 1 113 0
 679 0028 FFF7FEFF 		bl	SPI_1_ReadRxStatus
 680              	.LVL30:
 121:Generated_Source\PSoC5/SPI_1.c ****     #endif /* SPI_1_TX_SOFTWARE_BUF_ENABLED */
 681              		.loc 1 121 0
 682 002c 0022     		movs	r2, #0
 683 002e 064B     		ldr	r3, .L71+12
 684 0030 1A70     		strb	r2, [r3]
 124:Generated_Source\PSoC5/SPI_1.c **** }
 685              		.loc 1 124 0
 686 0032 0822     		movs	r2, #8
 687 0034 A3F58073 		sub	r3, r3, #256
 688 0038 1A70     		strb	r2, [r3]
 689 003a 08BD     		pop	{r3, pc}
 690              	.L72:
 691              		.align	2
 692              	.L71:
 693 003c 8C640040 		.word	1073767564
 694 0040 80E100E0 		.word	-536813184
 695 0044 00000000 		.word	SPI_1_RX_ISR
 696 0048 88650040 		.word	1073767816
 697              		.cfi_endproc
 698              	.LFE0:
 699              		.size	SPI_1_Init, .-SPI_1_Init
 700              		.section	.text.SPI_1_Start,"ax",%progbits
 701              		.align	2
 702              		.global	SPI_1_Start
 703              		.thumb
 704              		.thumb_func
ARM GAS  C:\Users\Lasse\AppData\Local\Temp\ccNmmdC1.s 			page 33


 705              		.type	SPI_1_Start, %function
 706              	SPI_1_Start:
 707              	.LFB2:
 188:Generated_Source\PSoC5/SPI_1.c ****     if(SPI_1_initVar == 0u)
 708              		.loc 1 188 0
 709              		.cfi_startproc
 710              		@ args = 0, pretend = 0, frame = 0
 711              		@ frame_needed = 0, uses_anonymous_args = 0
 712 0000 08B5     		push	{r3, lr}
 713              		.cfi_def_cfa_offset 8
 714              		.cfi_offset 3, -8
 715              		.cfi_offset 14, -4
 189:Generated_Source\PSoC5/SPI_1.c ****     {
 716              		.loc 1 189 0
 717 0002 054B     		ldr	r3, .L76
 718 0004 1B78     		ldrb	r3, [r3]	@ zero_extendqisi2
 719 0006 23B9     		cbnz	r3, .L74
 191:Generated_Source\PSoC5/SPI_1.c ****         SPI_1_initVar = 1u;
 720              		.loc 1 191 0
 721 0008 FFF7FEFF 		bl	SPI_1_Init
 722              	.LVL31:
 192:Generated_Source\PSoC5/SPI_1.c ****     }
 723              		.loc 1 192 0
 724 000c 0122     		movs	r2, #1
 725 000e 024B     		ldr	r3, .L76
 726 0010 1A70     		strb	r2, [r3]
 727              	.L74:
 195:Generated_Source\PSoC5/SPI_1.c **** }
 728              		.loc 1 195 0
 729 0012 FFF7FEFF 		bl	SPI_1_Enable
 730              	.LVL32:
 731 0016 08BD     		pop	{r3, pc}
 732              	.L77:
 733              		.align	2
 734              	.L76:
 735 0018 00000000 		.word	.LANCHOR0
 736              		.cfi_endproc
 737              	.LFE2:
 738              		.size	SPI_1_Start, .-SPI_1_Start
 739              		.section	.text.SPI_1_EnableInt,"ax",%progbits
 740              		.align	2
 741              		.global	SPI_1_EnableInt
 742              		.thumb
 743              		.thumb_func
 744              		.type	SPI_1_EnableInt, %function
 745              	SPI_1_EnableInt:
 746              	.LFB21:
1107:Generated_Source\PSoC5/SPI_1.c **** }
1108:Generated_Source\PSoC5/SPI_1.c **** 
1109:Generated_Source\PSoC5/SPI_1.c **** 
1110:Generated_Source\PSoC5/SPI_1.c **** /* Following functions are for version Compatibility, they are obsolete.
1111:Generated_Source\PSoC5/SPI_1.c **** *  Please do not use it in new projects.
1112:Generated_Source\PSoC5/SPI_1.c **** */
1113:Generated_Source\PSoC5/SPI_1.c **** 
1114:Generated_Source\PSoC5/SPI_1.c **** 
1115:Generated_Source\PSoC5/SPI_1.c **** /*******************************************************************************
1116:Generated_Source\PSoC5/SPI_1.c **** * Function Name: SPI_1_EnableInt
ARM GAS  C:\Users\Lasse\AppData\Local\Temp\ccNmmdC1.s 			page 34


1117:Generated_Source\PSoC5/SPI_1.c **** ********************************************************************************
1118:Generated_Source\PSoC5/SPI_1.c **** *
1119:Generated_Source\PSoC5/SPI_1.c **** * Summary:
1120:Generated_Source\PSoC5/SPI_1.c **** *  Enable internal interrupt generation.
1121:Generated_Source\PSoC5/SPI_1.c **** *
1122:Generated_Source\PSoC5/SPI_1.c **** * Parameters:
1123:Generated_Source\PSoC5/SPI_1.c **** *  None.
1124:Generated_Source\PSoC5/SPI_1.c **** *
1125:Generated_Source\PSoC5/SPI_1.c **** * Return:
1126:Generated_Source\PSoC5/SPI_1.c **** *  None.
1127:Generated_Source\PSoC5/SPI_1.c **** *
1128:Generated_Source\PSoC5/SPI_1.c **** * Theory:
1129:Generated_Source\PSoC5/SPI_1.c **** *  Enable the internal interrupt output -or- the interrupt component itself.
1130:Generated_Source\PSoC5/SPI_1.c **** *
1131:Generated_Source\PSoC5/SPI_1.c **** *******************************************************************************/
1132:Generated_Source\PSoC5/SPI_1.c **** void SPI_1_EnableInt(void) 
1133:Generated_Source\PSoC5/SPI_1.c **** {
 747              		.loc 1 1133 0
 748              		.cfi_startproc
 749              		@ args = 0, pretend = 0, frame = 0
 750              		@ frame_needed = 0, uses_anonymous_args = 0
 751              		@ link register save eliminated.
1134:Generated_Source\PSoC5/SPI_1.c ****     #if(SPI_1_INTERNAL_TX_INT_ENABLED)
1135:Generated_Source\PSoC5/SPI_1.c ****         CyIntEnable(SPI_1_TX_ISR_NUMBER);
1136:Generated_Source\PSoC5/SPI_1.c ****     #endif /* SPI_1_INTERNAL_TX_INT_ENABLED */
1137:Generated_Source\PSoC5/SPI_1.c **** 
1138:Generated_Source\PSoC5/SPI_1.c ****     #if(SPI_1_INTERNAL_RX_INT_ENABLED)
1139:Generated_Source\PSoC5/SPI_1.c ****         CyIntEnable(SPI_1_RX_ISR_NUMBER);
 752              		.loc 1 1139 0
 753 0000 4FF48072 		mov	r2, #256
 754 0004 014B     		ldr	r3, .L79
 755 0006 1A60     		str	r2, [r3]
 756 0008 7047     		bx	lr
 757              	.L80:
 758 000a 00BF     		.align	2
 759              	.L79:
 760 000c 00E100E0 		.word	-536813312
 761              		.cfi_endproc
 762              	.LFE21:
 763              		.size	SPI_1_EnableInt, .-SPI_1_EnableInt
 764              		.section	.text.SPI_1_DisableInt,"ax",%progbits
 765              		.align	2
 766              		.global	SPI_1_DisableInt
 767              		.thumb
 768              		.thumb_func
 769              		.type	SPI_1_DisableInt, %function
 770              	SPI_1_DisableInt:
 771              	.LFB22:
1140:Generated_Source\PSoC5/SPI_1.c ****     #endif /* SPI_1_INTERNAL_RX_INT_ENABLED */
1141:Generated_Source\PSoC5/SPI_1.c **** }
1142:Generated_Source\PSoC5/SPI_1.c **** 
1143:Generated_Source\PSoC5/SPI_1.c **** 
1144:Generated_Source\PSoC5/SPI_1.c **** /*******************************************************************************
1145:Generated_Source\PSoC5/SPI_1.c **** * Function Name: SPI_1_DisableInt
1146:Generated_Source\PSoC5/SPI_1.c **** ********************************************************************************
1147:Generated_Source\PSoC5/SPI_1.c **** *
1148:Generated_Source\PSoC5/SPI_1.c **** * Summary:
ARM GAS  C:\Users\Lasse\AppData\Local\Temp\ccNmmdC1.s 			page 35


1149:Generated_Source\PSoC5/SPI_1.c **** *  Disable internal interrupt generation.
1150:Generated_Source\PSoC5/SPI_1.c **** *
1151:Generated_Source\PSoC5/SPI_1.c **** * Parameters:
1152:Generated_Source\PSoC5/SPI_1.c **** *  None.
1153:Generated_Source\PSoC5/SPI_1.c **** *
1154:Generated_Source\PSoC5/SPI_1.c **** * Return:
1155:Generated_Source\PSoC5/SPI_1.c **** *  None.
1156:Generated_Source\PSoC5/SPI_1.c **** *
1157:Generated_Source\PSoC5/SPI_1.c **** * Theory:
1158:Generated_Source\PSoC5/SPI_1.c **** *  Disable the internal interrupt output -or- the interrupt component itself.
1159:Generated_Source\PSoC5/SPI_1.c **** *
1160:Generated_Source\PSoC5/SPI_1.c **** *******************************************************************************/
1161:Generated_Source\PSoC5/SPI_1.c **** void SPI_1_DisableInt(void) 
1162:Generated_Source\PSoC5/SPI_1.c **** {
 772              		.loc 1 1162 0
 773              		.cfi_startproc
 774              		@ args = 0, pretend = 0, frame = 0
 775              		@ frame_needed = 0, uses_anonymous_args = 0
 776              		@ link register save eliminated.
1163:Generated_Source\PSoC5/SPI_1.c ****     #if(SPI_1_INTERNAL_TX_INT_ENABLED)
1164:Generated_Source\PSoC5/SPI_1.c ****         CyIntDisable(SPI_1_TX_ISR_NUMBER);
1165:Generated_Source\PSoC5/SPI_1.c ****     #endif /* SPI_1_INTERNAL_TX_INT_ENABLED */
1166:Generated_Source\PSoC5/SPI_1.c **** 
1167:Generated_Source\PSoC5/SPI_1.c ****     #if(SPI_1_INTERNAL_RX_INT_ENABLED)
1168:Generated_Source\PSoC5/SPI_1.c ****         CyIntDisable(SPI_1_RX_ISR_NUMBER);
 777              		.loc 1 1168 0
 778 0000 4FF48072 		mov	r2, #256
 779 0004 014B     		ldr	r3, .L82
 780 0006 1A60     		str	r2, [r3]
 781 0008 7047     		bx	lr
 782              	.L83:
 783 000a 00BF     		.align	2
 784              	.L82:
 785 000c 80E100E0 		.word	-536813184
 786              		.cfi_endproc
 787              	.LFE22:
 788              		.size	SPI_1_DisableInt, .-SPI_1_DisableInt
 789              		.section	.text.SPI_1_SetInterruptMode,"ax",%progbits
 790              		.align	2
 791              		.global	SPI_1_SetInterruptMode
 792              		.thumb
 793              		.thumb_func
 794              		.type	SPI_1_SetInterruptMode, %function
 795              	SPI_1_SetInterruptMode:
 796              	.LFB23:
1169:Generated_Source\PSoC5/SPI_1.c ****     #endif /* SPI_1_INTERNAL_RX_INT_ENABLED */
1170:Generated_Source\PSoC5/SPI_1.c **** }
1171:Generated_Source\PSoC5/SPI_1.c **** 
1172:Generated_Source\PSoC5/SPI_1.c **** 
1173:Generated_Source\PSoC5/SPI_1.c **** /*******************************************************************************
1174:Generated_Source\PSoC5/SPI_1.c **** * Function Name: SPI_1_SetInterruptMode
1175:Generated_Source\PSoC5/SPI_1.c **** ********************************************************************************
1176:Generated_Source\PSoC5/SPI_1.c **** *
1177:Generated_Source\PSoC5/SPI_1.c **** * Summary:
1178:Generated_Source\PSoC5/SPI_1.c **** *  Configure which status bits trigger an interrupt event.
1179:Generated_Source\PSoC5/SPI_1.c **** *
1180:Generated_Source\PSoC5/SPI_1.c **** * Parameters:
ARM GAS  C:\Users\Lasse\AppData\Local\Temp\ccNmmdC1.s 			page 36


1181:Generated_Source\PSoC5/SPI_1.c **** *  intSrc: An or'd combination of the desired status bit masks (defined in the
1182:Generated_Source\PSoC5/SPI_1.c **** *  header file).
1183:Generated_Source\PSoC5/SPI_1.c **** *
1184:Generated_Source\PSoC5/SPI_1.c **** * Return:
1185:Generated_Source\PSoC5/SPI_1.c **** *  None.
1186:Generated_Source\PSoC5/SPI_1.c **** *
1187:Generated_Source\PSoC5/SPI_1.c **** * Theory:
1188:Generated_Source\PSoC5/SPI_1.c **** *  Enables the output of specific status bits to the interrupt controller.
1189:Generated_Source\PSoC5/SPI_1.c **** *
1190:Generated_Source\PSoC5/SPI_1.c **** *******************************************************************************/
1191:Generated_Source\PSoC5/SPI_1.c **** void SPI_1_SetInterruptMode(uint8 intSrc) 
1192:Generated_Source\PSoC5/SPI_1.c **** {
 797              		.loc 1 1192 0
 798              		.cfi_startproc
 799              		@ args = 0, pretend = 0, frame = 0
 800              		@ frame_needed = 0, uses_anonymous_args = 0
 801              		@ link register save eliminated.
 802              	.LVL33:
1193:Generated_Source\PSoC5/SPI_1.c ****     SPI_1_TX_STATUS_MASK_REG  = intSrc;
 803              		.loc 1 1193 0
 804 0000 024B     		ldr	r3, .L85
 805 0002 1870     		strb	r0, [r3]
1194:Generated_Source\PSoC5/SPI_1.c ****     SPI_1_RX_STATUS_MASK_REG  = intSrc;
 806              		.loc 1 1194 0
 807 0004 A3F58073 		sub	r3, r3, #256
 808 0008 1870     		strb	r0, [r3]
 809 000a 7047     		bx	lr
 810              	.L86:
 811              		.align	2
 812              	.L85:
 813 000c 88650040 		.word	1073767816
 814              		.cfi_endproc
 815              	.LFE23:
 816              		.size	SPI_1_SetInterruptMode, .-SPI_1_SetInterruptMode
 817              		.section	.text.SPI_1_ReadStatus,"ax",%progbits
 818              		.align	2
 819              		.global	SPI_1_ReadStatus
 820              		.thumb
 821              		.thumb_func
 822              		.type	SPI_1_ReadStatus, %function
 823              	SPI_1_ReadStatus:
 824              	.LFB24:
1195:Generated_Source\PSoC5/SPI_1.c **** }
1196:Generated_Source\PSoC5/SPI_1.c **** 
1197:Generated_Source\PSoC5/SPI_1.c **** 
1198:Generated_Source\PSoC5/SPI_1.c **** /*******************************************************************************
1199:Generated_Source\PSoC5/SPI_1.c **** * Function Name: SPI_1_ReadStatus
1200:Generated_Source\PSoC5/SPI_1.c **** ********************************************************************************
1201:Generated_Source\PSoC5/SPI_1.c **** *
1202:Generated_Source\PSoC5/SPI_1.c **** * Summary:
1203:Generated_Source\PSoC5/SPI_1.c **** *  Read the status register for the component.
1204:Generated_Source\PSoC5/SPI_1.c **** *
1205:Generated_Source\PSoC5/SPI_1.c **** * Parameters:
1206:Generated_Source\PSoC5/SPI_1.c **** *  None.
1207:Generated_Source\PSoC5/SPI_1.c **** *
1208:Generated_Source\PSoC5/SPI_1.c **** * Return:
1209:Generated_Source\PSoC5/SPI_1.c **** *  Contents of the status register.
ARM GAS  C:\Users\Lasse\AppData\Local\Temp\ccNmmdC1.s 			page 37


1210:Generated_Source\PSoC5/SPI_1.c **** *
1211:Generated_Source\PSoC5/SPI_1.c **** * Global variables:
1212:Generated_Source\PSoC5/SPI_1.c **** *  SPI_1_swStatus - used to store in software status register,
1213:Generated_Source\PSoC5/SPI_1.c **** *  modified every function call - resets to zero.
1214:Generated_Source\PSoC5/SPI_1.c **** *
1215:Generated_Source\PSoC5/SPI_1.c **** * Theory:
1216:Generated_Source\PSoC5/SPI_1.c **** *  Allows the user and the API to read the status register for error detection
1217:Generated_Source\PSoC5/SPI_1.c **** *  and flow control.
1218:Generated_Source\PSoC5/SPI_1.c **** *
1219:Generated_Source\PSoC5/SPI_1.c **** * Side Effects:
1220:Generated_Source\PSoC5/SPI_1.c **** *  Clear status register of the component.
1221:Generated_Source\PSoC5/SPI_1.c **** *
1222:Generated_Source\PSoC5/SPI_1.c **** * Reentrant:
1223:Generated_Source\PSoC5/SPI_1.c **** *  No.
1224:Generated_Source\PSoC5/SPI_1.c **** *
1225:Generated_Source\PSoC5/SPI_1.c **** *******************************************************************************/
1226:Generated_Source\PSoC5/SPI_1.c **** uint8 SPI_1_ReadStatus(void) 
1227:Generated_Source\PSoC5/SPI_1.c **** {
 825              		.loc 1 1227 0
 826              		.cfi_startproc
 827              		@ args = 0, pretend = 0, frame = 0
 828              		@ frame_needed = 0, uses_anonymous_args = 0
 829              		@ link register save eliminated.
1228:Generated_Source\PSoC5/SPI_1.c ****     uint8 tmpStatus;
1229:Generated_Source\PSoC5/SPI_1.c **** 
1230:Generated_Source\PSoC5/SPI_1.c ****     #if ((SPI_1_TX_SOFTWARE_BUF_ENABLED) || (SPI_1_RX_SOFTWARE_BUF_ENABLED))
1231:Generated_Source\PSoC5/SPI_1.c **** 
1232:Generated_Source\PSoC5/SPI_1.c ****         SPI_1_DisableInt();
1233:Generated_Source\PSoC5/SPI_1.c **** 
1234:Generated_Source\PSoC5/SPI_1.c ****         tmpStatus = SPI_1_GET_STATUS_TX(SPI_1_swStatusTx) |
1235:Generated_Source\PSoC5/SPI_1.c ****               (SPI_1_GET_STATUS_RX(SPI_1_swStatusRx) & (uint8)~SPI_1_STS_RX_FIFO_FULL);
1236:Generated_Source\PSoC5/SPI_1.c **** 
1237:Generated_Source\PSoC5/SPI_1.c ****         SPI_1_swStatusTx = 0u;
1238:Generated_Source\PSoC5/SPI_1.c ****         SPI_1_swStatusRx = 0u;
1239:Generated_Source\PSoC5/SPI_1.c **** 
1240:Generated_Source\PSoC5/SPI_1.c ****         /* Enable Interrupts */
1241:Generated_Source\PSoC5/SPI_1.c ****         SPI_1_EnableInt();
1242:Generated_Source\PSoC5/SPI_1.c **** 
1243:Generated_Source\PSoC5/SPI_1.c ****     #else /* !((SPI_1_TX_SOFTWARE_BUF_ENABLED) || (SPI_1_RX_SOFTWARE_BUF_ENABLED)) */
1244:Generated_Source\PSoC5/SPI_1.c **** 
1245:Generated_Source\PSoC5/SPI_1.c ****         tmpStatus = SPI_1_TX_STATUS_REG | (SPI_1_RX_STATUS_REG &
 830              		.loc 1 1245 0
 831 0000 044B     		ldr	r3, .L88
 832 0002 1878     		ldrb	r0, [r3]	@ zero_extendqisi2
 833 0004 A3F58073 		sub	r3, r3, #256
 834 0008 1B78     		ldrb	r3, [r3]	@ zero_extendqisi2
 835 000a 03F0BF03 		and	r3, r3, #191
 836              	.LVL34:
1246:Generated_Source\PSoC5/SPI_1.c ****                                                       (uint8)~SPI_1_STS_RX_FIFO_FULL);
1247:Generated_Source\PSoC5/SPI_1.c **** 
1248:Generated_Source\PSoC5/SPI_1.c ****     #endif /* (SPI_1_TX_SOFTWARE_BUF_ENABLED) || (SPI_1_RX_SOFTWARE_BUF_ENABLED) */
1249:Generated_Source\PSoC5/SPI_1.c **** 
1250:Generated_Source\PSoC5/SPI_1.c ****     return(tmpStatus);
1251:Generated_Source\PSoC5/SPI_1.c **** }
 837              		.loc 1 1251 0
 838 000e 1843     		orrs	r0, r0, r3
 839              	.LVL35:
ARM GAS  C:\Users\Lasse\AppData\Local\Temp\ccNmmdC1.s 			page 38


 840 0010 7047     		bx	lr
 841              	.L89:
 842 0012 00BF     		.align	2
 843              	.L88:
 844 0014 68650040 		.word	1073767784
 845              		.cfi_endproc
 846              	.LFE24:
 847              		.size	SPI_1_ReadStatus, .-SPI_1_ReadStatus
 848              		.comm	SPI_1_swStatusRx,1,1
 849              		.comm	SPI_1_swStatusTx,1,1
 850              		.global	SPI_1_initVar
 851              		.bss
 852              		.set	.LANCHOR0,. + 0
 853              		.type	SPI_1_initVar, %object
 854              		.size	SPI_1_initVar, 1
 855              	SPI_1_initVar:
 856 0000 00       		.space	1
 857              		.text
 858              	.Letext0:
 859              		.file 2 "Generated_Source\\PSoC5\\cytypes.h"
 860              		.file 3 "Generated_Source\\PSoC5\\CyLib.h"