ARM GAS  C:\Users\Lasse\AppData\Local\Temp\cc0jxxaT.s 			page 1


   1              		.syntax unified
   2              		.cpu cortex-m3
   3              		.fpu softvfp
   4              		.eabi_attribute 20, 1
   5              		.eabi_attribute 21, 1
   6              		.eabi_attribute 23, 3
   7              		.eabi_attribute 24, 1
   8              		.eabi_attribute 25, 1
   9              		.eabi_attribute 26, 1
  10              		.eabi_attribute 30, 1
  11              		.eabi_attribute 34, 1
  12              		.eabi_attribute 18, 4
  13              		.thumb
  14              		.syntax unified
  15              		.file	"SPI_driver_PSoC.c"
  16              		.text
  17              	.Ltext0:
  18              		.cfi_sections	.debug_frame
  19              		.section	.text.SPI_start,"ax",%progbits
  20              		.align	2
  21              		.global	SPI_start
  22              		.thumb
  23              		.thumb_func
  24              		.type	SPI_start, %function
  25              	SPI_start:
  26              	.LFB64:
  27              		.file 1 "SPI_driver_PSoC.c"
   1:SPI_driver_PSoC.c **** /* ========================================
   2:SPI_driver_PSoC.c ****  *
   3:SPI_driver_PSoC.c ****  * Copyright YOUR COMPANY, THE YEAR
   4:SPI_driver_PSoC.c ****  * All Rights Reserved
   5:SPI_driver_PSoC.c ****  * UNPUBLISHED, LICENSED SOFTWARE.
   6:SPI_driver_PSoC.c ****  *
   7:SPI_driver_PSoC.c ****  * CONFIDENTIAL AND PROPRIETARY INFORMATION
   8:SPI_driver_PSoC.c ****  * WHICH IS THE PROPERTY OF your company.
   9:SPI_driver_PSoC.c ****  *
  10:SPI_driver_PSoC.c ****  * ========================================
  11:SPI_driver_PSoC.c **** */
  12:SPI_driver_PSoC.c **** 
  13:SPI_driver_PSoC.c **** #include "SPI_driver_PSoC.h"
  14:SPI_driver_PSoC.c **** 
  15:SPI_driver_PSoC.c **** 
  16:SPI_driver_PSoC.c **** void SPI_start(){
  28              		.loc 1 16 0
  29              		.cfi_startproc
  30              		@ args = 0, pretend = 0, frame = 0
  31              		@ frame_needed = 0, uses_anonymous_args = 0
  32 0000 10B5     		push	{r4, lr}
  33              		.cfi_def_cfa_offset 8
  34              		.cfi_offset 4, -8
  35              		.cfi_offset 14, -4
  17:SPI_driver_PSoC.c ****     SPI_recieved_flag = 0;
  36              		.loc 1 17 0
  37 0002 0024     		movs	r4, #0
  38 0004 054B     		ldr	r3, .L3
  39 0006 1C70     		strb	r4, [r3]
  18:SPI_driver_PSoC.c ****     SPI_ISR_StartEx(ISR_SPI_RX_handler);
ARM GAS  C:\Users\Lasse\AppData\Local\Temp\cc0jxxaT.s 			page 2


  40              		.loc 1 18 0
  41 0008 0548     		ldr	r0, .L3+4
  42 000a FFF7FEFF 		bl	SPI_ISR_StartEx
  43              	.LVL0:
  19:SPI_driver_PSoC.c ****     SPI_1_Start();
  44              		.loc 1 19 0
  45 000e FFF7FEFF 		bl	SPI_1_Start
  46              	.LVL1:
  20:SPI_driver_PSoC.c ****     SPI_read_req_Write(0);
  47              		.loc 1 20 0
  48 0012 2046     		mov	r0, r4
  49 0014 FFF7FEFF 		bl	SPI_read_req_Write
  50              	.LVL2:
  51 0018 10BD     		pop	{r4, pc}
  52              	.L4:
  53 001a 00BF     		.align	2
  54              	.L3:
  55 001c 00000000 		.word	SPI_recieved_flag
  56 0020 00000000 		.word	ISR_SPI_RX_handler
  57              		.cfi_endproc
  58              	.LFE64:
  59              		.size	SPI_start, .-SPI_start
  60              		.section	.text.SPI_send_pigeon_detected,"ax",%progbits
  61              		.align	2
  62              		.global	SPI_send_pigeon_detected
  63              		.thumb
  64              		.thumb_func
  65              		.type	SPI_send_pigeon_detected, %function
  66              	SPI_send_pigeon_detected:
  67              	.LFB65:
  21:SPI_driver_PSoC.c **** }
  22:SPI_driver_PSoC.c **** 
  23:SPI_driver_PSoC.c **** void SPI_send_pigeon_detected(){
  68              		.loc 1 23 0
  69              		.cfi_startproc
  70              		@ args = 0, pretend = 0, frame = 0
  71              		@ frame_needed = 0, uses_anonymous_args = 0
  72 0000 08B5     		push	{r3, lr}
  73              		.cfi_def_cfa_offset 8
  74              		.cfi_offset 3, -8
  75              		.cfi_offset 14, -4
  24:SPI_driver_PSoC.c ****             SPI_1_WriteTxDataZero('b');
  76              		.loc 1 24 0
  77 0002 6220     		movs	r0, #98
  78 0004 FFF7FEFF 		bl	SPI_1_WriteTxDataZero
  79              	.LVL3:
  25:SPI_driver_PSoC.c ****             
  26:SPI_driver_PSoC.c ****             //UART_1_PutString("Writing status - to Raspberry Pi");
  27:SPI_driver_PSoC.c ****             
  28:SPI_driver_PSoC.c ****             SPI_read_req_Write(1);
  80              		.loc 1 28 0
  81 0008 0120     		movs	r0, #1
  82 000a FFF7FEFF 		bl	SPI_read_req_Write
  83              	.LVL4:
  29:SPI_driver_PSoC.c ****             
  30:SPI_driver_PSoC.c ****             CyDelayUs(50);
  84              		.loc 1 30 0
ARM GAS  C:\Users\Lasse\AppData\Local\Temp\cc0jxxaT.s 			page 3


  85 000e 3220     		movs	r0, #50
  86 0010 FFF7FEFF 		bl	CyDelayUs
  87              	.LVL5:
  31:SPI_driver_PSoC.c ****             
  32:SPI_driver_PSoC.c ****             SPI_read_req_Write(0);
  88              		.loc 1 32 0
  89 0014 0020     		movs	r0, #0
  90 0016 FFF7FEFF 		bl	SPI_read_req_Write
  91              	.LVL6:
  92 001a 08BD     		pop	{r3, pc}
  93              		.cfi_endproc
  94              	.LFE65:
  95              		.size	SPI_send_pigeon_detected, .-SPI_send_pigeon_detected
  96              		.section	.text.SPI_send_low_water,"ax",%progbits
  97              		.align	2
  98              		.global	SPI_send_low_water
  99              		.thumb
 100              		.thumb_func
 101              		.type	SPI_send_low_water, %function
 102              	SPI_send_low_water:
 103              	.LFB66:
  33:SPI_driver_PSoC.c ****             
  34:SPI_driver_PSoC.c **** }
  35:SPI_driver_PSoC.c **** 
  36:SPI_driver_PSoC.c **** 
  37:SPI_driver_PSoC.c **** void SPI_send_low_water(){
 104              		.loc 1 37 0
 105              		.cfi_startproc
 106              		@ args = 0, pretend = 0, frame = 0
 107              		@ frame_needed = 0, uses_anonymous_args = 0
 108 0000 08B5     		push	{r3, lr}
 109              		.cfi_def_cfa_offset 8
 110              		.cfi_offset 3, -8
 111              		.cfi_offset 14, -4
  38:SPI_driver_PSoC.c ****             
  39:SPI_driver_PSoC.c ****             SPI_1_WriteTxDataZero('c');
 112              		.loc 1 39 0
 113 0002 6320     		movs	r0, #99
 114 0004 FFF7FEFF 		bl	SPI_1_WriteTxDataZero
 115              	.LVL7:
  40:SPI_driver_PSoC.c ****             
  41:SPI_driver_PSoC.c ****             //UART_1_PutString("Writing status - to Raspberry Pi");
  42:SPI_driver_PSoC.c ****             
  43:SPI_driver_PSoC.c ****             SPI_read_req_Write(1);
 116              		.loc 1 43 0
 117 0008 0120     		movs	r0, #1
 118 000a FFF7FEFF 		bl	SPI_read_req_Write
 119              	.LVL8:
  44:SPI_driver_PSoC.c ****             
  45:SPI_driver_PSoC.c ****             CyDelayUs(50);
 120              		.loc 1 45 0
 121 000e 3220     		movs	r0, #50
 122 0010 FFF7FEFF 		bl	CyDelayUs
 123              	.LVL9:
  46:SPI_driver_PSoC.c ****             
  47:SPI_driver_PSoC.c ****             SPI_read_req_Write(0);
 124              		.loc 1 47 0
ARM GAS  C:\Users\Lasse\AppData\Local\Temp\cc0jxxaT.s 			page 4


 125 0014 0020     		movs	r0, #0
 126 0016 FFF7FEFF 		bl	SPI_read_req_Write
 127              	.LVL10:
 128 001a 08BD     		pop	{r3, pc}
 129              		.cfi_endproc
 130              	.LFE66:
 131              		.size	SPI_send_low_water, .-SPI_send_low_water
 132              		.section	.text.SPI_send_water_empty,"ax",%progbits
 133              		.align	2
 134              		.global	SPI_send_water_empty
 135              		.thumb
 136              		.thumb_func
 137              		.type	SPI_send_water_empty, %function
 138              	SPI_send_water_empty:
 139              	.LFB67:
  48:SPI_driver_PSoC.c ****             
  49:SPI_driver_PSoC.c **** }
  50:SPI_driver_PSoC.c **** 
  51:SPI_driver_PSoC.c **** void SPI_send_water_empty(){
 140              		.loc 1 51 0
 141              		.cfi_startproc
 142              		@ args = 0, pretend = 0, frame = 0
 143              		@ frame_needed = 0, uses_anonymous_args = 0
 144 0000 08B5     		push	{r3, lr}
 145              		.cfi_def_cfa_offset 8
 146              		.cfi_offset 3, -8
 147              		.cfi_offset 14, -4
  52:SPI_driver_PSoC.c ****             SPI_1_WriteTxDataZero('d');
 148              		.loc 1 52 0
 149 0002 6420     		movs	r0, #100
 150 0004 FFF7FEFF 		bl	SPI_1_WriteTxDataZero
 151              	.LVL11:
  53:SPI_driver_PSoC.c ****             
  54:SPI_driver_PSoC.c ****             //UART_1_PutString("Writing status - to Raspberry Pi");
  55:SPI_driver_PSoC.c ****             
  56:SPI_driver_PSoC.c ****             SPI_read_req_Write(1);
 152              		.loc 1 56 0
 153 0008 0120     		movs	r0, #1
 154 000a FFF7FEFF 		bl	SPI_read_req_Write
 155              	.LVL12:
  57:SPI_driver_PSoC.c ****             
  58:SPI_driver_PSoC.c ****             CyDelayUs(50);
 156              		.loc 1 58 0
 157 000e 3220     		movs	r0, #50
 158 0010 FFF7FEFF 		bl	CyDelayUs
 159              	.LVL13:
  59:SPI_driver_PSoC.c ****             
  60:SPI_driver_PSoC.c ****             SPI_read_req_Write(0);
 160              		.loc 1 60 0
 161 0014 0020     		movs	r0, #0
 162 0016 FFF7FEFF 		bl	SPI_read_req_Write
 163              	.LVL14:
 164 001a 08BD     		pop	{r3, pc}
 165              		.cfi_endproc
 166              	.LFE67:
 167              		.size	SPI_send_water_empty, .-SPI_send_water_empty
 168              		.section	.text.SPI_send_flowers_watered,"ax",%progbits
ARM GAS  C:\Users\Lasse\AppData\Local\Temp\cc0jxxaT.s 			page 5


 169              		.align	2
 170              		.global	SPI_send_flowers_watered
 171              		.thumb
 172              		.thumb_func
 173              		.type	SPI_send_flowers_watered, %function
 174              	SPI_send_flowers_watered:
 175              	.LFB68:
  61:SPI_driver_PSoC.c **** }
  62:SPI_driver_PSoC.c **** 
  63:SPI_driver_PSoC.c **** void SPI_send_flowers_watered(){
 176              		.loc 1 63 0
 177              		.cfi_startproc
 178              		@ args = 0, pretend = 0, frame = 0
 179              		@ frame_needed = 0, uses_anonymous_args = 0
 180 0000 08B5     		push	{r3, lr}
 181              		.cfi_def_cfa_offset 8
 182              		.cfi_offset 3, -8
 183              		.cfi_offset 14, -4
  64:SPI_driver_PSoC.c ****             SPI_1_WriteTxDataZero('e');
 184              		.loc 1 64 0
 185 0002 6520     		movs	r0, #101
 186 0004 FFF7FEFF 		bl	SPI_1_WriteTxDataZero
 187              	.LVL15:
  65:SPI_driver_PSoC.c ****             
  66:SPI_driver_PSoC.c ****             //UART_1_PutString("Writing status - to Raspberry Pi");
  67:SPI_driver_PSoC.c ****             
  68:SPI_driver_PSoC.c ****             SPI_read_req_Write(1);
 188              		.loc 1 68 0
 189 0008 0120     		movs	r0, #1
 190 000a FFF7FEFF 		bl	SPI_read_req_Write
 191              	.LVL16:
  69:SPI_driver_PSoC.c ****             
  70:SPI_driver_PSoC.c ****             CyDelayUs(50);
 192              		.loc 1 70 0
 193 000e 3220     		movs	r0, #50
 194 0010 FFF7FEFF 		bl	CyDelayUs
 195              	.LVL17:
  71:SPI_driver_PSoC.c ****             
  72:SPI_driver_PSoC.c ****             SPI_read_req_Write(0);
 196              		.loc 1 72 0
 197 0014 0020     		movs	r0, #0
 198 0016 FFF7FEFF 		bl	SPI_read_req_Write
 199              	.LVL18:
 200 001a 08BD     		pop	{r3, pc}
 201              		.cfi_endproc
 202              	.LFE68:
 203              		.size	SPI_send_flowers_watered, .-SPI_send_flowers_watered
 204              		.section	.text.SPI_send_pigeon_shot_position,"ax",%progbits
 205              		.align	2
 206              		.global	SPI_send_pigeon_shot_position
 207              		.thumb
 208              		.thumb_func
 209              		.type	SPI_send_pigeon_shot_position, %function
 210              	SPI_send_pigeon_shot_position:
 211              	.LFB69:
  73:SPI_driver_PSoC.c **** }
  74:SPI_driver_PSoC.c **** 
ARM GAS  C:\Users\Lasse\AppData\Local\Temp\cc0jxxaT.s 			page 6


  75:SPI_driver_PSoC.c **** void SPI_send_pigeon_shot_position(char pigeon_position_x, char pigeon_position_y){
 212              		.loc 1 75 0
 213              		.cfi_startproc
 214              		@ args = 0, pretend = 0, frame = 0
 215              		@ frame_needed = 0, uses_anonymous_args = 0
 216              	.LVL19:
 217 0000 38B5     		push	{r3, r4, r5, lr}
 218              		.cfi_def_cfa_offset 16
 219              		.cfi_offset 3, -16
 220              		.cfi_offset 4, -12
 221              		.cfi_offset 5, -8
 222              		.cfi_offset 14, -4
 223 0002 0546     		mov	r5, r0
 224 0004 0C46     		mov	r4, r1
  76:SPI_driver_PSoC.c ****     
  77:SPI_driver_PSoC.c ****             SPI_1_WriteTxDataZero('a');
 225              		.loc 1 77 0
 226 0006 6120     		movs	r0, #97
 227              	.LVL20:
 228 0008 FFF7FEFF 		bl	SPI_1_WriteTxDataZero
 229              	.LVL21:
  78:SPI_driver_PSoC.c ****             
  79:SPI_driver_PSoC.c ****             SPI_read_req_Write(1);
 230              		.loc 1 79 0
 231 000c 0120     		movs	r0, #1
 232 000e FFF7FEFF 		bl	SPI_read_req_Write
 233              	.LVL22:
  80:SPI_driver_PSoC.c ****             
  81:SPI_driver_PSoC.c ****             CyDelayUs(50);
 234              		.loc 1 81 0
 235 0012 3220     		movs	r0, #50
 236 0014 FFF7FEFF 		bl	CyDelayUs
 237              	.LVL23:
  82:SPI_driver_PSoC.c ****             
  83:SPI_driver_PSoC.c ****             SPI_read_req_Write(0);
 238              		.loc 1 83 0
 239 0018 0020     		movs	r0, #0
 240 001a FFF7FEFF 		bl	SPI_read_req_Write
 241              	.LVL24:
  84:SPI_driver_PSoC.c ****             
  85:SPI_driver_PSoC.c ****             CyDelayUs(5000); //Thinking time for RPI
 242              		.loc 1 85 0
 243 001e 41F28830 		movw	r0, #5000
 244 0022 FFF7FEFF 		bl	CyDelayUs
 245              	.LVL25:
  86:SPI_driver_PSoC.c ****             
  87:SPI_driver_PSoC.c ****             //Sending position x
  88:SPI_driver_PSoC.c ****             
  89:SPI_driver_PSoC.c ****             SPI_1_WriteTxDataZero(pigeon_position_x);
 246              		.loc 1 89 0
 247 0026 2846     		mov	r0, r5
 248 0028 FFF7FEFF 		bl	SPI_1_WriteTxDataZero
 249              	.LVL26:
  90:SPI_driver_PSoC.c ****             
  91:SPI_driver_PSoC.c ****             SPI_read_req_Write(1);
 250              		.loc 1 91 0
 251 002c 0120     		movs	r0, #1
ARM GAS  C:\Users\Lasse\AppData\Local\Temp\cc0jxxaT.s 			page 7


 252 002e FFF7FEFF 		bl	SPI_read_req_Write
 253              	.LVL27:
  92:SPI_driver_PSoC.c ****             
  93:SPI_driver_PSoC.c ****             CyDelayUs(50);
 254              		.loc 1 93 0
 255 0032 3220     		movs	r0, #50
 256 0034 FFF7FEFF 		bl	CyDelayUs
 257              	.LVL28:
  94:SPI_driver_PSoC.c ****             
  95:SPI_driver_PSoC.c ****             SPI_read_req_Write(0);
 258              		.loc 1 95 0
 259 0038 0020     		movs	r0, #0
 260 003a FFF7FEFF 		bl	SPI_read_req_Write
 261              	.LVL29:
  96:SPI_driver_PSoC.c ****             
  97:SPI_driver_PSoC.c ****             CyDelayUs(5000); //Thinking time for RPI
 262              		.loc 1 97 0
 263 003e 41F28830 		movw	r0, #5000
 264 0042 FFF7FEFF 		bl	CyDelayUs
 265              	.LVL30:
  98:SPI_driver_PSoC.c ****             
  99:SPI_driver_PSoC.c ****             //Sending position y
 100:SPI_driver_PSoC.c ****             
 101:SPI_driver_PSoC.c ****             SPI_1_WriteTxDataZero(pigeon_position_y);
 266              		.loc 1 101 0
 267 0046 2046     		mov	r0, r4
 268 0048 FFF7FEFF 		bl	SPI_1_WriteTxDataZero
 269              	.LVL31:
 102:SPI_driver_PSoC.c ****             
 103:SPI_driver_PSoC.c ****             SPI_read_req_Write(1);
 270              		.loc 1 103 0
 271 004c 0120     		movs	r0, #1
 272 004e FFF7FEFF 		bl	SPI_read_req_Write
 273              	.LVL32:
 104:SPI_driver_PSoC.c ****             
 105:SPI_driver_PSoC.c ****             CyDelayUs(50);
 274              		.loc 1 105 0
 275 0052 3220     		movs	r0, #50
 276 0054 FFF7FEFF 		bl	CyDelayUs
 277              	.LVL33:
 106:SPI_driver_PSoC.c ****             
 107:SPI_driver_PSoC.c ****             SPI_read_req_Write(0);
 278              		.loc 1 107 0
 279 0058 0020     		movs	r0, #0
 280 005a FFF7FEFF 		bl	SPI_read_req_Write
 281              	.LVL34:
 108:SPI_driver_PSoC.c ****             
 109:SPI_driver_PSoC.c ****             CyDelayUs(5000); //Thinking time for RPI
 282              		.loc 1 109 0
 283 005e 41F28830 		movw	r0, #5000
 284 0062 FFF7FEFF 		bl	CyDelayUs
 285              	.LVL35:
 286 0066 38BD     		pop	{r3, r4, r5, pc}
 287              		.cfi_endproc
 288              	.LFE69:
 289              		.size	SPI_send_pigeon_shot_position, .-SPI_send_pigeon_shot_position
 290              		.section	.text.Handle_SPI_recieved,"ax",%progbits
ARM GAS  C:\Users\Lasse\AppData\Local\Temp\cc0jxxaT.s 			page 8


 291              		.align	2
 292              		.global	Handle_SPI_recieved
 293              		.thumb
 294              		.thumb_func
 295              		.type	Handle_SPI_recieved, %function
 296              	Handle_SPI_recieved:
 297              	.LFB70:
 110:SPI_driver_PSoC.c ****             
 111:SPI_driver_PSoC.c ****             
 112:SPI_driver_PSoC.c **** }
 113:SPI_driver_PSoC.c **** 
 114:SPI_driver_PSoC.c **** void Handle_SPI_recieved(){
 298              		.loc 1 114 0
 299              		.cfi_startproc
 300              		@ args = 0, pretend = 0, frame = 0
 301              		@ frame_needed = 0, uses_anonymous_args = 0
 302              		@ link register save eliminated.
 115:SPI_driver_PSoC.c ****     SPI_recieved_flag = 0;
 303              		.loc 1 115 0
 304 0000 0022     		movs	r2, #0
 305 0002 014B     		ldr	r3, .L16
 306 0004 1A70     		strb	r2, [r3]
 307 0006 7047     		bx	lr
 308              	.L17:
 309              		.align	2
 310              	.L16:
 311 0008 00000000 		.word	SPI_recieved_flag
 312              		.cfi_endproc
 313              	.LFE70:
 314              		.size	Handle_SPI_recieved, .-Handle_SPI_recieved
 315              		.comm	SPI_recieved,1,1
 316              		.comm	SPI_recieved_flag,1,1
 317              		.text
 318              	.Letext0:
 319              		.file 2 "c:\\program files (x86)\\cypress\\psoc creator\\4.2\\psoc creator\\import\\gnu\\arm\\5.4.
 320              		.file 3 "c:\\program files (x86)\\cypress\\psoc creator\\4.2\\psoc creator\\import\\gnu\\arm\\5.4.
 321              		.file 4 "Generated_Source\\PSoC5/core_cm3.h"
 322              		.file 5 "SPI_driver_PSoC.h"
 323              		.file 6 "Generated_Source\\PSoC5/SPI_ISR.h"
 324              		.file 7 "Generated_Source\\PSoC5/SPI_1.h"
 325              		.file 8 "Generated_Source\\PSoC5/SPI_read_req.h"
 326              		.file 9 "Generated_Source\\PSoC5/CyLib.h"