ARM GAS  C:\Users\Lasse\AppData\Local\Temp\ccYounfA.s 			page 1


   1              		.syntax unified
   2              		.cpu cortex-m3
   3              		.fpu softvfp
   4              		.eabi_attribute 20, 1
   5              		.eabi_attribute 21, 1
   6              		.eabi_attribute 23, 3
   7              		.eabi_attribute 24, 1
   8              		.eabi_attribute 25, 1
   9              		.eabi_attribute 26, 1
  10              		.eabi_attribute 30, 1
  11              		.eabi_attribute 34, 1
  12              		.eabi_attribute 18, 4
  13              		.thumb
  14              		.syntax unified
  15              		.file	"WaterSensor.c"
  16              		.text
  17              	.Ltext0:
  18              		.cfi_sections	.debug_frame
  19              		.section	.text.WaSensInit,"ax",%progbits
  20              		.align	2
  21              		.global	WaSensInit
  22              		.thumb
  23              		.thumb_func
  24              		.type	WaSensInit, %function
  25              	WaSensInit:
  26              	.LFB64:
  27              		.file 1 "WaterSensor.c"
   1:WaterSensor.c **** 
   2:WaterSensor.c **** 
   3:WaterSensor.c **** #include "WaterSensor.h"
   4:WaterSensor.c **** 
   5:WaterSensor.c **** void WaSensInit()
   6:WaterSensor.c **** {
  28              		.loc 1 6 0
  29              		.cfi_startproc
  30              		@ args = 0, pretend = 0, frame = 0
  31              		@ frame_needed = 0, uses_anonymous_args = 0
  32 0000 08B5     		push	{r3, lr}
  33              		.cfi_def_cfa_offset 8
  34              		.cfi_offset 3, -8
  35              		.cfi_offset 14, -4
   7:WaterSensor.c ****     ADC_SAR_WaSens_Start();
  36              		.loc 1 7 0
  37 0002 FFF7FEFF 		bl	ADC_SAR_WaSens_Start
  38              	.LVL0:
   8:WaterSensor.c ****     PWM_WaSens_Start();
  39              		.loc 1 8 0
  40 0006 FFF7FEFF 		bl	PWM_WaSens_Start
  41              	.LVL1:
  42 000a 08BD     		pop	{r3, pc}
  43              		.cfi_endproc
  44              	.LFE64:
  45              		.size	WaSensInit, .-WaSensInit
  46              		.global	__aeabi_i2d
  47              		.global	__aeabi_dmul
  48              		.global	__aeabi_dadd
  49              		.global	__aeabi_d2uiz
ARM GAS  C:\Users\Lasse\AppData\Local\Temp\ccYounfA.s 			page 2


  50              		.section	.text.WaSensMeasure,"ax",%progbits
  51              		.align	2
  52              		.global	WaSensMeasure
  53              		.thumb
  54              		.thumb_func
  55              		.type	WaSensMeasure, %function
  56              	WaSensMeasure:
  57              	.LFB65:
   9:WaterSensor.c **** }
  10:WaterSensor.c **** 
  11:WaterSensor.c **** int WaSensMeasure()
  12:WaterSensor.c **** {
  58              		.loc 1 12 0
  59              		.cfi_startproc
  60              		@ args = 0, pretend = 0, frame = 0
  61              		@ frame_needed = 0, uses_anonymous_args = 0
  62 0000 D0B5     		push	{r4, r6, r7, lr}
  63              		.cfi_def_cfa_offset 16
  64              		.cfi_offset 4, -16
  65              		.cfi_offset 6, -12
  66              		.cfi_offset 7, -8
  67              		.cfi_offset 14, -4
  13:WaterSensor.c ****     ADC_SAR_WaSens_StartConvert();
  68              		.loc 1 13 0
  69 0002 FFF7FEFF 		bl	ADC_SAR_WaSens_StartConvert
  70              	.LVL2:
  14:WaterSensor.c ****     // OBS - værdier skal omkalibreres når kredsløb er færdigt
  15:WaterSensor.c ****     double Factor1 = 0.0002783;
  16:WaterSensor.c ****     double Factor2 = -2.486;
  17:WaterSensor.c ****     double Offset1 = 5683;
  18:WaterSensor.c ****     uint16_t result;
  19:WaterSensor.c ****     uint16_t result2;
  20:WaterSensor.c **** 
  21:WaterSensor.c ****     if (ADC_SAR_WaSens_IsEndConversion(ADC_SAR_WaSens_WAIT_FOR_RESULT))
  71              		.loc 1 21 0
  72 0006 0020     		movs	r0, #0
  73 0008 FFF7FEFF 		bl	ADC_SAR_WaSens_IsEndConversion
  74              	.LVL3:
  75 000c C0B3     		cbz	r0, .L7
  22:WaterSensor.c ****         {
  23:WaterSensor.c ****             result = ADC_SAR_WaSens_GetResult16(); //ADC ukonverteret resultat
  76              		.loc 1 23 0
  77 000e FFF7FEFF 		bl	ADC_SAR_WaSens_GetResult16
  78              	.LVL4:
  79 0012 84B2     		uxth	r4, r0
  80              	.LVL5:
  24:WaterSensor.c **** //            char msg[256];
  25:WaterSensor.c **** //            snprintf(msg, sizeof(msg), "ADC result: %d\n\r", result);
  26:WaterSensor.c **** //            UART_1_PutStringConst(msg);
  27:WaterSensor.c ****             if(result < 3920) //Skal vandbeholderen fyldes...
  81              		.loc 1 27 0
  82 0014 B4F5756F 		cmp	r4, #3920
  83 0018 27D2     		bcs	.L5
  28:WaterSensor.c ****             {
  29:WaterSensor.c ****                 result2 = (result*result*Factor1) + (result*Factor2) + Offset1; //Resultat konverte
  84              		.loc 1 29 0
  85 001a 04FB04F0 		mul	r0, r4, r4
ARM GAS  C:\Users\Lasse\AppData\Local\Temp\ccYounfA.s 			page 3


  86 001e FFF7FEFF 		bl	__aeabi_i2d
  87              	.LVL6:
  88 0022 19A3     		adr	r3, .L10
  89 0024 D3E90023 		ldrd	r2, [r3]
  90 0028 FFF7FEFF 		bl	__aeabi_dmul
  91              	.LVL7:
  92 002c 0646     		mov	r6, r0
  93 002e 0F46     		mov	r7, r1
  94 0030 2046     		mov	r0, r4
  95 0032 FFF7FEFF 		bl	__aeabi_i2d
  96              	.LVL8:
  97 0036 16A3     		adr	r3, .L10+8
  98 0038 D3E90023 		ldrd	r2, [r3]
  99 003c FFF7FEFF 		bl	__aeabi_dmul
 100              	.LVL9:
 101 0040 0246     		mov	r2, r0
 102 0042 0B46     		mov	r3, r1
 103 0044 3046     		mov	r0, r6
 104 0046 3946     		mov	r1, r7
 105 0048 FFF7FEFF 		bl	__aeabi_dadd
 106              	.LVL10:
 107 004c 12A3     		adr	r3, .L10+16
 108 004e D3E90023 		ldrd	r2, [r3]
 109 0052 FFF7FEFF 		bl	__aeabi_dadd
 110              	.LVL11:
 111 0056 FFF7FEFF 		bl	__aeabi_d2uiz
 112              	.LVL12:
 113 005a 84B2     		uxth	r4, r0
 114              	.LVL13:
  30:WaterSensor.c ****                 if(Pin_Low_WL_Read())
 115              		.loc 1 30 0
 116 005c FFF7FEFF 		bl	Pin_Low_WL_Read
 117              	.LVL14:
 118 0060 60B1     		cbz	r0, .L6
  31:WaterSensor.c ****                 {
  32:WaterSensor.c ****                     Pin_Low_WL_Write(0);
 119              		.loc 1 32 0
 120 0062 0020     		movs	r0, #0
 121 0064 FFF7FEFF 		bl	Pin_Low_WL_Write
 122              	.LVL15:
 123 0068 08E0     		b	.L6
 124              	.LVL16:
 125              	.L5:
  33:WaterSensor.c ****                 }
  34:WaterSensor.c ****             }
  35:WaterSensor.c ****             else //Ellers
  36:WaterSensor.c ****             {
  37:WaterSensor.c ****                 result2 = 0; //Resultat konverteres til mL
  38:WaterSensor.c ****                 if(!Pin_Low_WL_Read())
 126              		.loc 1 38 0
 127 006a FFF7FEFF 		bl	Pin_Low_WL_Read
 128              	.LVL17:
 129 006e 20B9     		cbnz	r0, .L8
  39:WaterSensor.c ****                 {
  40:WaterSensor.c ****                     Pin_Low_WL_Write(1);
 130              		.loc 1 40 0
 131 0070 0120     		movs	r0, #1
ARM GAS  C:\Users\Lasse\AppData\Local\Temp\ccYounfA.s 			page 4


 132 0072 FFF7FEFF 		bl	Pin_Low_WL_Write
 133              	.LVL18:
  37:WaterSensor.c ****                 if(!Pin_Low_WL_Read())
 134              		.loc 1 37 0
 135 0076 0024     		movs	r4, #0
 136              	.LVL19:
 137 0078 00E0     		b	.L6
 138              	.LVL20:
 139              	.L8:
 140 007a 0024     		movs	r4, #0
 141              	.LVL21:
 142              	.L6:
  41:WaterSensor.c ****                 }
  42:WaterSensor.c ****             }
  43:WaterSensor.c ****             return result2;
 143              		.loc 1 43 0
 144 007c 2046     		mov	r0, r4
 145 007e D0BD     		pop	{r4, r6, r7, pc}
 146              	.LVL22:
 147              	.L7:
  44:WaterSensor.c ****         }
  45:WaterSensor.c ****     else
  46:WaterSensor.c ****         return 0;
 148              		.loc 1 46 0
 149 0080 0020     		movs	r0, #0
  47:WaterSensor.c **** }...
 150              		.loc 1 47 0
 151 0082 D0BD     		pop	{r4, r6, r7, pc}
 152              	.L11:
 153 0084 AFF30080 		.align	3
 154              	.L10:
 155 0088 58930266 		.word	1711444824
 156 008c 193D323F 		.word	1060257049
 157 0090 17D9CEF7 		.word	-137438953
 158 0094 53E303C0 		.word	-1073487021
 159 0098 00000000 		.word	0
 160 009c 0033B640 		.word	1085682432
 161              		.cfi_endproc
 162              	.LFE65:
 163              		.size	WaSensMeasure, .-WaSensMeasure
 164              		.text
 165              	.Letext0:
 166              		.file 2 "c:\\program files (x86)\\cypress\\psoc creator\\4.2\\psoc creator\\import\\gnu\\arm\\5.4.
 167              		.file 3 "c:\\program files (x86)\\cypress\\psoc creator\\4.2\\psoc creator\\import\\gnu\\arm\\5.4.
 168              		.file 4 "Generated_Source\\PSoC5/ADC_SAR_WaSens.h"
 169              		.file 5 "Generated_Source\\PSoC5/PWM_WaSens.h"
 170              		.file 6 "Generated_Source\\PSoC5/Pin_Low_WL.h"
 171              		.file 7 "Generated_Source\\PSoC5/core_cm3.h"