ARM GAS  C:\Users\midtg\AppData\Local\Temp\ccnfEhJc.s 			page 1


   1              		.syntax unified
   2              		.cpu cortex-m3
   3              		.fpu softvfp
   4              		.eabi_attribute 20, 1
   5              		.eabi_attribute 21, 1
   6              		.eabi_attribute 23, 3
   7              		.eabi_attribute 24, 1
   8              		.eabi_attribute 25, 1
   9              		.eabi_attribute 26, 1
  10              		.eabi_attribute 30, 1
  11              		.eabi_attribute 34, 1
  12              		.eabi_attribute 18, 4
  13              		.thumb
  14              		.syntax unified
  15              		.file	"WaterPump.c"
  16              		.text
  17              	.Ltext0:
  18              		.cfi_sections	.debug_frame
  19              		.section	.text.initWaterPump,"ax",%progbits
  20              		.align	2
  21              		.global	initWaterPump
  22              		.thumb
  23              		.thumb_func
  24              		.type	initWaterPump, %function
  25              	initWaterPump:
  26              	.LFB63:
  27              		.file 1 "WaterPump.c"
   1:WaterPump.c   ****     #include "WaterPump.h"
   2:WaterPump.c   ****     
   3:WaterPump.c   ****     void initWaterPump(void) {
  28              		.loc 1 3 0
  29              		.cfi_startproc
  30              		@ args = 0, pretend = 0, frame = 0
  31              		@ frame_needed = 0, uses_anonymous_args = 0
  32 0000 08B5     		push	{r3, lr}
  33              		.cfi_def_cfa_offset 8
  34              		.cfi_offset 3, -8
  35              		.cfi_offset 14, -4
   4:WaterPump.c   ****         Pin_WaterPump_Write(0);
  36              		.loc 1 4 0
  37 0002 0020     		movs	r0, #0
  38 0004 FFF7FEFF 		bl	Pin_WaterPump_Write
  39              	.LVL0:
  40 0008 08BD     		pop	{r3, pc}
  41              		.cfi_endproc
  42              	.LFE63:
  43              		.size	initWaterPump, .-initWaterPump
  44 000a 00BF     		.section	.text.WaterPump_fireWater,"ax",%progbits
  45              		.align	2
  46              		.global	WaterPump_fireWater
  47              		.thumb
  48              		.thumb_func
  49              		.type	WaterPump_fireWater, %function
  50              	WaterPump_fireWater:
  51              	.LFB64:
   5:WaterPump.c   ****     }
   6:WaterPump.c   **** 
ARM GAS  C:\Users\midtg\AppData\Local\Temp\ccnfEhJc.s 			page 2


   7:WaterPump.c   ****     void WaterPump_fireWater(int x) {
  52              		.loc 1 7 0
  53              		.cfi_startproc
  54              		@ args = 0, pretend = 0, frame = 0
  55              		@ frame_needed = 0, uses_anonymous_args = 0
  56              	.LVL1:
  57 0000 08B5     		push	{r3, lr}
  58              		.cfi_def_cfa_offset 8
  59              		.cfi_offset 3, -8
  60              		.cfi_offset 14, -4
   8:WaterPump.c   ****         if (x == 0) {
  61              		.loc 1 8 0
  62 0002 10B9     		cbnz	r0, .L4
   9:WaterPump.c   ****             Pin_WaterPump_Write(0);
  63              		.loc 1 9 0
  64 0004 FFF7FEFF 		bl	Pin_WaterPump_Write
  65              	.LVL2:
  66 0008 08BD     		pop	{r3, pc}
  67              	.LVL3:
  68              	.L4:
  10:WaterPump.c   ****         }
  11:WaterPump.c   ****         else if (x == 1) {
  69              		.loc 1 11 0
  70 000a 0128     		cmp	r0, #1
  71 000c 02D1     		bne	.L3
  12:WaterPump.c   ****             Pin_WaterPump_Write(1);
  72              		.loc 1 12 0
  73 000e 0120     		movs	r0, #1
  74              	.LVL4:
  75 0010 FFF7FEFF 		bl	Pin_WaterPump_Write
  76              	.LVL5:
  77              	.L3:
  78 0014 08BD     		pop	{r3, pc}
  79              		.cfi_endproc
  80              	.LFE64:
  81              		.size	WaterPump_fireWater, .-WaterPump_fireWater
  82 0016 00BF     		.text
  83              	.Letext0:
  84              		.file 2 "c:\\program files (x86)\\cypress\\psoc creator\\4.2\\psoc creator\\import\\gnu\\arm\\5.4.
  85              		.file 3 "c:\\program files (x86)\\cypress\\psoc creator\\4.2\\psoc creator\\import\\gnu\\arm\\5.4.
  86              		.file 4 "Generated_Source\\PSoC5/core_cm3.h"
  87              		.file 5 "Generated_Source\\PSoC5/Pin_WaterPump.h"