ARM GAS  C:\Users\midtg\AppData\Local\Temp\ccKrWzk0.s 			page 1


   1              		.syntax unified
   2              		.cpu cortex-m3
   3              		.fpu softvfp
   4              		.eabi_attribute 20, 1
   5              		.eabi_attribute 21, 1
   6              		.eabi_attribute 23, 3
   7              		.eabi_attribute 24, 1
   8              		.eabi_attribute 25, 1
   9              		.eabi_attribute 26, 1
  10              		.eabi_attribute 30, 1
  11              		.eabi_attribute 34, 1
  12              		.eabi_attribute 18, 4
  13              		.thumb
  14              		.syntax unified
  15              		.file	"main.c"
  16              		.text
  17              	.Ltext0:
  18              		.cfi_sections	.debug_frame
  19              		.section	.text.SonarDriverStart,"ax",%progbits
  20              		.align	2
  21              		.global	SonarDriverStart
  22              		.thumb
  23              		.thumb_func
  24              		.type	SonarDriverStart, %function
  25              	SonarDriverStart:
  26              	.LFB64:
  27              		.file 1 "SonarDriver.h"
   1:SonarDriver.h **** /* ========================================
   2:SonarDriver.h ****  *
   3:SonarDriver.h ****  * Copyright YOUR COMPANY, THE YEAR
   4:SonarDriver.h ****  * All Rights Reserved
   5:SonarDriver.h ****  * UNPUBLISHED, LICENSED SOFTWARE.
   6:SonarDriver.h ****  *
   7:SonarDriver.h ****  * CONFIDENTIAL AND PROPRIETARY INFORMATION
   8:SonarDriver.h ****  * WHICH IS THE PROPERTY OF your company.
   9:SonarDriver.h ****  *
  10:SonarDriver.h ****  * ========================================
  11:SonarDriver.h **** */
  12:SonarDriver.h **** 
  13:SonarDriver.h **** //Project Must Have A 24Bit TimerNamed: Timer_Sonar With Max Counter == 16777216 
  14:SonarDriver.h **** //Project must have Input Pins Echo_1 and Echo_2, And Trigger_1 and Trigger_2
  15:SonarDriver.h **** 
  16:SonarDriver.h **** #include <stdio.h>
  17:SonarDriver.h **** #include "project.h"
  18:SonarDriver.h **** 
  19:SonarDriver.h **** 
  20:SonarDriver.h **** struct position{
  21:SonarDriver.h ****     uint8_t detected;
  22:SonarDriver.h ****     int width;
  23:SonarDriver.h ****     double distance;
  24:SonarDriver.h **** };
  25:SonarDriver.h **** 
  26:SonarDriver.h **** void SonarDriverStart(){
  28              		.loc 1 26 0
  29              		.cfi_startproc
  30              		@ args = 0, pretend = 0, frame = 0
  31              		@ frame_needed = 0, uses_anonymous_args = 0
ARM GAS  C:\Users\midtg\AppData\Local\Temp\ccKrWzk0.s 			page 2


  32 0000 08B5     		push	{r3, lr}
  33              		.cfi_def_cfa_offset 8
  34              		.cfi_offset 3, -8
  35              		.cfi_offset 14, -4
  27:SonarDriver.h ****     Trigger_1_Write(0);
  36              		.loc 1 27 0
  37 0002 0020     		movs	r0, #0
  38 0004 FFF7FEFF 		bl	Trigger_1_Write
  39              	.LVL0:
  28:SonarDriver.h ****     Trigger_2_Write(0);
  40              		.loc 1 28 0
  41 0008 0020     		movs	r0, #0
  42 000a FFF7FEFF 		bl	Trigger_2_Write
  43              	.LVL1:
  29:SonarDriver.h ****     Timer_Sonar_Start();
  44              		.loc 1 29 0
  45 000e FFF7FEFF 		bl	Timer_Sonar_Start
  46              	.LVL2:
  47 0012 08BD     		pop	{r3, pc}
  48              		.cfi_endproc
  49              	.LFE64:
  50              		.size	SonarDriverStart, .-SonarDriverStart
  51              		.global	__aeabi_ui2d
  52              		.global	__aeabi_dsub
  53              		.global	__aeabi_ddiv
  54              		.global	__aeabi_dcmplt
  55              		.global	__aeabi_dcmpgt
  56              		.global	__aeabi_dcmpeq
  57              		.global	__aeabi_dadd
  58              		.global	__aeabi_dmul
  59              		.section	.text.GetPigeonPos,"ax",%progbits
  60              		.align	2
  61              		.global	GetPigeonPos
  62              		.thumb
  63              		.thumb_func
  64              		.type	GetPigeonPos, %function
  65              	GetPigeonPos:
  66              	.LFB65:
  30:SonarDriver.h **** }
  31:SonarDriver.h **** 
  32:SonarDriver.h **** struct position GetPigeonPos(){
  67              		.loc 1 32 0
  68              		.cfi_startproc
  69              		@ args = 0, pretend = 0, frame = 16
  70              		@ frame_needed = 0, uses_anonymous_args = 0
  71              	.LVL3:
  72 0000 2DE97043 		push	{r4, r5, r6, r8, r9, lr}
  73              		.cfi_def_cfa_offset 24
  74              		.cfi_offset 4, -24
  75              		.cfi_offset 5, -20
  76              		.cfi_offset 6, -16
  77              		.cfi_offset 8, -12
  78              		.cfi_offset 9, -8
  79              		.cfi_offset 14, -4
  80 0004 84B0     		sub	sp, sp, #16
  81              		.cfi_def_cfa_offset 40
  82 0006 0646     		mov	r6, r0
ARM GAS  C:\Users\midtg\AppData\Local\Temp\ccKrWzk0.s 			page 3


  33:SonarDriver.h ****          //Start Sonar 1, with 10 us pulse on Trigger 1: 
  34:SonarDriver.h ****         Trigger_1_Write(1);
  83              		.loc 1 34 0
  84 0008 0120     		movs	r0, #1
  85              	.LVL4:
  86 000a FFF7FEFF 		bl	Trigger_1_Write
  87              	.LVL5:
  35:SonarDriver.h ****         CyDelayUs(10);
  88              		.loc 1 35 0
  89 000e 0A20     		movs	r0, #10
  90 0010 FFF7FEFF 		bl	CyDelayUs
  91              	.LVL6:
  36:SonarDriver.h ****         Trigger_1_Write(0);
  92              		.loc 1 36 0
  93 0014 0020     		movs	r0, #0
  94 0016 FFF7FEFF 		bl	Trigger_1_Write
  95              	.LVL7:
  96              	.L4:
  37:SonarDriver.h ****         
  38:SonarDriver.h ****         //Wait for Echo_1 to go high 
  39:SonarDriver.h ****         while(Echo_1_Read() != 1){}
  97              		.loc 1 39 0 discriminator 1
  98 001a FFF7FEFF 		bl	Echo_1_Read
  99              	.LVL8:
 100 001e 0128     		cmp	r0, #1
 101 0020 FBD1     		bne	.L4
  40:SonarDriver.h ****         
  41:SonarDriver.h ****         //Reset timer:
  42:SonarDriver.h ****         Timer_Sonar_WriteCounter(16777215);
 102              		.loc 1 42 0
 103 0022 6FF07F40 		mvn	r0, #-16777216
 104 0026 FFF7FEFF 		bl	Timer_Sonar_WriteCounter
 105              	.LVL9:
 106              	.L5:
  43:SonarDriver.h ****        
  44:SonarDriver.h ****         //Wait for Echo_1 to go low (Sonar has recieved echo)
  45:SonarDriver.h ****         while(Echo_1_Read() == 1){}
 107              		.loc 1 45 0 discriminator 1
 108 002a FFF7FEFF 		bl	Echo_1_Read
 109              	.LVL10:
 110 002e 0128     		cmp	r0, #1
 111 0030 FBD0     		beq	.L5
  46:SonarDriver.h ****         
  47:SonarDriver.h ****         //Calculate the time Echo_1 was high:
  48:SonarDriver.h ****         uint32_t timervaerdi = Timer_Sonar_ReadCounter();
 112              		.loc 1 48 0
 113 0032 FFF7FEFF 		bl	Timer_Sonar_ReadCounter
 114              	.LVL11:
  49:SonarDriver.h ****         double time = ((double)16777215.0 - (double)timervaerdi)/(double)24.0;
 115              		.loc 1 49 0
 116 0036 FFF7FEFF 		bl	__aeabi_ui2d
 117              	.LVL12:
 118 003a 0246     		mov	r2, r0
 119 003c 0B46     		mov	r3, r1
 120 003e 4FF06040 		mov	r0, #-536870912
 121 0042 7149     		ldr	r1, .L31
 122 0044 FFF7FEFF 		bl	__aeabi_dsub
ARM GAS  C:\Users\midtg\AppData\Local\Temp\ccKrWzk0.s 			page 4


 123              	.LVL13:
 124 0048 0022     		movs	r2, #0
 125 004a 704B     		ldr	r3, .L31+4
 126 004c FFF7FEFF 		bl	__aeabi_ddiv
 127              	.LVL14:
  50:SonarDriver.h ****         
  51:SonarDriver.h ****         //Calculate distance to object 
  52:SonarDriver.h ****         double distance_sonar_1 = time/58.0;
 128              		.loc 1 52 0
 129 0050 0022     		movs	r2, #0
 130 0052 6F4B     		ldr	r3, .L31+8
 131 0054 FFF7FEFF 		bl	__aeabi_ddiv
 132              	.LVL15:
 133 0058 0446     		mov	r4, r0
 134 005a 0D46     		mov	r5, r1
 135              	.LVL16:
  53:SonarDriver.h ****     
  54:SonarDriver.h ****         //Delay between readings:
  55:SonarDriver.h ****         CyDelay(60);
 136              		.loc 1 55 0
 137 005c 3C20     		movs	r0, #60
 138 005e FFF7FEFF 		bl	CyDelay
 139              	.LVL17:
  56:SonarDriver.h ****         
  57:SonarDriver.h ****         //Sonar 2 reading:
  58:SonarDriver.h ****         Trigger_2_Write(1);
 140              		.loc 1 58 0
 141 0062 0120     		movs	r0, #1
 142 0064 FFF7FEFF 		bl	Trigger_2_Write
 143              	.LVL18:
  59:SonarDriver.h ****         CyDelayUs(10);
 144              		.loc 1 59 0
 145 0068 0A20     		movs	r0, #10
 146 006a FFF7FEFF 		bl	CyDelayUs
 147              	.LVL19:
  60:SonarDriver.h ****         Trigger_2_Write(0);
 148              		.loc 1 60 0
 149 006e 0020     		movs	r0, #0
 150 0070 FFF7FEFF 		bl	Trigger_2_Write
 151              	.LVL20:
 152              	.L6:
  61:SonarDriver.h ****         
  62:SonarDriver.h ****         //UART_1_PutString("Waiting for echo_2_read != 0");
  63:SonarDriver.h ****         while(Echo_2_Read() != 1){}
 153              		.loc 1 63 0 discriminator 1
 154 0074 FFF7FEFF 		bl	Echo_2_Read
 155              	.LVL21:
 156 0078 0128     		cmp	r0, #1
 157 007a FBD1     		bne	.L6
  64:SonarDriver.h ****         Timer_Sonar_WriteCounter(16777215);
 158              		.loc 1 64 0
 159 007c 6FF07F40 		mvn	r0, #-16777216
 160 0080 FFF7FEFF 		bl	Timer_Sonar_WriteCounter
 161              	.LVL22:
 162              	.L7:
  65:SonarDriver.h ****         //UART_1_PutString("Waiting for echo_2_read == 1");
  66:SonarDriver.h ****         while(Echo_2_Read() == 1){}
ARM GAS  C:\Users\midtg\AppData\Local\Temp\ccKrWzk0.s 			page 5


 163              		.loc 1 66 0 discriminator 1
 164 0084 FFF7FEFF 		bl	Echo_2_Read
 165              	.LVL23:
 166 0088 0128     		cmp	r0, #1
 167 008a FBD0     		beq	.L7
  67:SonarDriver.h ****         
  68:SonarDriver.h ****         timervaerdi = Timer_Sonar_ReadCounter();
 168              		.loc 1 68 0
 169 008c FFF7FEFF 		bl	Timer_Sonar_ReadCounter
 170              	.LVL24:
  69:SonarDriver.h ****     
  70:SonarDriver.h ****         double timeus = ((double)16777215.0 - (double)timervaerdi)/(double)24.0;
 171              		.loc 1 70 0
 172 0090 FFF7FEFF 		bl	__aeabi_ui2d
 173              	.LVL25:
 174 0094 0246     		mov	r2, r0
 175 0096 0B46     		mov	r3, r1
 176 0098 4FF06040 		mov	r0, #-536870912
 177 009c 5A49     		ldr	r1, .L31
 178 009e FFF7FEFF 		bl	__aeabi_dsub
 179              	.LVL26:
 180 00a2 0022     		movs	r2, #0
 181 00a4 594B     		ldr	r3, .L31+4
 182 00a6 FFF7FEFF 		bl	__aeabi_ddiv
 183              	.LVL27:
  71:SonarDriver.h ****         double distance_sonar_2 = timeus/58.0;
 184              		.loc 1 71 0
 185 00aa 0022     		movs	r2, #0
 186 00ac 584B     		ldr	r3, .L31+8
 187 00ae FFF7FEFF 		bl	__aeabi_ddiv
 188              	.LVL28:
 189 00b2 8046     		mov	r8, r0
 190 00b4 8946     		mov	r9, r1
 191              	.LVL29:
  72:SonarDriver.h ****         
  73:SonarDriver.h ****         
  74:SonarDriver.h ****         
  75:SonarDriver.h ****          //double distance = (time * 340.0)/2; 
  76:SonarDriver.h ****         if(distance_sonar_1 < 2.5 || distance_sonar_1 > 55){
 192              		.loc 1 76 0
 193 00b6 0022     		movs	r2, #0
 194 00b8 564B     		ldr	r3, .L31+12
 195 00ba 2046     		mov	r0, r4
 196 00bc 2946     		mov	r1, r5
 197 00be FFF7FEFF 		bl	__aeabi_dcmplt
 198              	.LVL30:
 199 00c2 38B9     		cbnz	r0, .L20
 200              		.loc 1 76 0 is_stmt 0 discriminator 1
 201 00c4 0022     		movs	r2, #0
 202 00c6 544B     		ldr	r3, .L31+16
 203 00c8 2046     		mov	r0, r4
 204 00ca 2946     		mov	r1, r5
 205 00cc FFF7FEFF 		bl	__aeabi_dcmpgt
 206              	.LVL31:
 207 00d0 18B9     		cbnz	r0, .L21
 208 00d2 04E0     		b	.L8
 209              	.L20:
ARM GAS  C:\Users\midtg\AppData\Local\Temp\ccKrWzk0.s 			page 6


  77:SonarDriver.h ****             //Pigeon not detected
  78:SonarDriver.h ****             distance_sonar_1 = 0;
 210              		.loc 1 78 0 is_stmt 1
 211 00d4 0024     		movs	r4, #0
 212              	.LVL32:
 213 00d6 0025     		movs	r5, #0
 214 00d8 01E0     		b	.L8
 215              	.LVL33:
 216              	.L21:
 217 00da 0024     		movs	r4, #0
 218              	.LVL34:
 219 00dc 0025     		movs	r5, #0
 220              	.L8:
 221              	.LVL35:
  79:SonarDriver.h ****         }
  80:SonarDriver.h ****             
  81:SonarDriver.h ****         if(distance_sonar_2 < 2.5 || distance_sonar_2 > 55){
 222              		.loc 1 81 0
 223 00de 0022     		movs	r2, #0
 224 00e0 4C4B     		ldr	r3, .L31+12
 225 00e2 4046     		mov	r0, r8
 226 00e4 4946     		mov	r1, r9
 227 00e6 FFF7FEFF 		bl	__aeabi_dcmplt
 228              	.LVL36:
 229 00ea 38B9     		cbnz	r0, .L22
 230              		.loc 1 81 0 is_stmt 0 discriminator 1
 231 00ec 0022     		movs	r2, #0
 232 00ee 4A4B     		ldr	r3, .L31+16
 233 00f0 4046     		mov	r0, r8
 234 00f2 4946     		mov	r1, r9
 235 00f4 FFF7FEFF 		bl	__aeabi_dcmpgt
 236              	.LVL37:
 237 00f8 28B9     		cbnz	r0, .L23
 238 00fa 08E0     		b	.L9
 239              	.L22:
  82:SonarDriver.h ****             //Pigeon not detected
  83:SonarDriver.h ****             distance_sonar_2 = 0;
 240              		.loc 1 83 0 is_stmt 1
 241 00fc 4FF00008 		mov	r8, #0
 242              	.LVL38:
 243 0100 4FF00009 		mov	r9, #0
 244 0104 03E0     		b	.L9
 245              	.LVL39:
 246              	.L23:
 247 0106 4FF00008 		mov	r8, #0
 248              	.LVL40:
 249 010a 4FF00009 		mov	r9, #0
 250              	.L9:
 251              	.LVL41:
  84:SonarDriver.h ****         }
  85:SonarDriver.h ****             
  86:SonarDriver.h ****         if (
 252              		.loc 1 86 0
 253 010e 0022     		movs	r2, #0
 254 0110 0023     		movs	r3, #0
 255 0112 2046     		mov	r0, r4
 256 0114 2946     		mov	r1, r5
ARM GAS  C:\Users\midtg\AppData\Local\Temp\ccKrWzk0.s 			page 7


 257 0116 FFF7FEFF 		bl	__aeabi_dcmpeq
 258              	.LVL42:
 259 011a 08BB     		cbnz	r0, .L10
  87:SonarDriver.h ****             distance_sonar_1 !=0 && distance_sonar_2 != 0){
 260              		.loc 1 87 0
 261 011c 0022     		movs	r2, #0
 262 011e 0023     		movs	r3, #0
 263 0120 4046     		mov	r0, r8
 264 0122 4946     		mov	r1, r9
 265 0124 FFF7FEFF 		bl	__aeabi_dcmpeq
 266              	.LVL43:
 267 0128 D0B9     		cbnz	r0, .L10
 268              	.LVL44:
 269              	.LBB2:
  88:SonarDriver.h ****                 
  89:SonarDriver.h ****                 uint8_t width = 2; //Both Sonars detect pigeon, so assumed to be in position 2 of 3
  90:SonarDriver.h ****                 //Average distance is calculated
  91:SonarDriver.h ****                 double calculated_distance = ((distance_sonar_1+distance_sonar_2)/2)-5;
 270              		.loc 1 91 0
 271 012a 4246     		mov	r2, r8
 272 012c 4B46     		mov	r3, r9
 273 012e 2046     		mov	r0, r4
 274 0130 2946     		mov	r1, r5
 275 0132 FFF7FEFF 		bl	__aeabi_dadd
 276              	.LVL45:
 277 0136 0022     		movs	r2, #0
 278 0138 384B     		ldr	r3, .L31+20
 279 013a FFF7FEFF 		bl	__aeabi_dmul
 280              	.LVL46:
 281 013e 0022     		movs	r2, #0
 282 0140 374B     		ldr	r3, .L31+24
 283 0142 FFF7FEFF 		bl	__aeabi_dsub
 284              	.LVL47:
  92:SonarDriver.h ****                 
  93:SonarDriver.h ****                 //Struct holding, pigeon detected positive, width, and distance.  
  94:SonarDriver.h ****                 struct position p = {1,width,calculated_distance};
 285              		.loc 1 94 0
 286 0146 0123     		movs	r3, #1
 287 0148 8DF80030 		strb	r3, [sp]
 288 014c 0223     		movs	r3, #2
 289 014e 0193     		str	r3, [sp, #4]
 290 0150 CDE90201 		strd	r0, [sp, #8]
  95:SonarDriver.h ****                 return  p; 
 291              		.loc 1 95 0
 292 0154 04AB     		add	r3, sp, #16
 293 0156 13E90F00 		ldmdb	r3, {r0, r1, r2, r3}
 294              	.LVL48:
 295 015a 86E80F00 		stmia	r6, {r0, r1, r2, r3}
 296 015e 4EE0     		b	.L3
 297              	.LVL49:
 298              	.L10:
 299              	.LBE2:
  96:SonarDriver.h ****             }
  97:SonarDriver.h ****             
  98:SonarDriver.h ****         else if(distance_sonar_1 !=0 && distance_sonar_2 == 0){
 300              		.loc 1 98 0
 301 0160 0022     		movs	r2, #0
ARM GAS  C:\Users\midtg\AppData\Local\Temp\ccKrWzk0.s 			page 8


 302 0162 0023     		movs	r3, #0
 303 0164 2046     		mov	r0, r4
 304 0166 2946     		mov	r1, r5
 305 0168 FFF7FEFF 		bl	__aeabi_dcmpeq
 306              	.LVL50:
 307 016c C8B9     		cbnz	r0, .L14
 308              		.loc 1 98 0 is_stmt 0 discriminator 1
 309 016e 0022     		movs	r2, #0
 310 0170 0023     		movs	r3, #0
 311 0172 4046     		mov	r0, r8
 312 0174 4946     		mov	r1, r9
 313 0176 FFF7FEFF 		bl	__aeabi_dcmpeq
 314              	.LVL51:
 315 017a 90B1     		cbz	r0, .L14
 316              	.LVL52:
 317              	.LBB3:
  99:SonarDriver.h ****                  uint8_t width = 3; //Only Sonar 1 detects pigeon, so assumed to be in position 3 o
 100:SonarDriver.h ****                
 101:SonarDriver.h ****                 
 102:SonarDriver.h ****                 //Struct holding, pigeon detected positive, width, and distance.  
 103:SonarDriver.h ****                 struct position p = {1,width,distance_sonar_1-5};
 318              		.loc 1 103 0 is_stmt 1
 319 017c 0123     		movs	r3, #1
 320 017e 8DF80030 		strb	r3, [sp]
 321 0182 0323     		movs	r3, #3
 322 0184 0193     		str	r3, [sp, #4]
 323 0186 0022     		movs	r2, #0
 324 0188 254B     		ldr	r3, .L31+24
 325 018a 2046     		mov	r0, r4
 326 018c 2946     		mov	r1, r5
 327 018e FFF7FEFF 		bl	__aeabi_dsub
 328              	.LVL53:
 329 0192 CDE90201 		strd	r0, [sp, #8]
 104:SonarDriver.h ****                 return  p;         
 330              		.loc 1 104 0
 331 0196 04AB     		add	r3, sp, #16
 332 0198 13E90F00 		ldmdb	r3, {r0, r1, r2, r3}
 333 019c 86E80F00 		stmia	r6, {r0, r1, r2, r3}
 334 01a0 2DE0     		b	.L3
 335              	.LVL54:
 336              	.L14:
 337              	.LBE3:
 105:SonarDriver.h ****         }
 106:SonarDriver.h ****          else if(distance_sonar_1 ==0 && distance_sonar_2 != 0){
 338              		.loc 1 106 0
 339 01a2 0022     		movs	r2, #0
 340 01a4 0023     		movs	r3, #0
 341 01a6 2046     		mov	r0, r4
 342 01a8 2946     		mov	r1, r5
 343 01aa FFF7FEFF 		bl	__aeabi_dcmpeq
 344              	.LVL55:
 345 01ae C8B1     		cbz	r0, .L17
 346              		.loc 1 106 0 is_stmt 0 discriminator 1
 347 01b0 0022     		movs	r2, #0
 348 01b2 0023     		movs	r3, #0
 349 01b4 4046     		mov	r0, r8
 350 01b6 4946     		mov	r1, r9
ARM GAS  C:\Users\midtg\AppData\Local\Temp\ccKrWzk0.s 			page 9


 351 01b8 FFF7FEFF 		bl	__aeabi_dcmpeq
 352              	.LVL56:
 353 01bc 90B9     		cbnz	r0, .L17
 354              	.LVL57:
 355              	.LBB4:
 107:SonarDriver.h ****                  uint8_t width = 1; //Only Sonar 1 detects pigeon, so assumed to be in position 1 o
 108:SonarDriver.h ****                
 109:SonarDriver.h ****                 //Struct holding, pigeon detected positive, width, and distance.  
 110:SonarDriver.h ****                 struct position p = {1,width,distance_sonar_2-2};
 356              		.loc 1 110 0 is_stmt 1
 357 01be 0123     		movs	r3, #1
 358 01c0 8DF80030 		strb	r3, [sp]
 359 01c4 0193     		str	r3, [sp, #4]
 360 01c6 0022     		movs	r2, #0
 361 01c8 4FF08043 		mov	r3, #1073741824
 362 01cc 4046     		mov	r0, r8
 363 01ce 4946     		mov	r1, r9
 364 01d0 FFF7FEFF 		bl	__aeabi_dsub
 365              	.LVL58:
 366 01d4 CDE90201 		strd	r0, [sp, #8]
 111:SonarDriver.h ****                 return  p;         
 367              		.loc 1 111 0
 368 01d8 04AB     		add	r3, sp, #16
 369 01da 13E90F00 		ldmdb	r3, {r0, r1, r2, r3}
 370 01de 86E80F00 		stmia	r6, {r0, r1, r2, r3}
 371 01e2 0CE0     		b	.L3
 372              	.LVL59:
 373              	.L17:
 374              	.LBE4:
 375              	.LBB5:
 112:SonarDriver.h ****         }
 113:SonarDriver.h ****         else {
 114:SonarDriver.h ****             //Pigeon Not detected. An empty struct is returned
 115:SonarDriver.h ****             
 116:SonarDriver.h ****                 //Struct holding, pigeon detected positive, width, and distance.  
 117:SonarDriver.h ****                 struct position p = {0,0,0};
 376              		.loc 1 117 0
 377 01e4 0023     		movs	r3, #0
 378 01e6 8DF80030 		strb	r3, [sp]
 379 01ea 0193     		str	r3, [sp, #4]
 380 01ec 0022     		movs	r2, #0
 381 01ee 0023     		movs	r3, #0
 382 01f0 CDE90223 		strd	r2, [sp, #8]
 118:SonarDriver.h ****                 return  p;   
 383              		.loc 1 118 0
 384 01f4 04AB     		add	r3, sp, #16
 385 01f6 13E90F00 		ldmdb	r3, {r0, r1, r2, r3}
 386 01fa 86E80F00 		stmia	r6, {r0, r1, r2, r3}
 387              	.L3:
 388              	.LBE5:
 119:SonarDriver.h ****         }
 120:SonarDriver.h ****     
 121:SonarDriver.h **** }
 389              		.loc 1 121 0
 390 01fe 3046     		mov	r0, r6
 391 0200 04B0     		add	sp, sp, #16
 392              		.cfi_def_cfa_offset 24
ARM GAS  C:\Users\midtg\AppData\Local\Temp\ccKrWzk0.s 			page 10


 393              		@ sp needed
 394 0202 BDE87083 		pop	{r4, r5, r6, r8, r9, pc}
 395              	.LVL60:
 396              	.L32:
 397 0206 00BF     		.align	2
 398              	.L31:
 399 0208 FFFF6F41 		.word	1097859071
 400 020c 00003840 		.word	1077411840
 401 0210 00004D40 		.word	1078788096
 402 0214 00000440 		.word	1074003968
 403 0218 00804B40 		.word	1078689792
 404 021c 0000E03F 		.word	1071644672
 405 0220 00001440 		.word	1075052544
 406              		.cfi_endproc
 407              	.LFE65:
 408              		.size	GetPigeonPos, .-GetPigeonPos
 409              		.section	.text.main,"ax",%progbits
 410              		.align	2
 411              		.global	main
 412              		.thumb
 413              		.thumb_func
 414              		.type	main, %function
 415              	main:
 416              	.LFB66:
 417              		.file 2 "main.c"
   1:main.c        **** /* ========================================
   2:main.c        ****  *
   3:main.c        ****  * Copyright YOUR COMPANY, THE YEAR
   4:main.c        ****  * All Rights Reserved
   5:main.c        ****  * UNPUBLISHED, LICENSED SOFTWARE.
   6:main.c        ****  *
   7:main.c        ****  * CONFIDENTIAL AND PROPRIETARY INFORMATION
   8:main.c        ****  * WHICH IS THE PROPERTY OF your company.
   9:main.c        ****  *
  10:main.c        ****  * ========================================
  11:main.c        **** */
  12:main.c        **** #include <stdio.h>
  13:main.c        **** #include "project.h"
  14:main.c        **** #include "SonarDriver.h"
  15:main.c        **** 
  16:main.c        **** #define  FREQUENZY 24000000.0 
  17:main.c        **** 
  18:main.c        **** CY_ISR_PROTO(ISR_UART_RX_handler); //Prototype for UART interrupt
  19:main.c        **** //CY_ISR_PROTO(isr_echo_recieved_handler);
  20:main.c        **** //CY_ISR_PROTO(isr_1_handler);
  21:main.c        **** 
  22:main.c        **** void handleByteReceived(uint8_t); //Prototype for UART funktion
  23:main.c        **** static char outputBuffer[256];
  24:main.c        **** uint8_t flag = 1;
  25:main.c        **** uint8_t flagstart = 0;
  26:main.c        **** 
  27:main.c        **** 
  28:main.c        **** int main(void)
  29:main.c        **** {
 418              		.loc 2 29 0
 419              		.cfi_startproc
 420              		@ args = 0, pretend = 0, frame = 16
ARM GAS  C:\Users\midtg\AppData\Local\Temp\ccKrWzk0.s 			page 11


 421              		@ frame_needed = 0, uses_anonymous_args = 0
 422 0000 30B5     		push	{r4, r5, lr}
 423              		.cfi_def_cfa_offset 12
 424              		.cfi_offset 4, -12
 425              		.cfi_offset 5, -8
 426              		.cfi_offset 14, -4
 427 0002 87B0     		sub	sp, sp, #28
 428              		.cfi_def_cfa_offset 40
  30:main.c        ****     CyGlobalIntEnable; /* Enable global interrupts. */
 429              		.loc 2 30 0
 430              		.syntax unified
 431              	@ 30 "main.c" 1
 432 0004 62B6     		CPSIE   i
 433              	@ 0 "" 2
  31:main.c        ****     UART_RX_interrupt_StartEx(ISR_UART_RX_handler);
 434              		.loc 2 31 0
 435              		.thumb
 436              		.syntax unified
 437 0006 1848     		ldr	r0, .L39
 438 0008 FFF7FEFF 		bl	UART_RX_interrupt_StartEx
 439              	.LVL61:
  32:main.c        ****     //isr_echo_recieved_StartEx(isr_echo_recieved_handler);
  33:main.c        ****     SonarDriverStart();
 440              		.loc 2 33 0
 441 000c FFF7FEFF 		bl	SonarDriverStart
 442              	.LVL62:
  34:main.c        ****     //Klargører hardware:
  35:main.c        ****     UART_1_Start();
 443              		.loc 2 35 0
 444 0010 FFF7FEFF 		bl	UART_1_Start
 445              	.LVL63:
  36:main.c        ****    
  37:main.c        ****     //Timer_1_EnableTrigger();
  38:main.c        ****    
  39:main.c        ****     UART_1_PutString("Program Startet\n Type: 1 to start \n");
 446              		.loc 2 39 0
 447 0014 1548     		ldr	r0, .L39+4
 448 0016 FFF7FEFF 		bl	UART_1_PutString
 449              	.LVL64:
 450              	.L34:
 451              	.LBB6:
  40:main.c        **** 
  41:main.c        ****     /* Place your initialization/startup code here (e.g. MyInst_Start()) */
  42:main.c        **** 
  43:main.c        ****     for(;;)
  44:main.c        ****     {
  45:main.c        ****         /* Place your application code here. */
  46:main.c        ****         
  47:main.c        ****         
  48:main.c        ****         while(flagstart != 1){}
 452              		.loc 2 48 0 discriminator 1
 453 001a 154B     		ldr	r3, .L39+8
 454 001c 1B78     		ldrb	r3, [r3]	@ zero_extendqisi2
 455 001e 012B     		cmp	r3, #1
 456 0020 FBD1     		bne	.L34
  49:main.c        ****         flagstart = 0;
 457              		.loc 2 49 0
ARM GAS  C:\Users\midtg\AppData\Local\Temp\ccKrWzk0.s 			page 12


 458 0022 0022     		movs	r2, #0
 459 0024 124B     		ldr	r3, .L39+8
 460 0026 1A70     		strb	r2, [r3]
  50:main.c        ****         
  51:main.c        ****         struct position p = GetPigeonPos();
 461              		.loc 2 51 0
 462 0028 02A8     		add	r0, sp, #8
 463 002a FFF7FEFF 		bl	GetPigeonPos
 464              	.LVL65:
  52:main.c        ****         
  53:main.c        ****         if (p.detected == 1){
 465              		.loc 2 53 0
 466 002e 9DF80830 		ldrb	r3, [sp, #8]	@ zero_extendqisi2
 467 0032 012B     		cmp	r3, #1
 468 0034 0BD1     		bne	.L35
  54:main.c        ****         snprintf(outputBuffer, sizeof(outputBuffer), "Pigeon detected in position: %d, with the dis
 469              		.loc 2 54 0
 470 0036 DDE90423 		ldrd	r2, [sp, #16]
 471 003a CDE90023 		strd	r2, [sp]
 472 003e 039B     		ldr	r3, [sp, #12]
 473 0040 0C4A     		ldr	r2, .L39+12
 474 0042 4FF48071 		mov	r1, #256
 475 0046 0C48     		ldr	r0, .L39+16
 476 0048 FFF7FEFF 		bl	snprintf
 477              	.LVL66:
 478 004c 08E0     		b	.L36
 479              	.L35:
  55:main.c        ****         }
  56:main.c        ****         else
  57:main.c        ****         {
  58:main.c        ****          snprintf(outputBuffer, sizeof(outputBuffer), "Pigeon not detected\n\r");    
 480              		.loc 2 58 0
 481 004e 0A4C     		ldr	r4, .L39+16
 482 0050 0A4D     		ldr	r5, .L39+20
 483 0052 0FCD     		ldmia	r5!, {r0, r1, r2, r3}
 484 0054 0FC4     		stmia	r4!, {r0, r1, r2, r3}
 485 0056 95E80300 		ldmia	r5, {r0, r1}
 486 005a 44F8040B 		str	r0, [r4], #4
 487 005e 2180     		strh	r1, [r4]	@ movhi
 488              	.L36:
  59:main.c        ****         }
  60:main.c        **** 
  61:main.c        ****         UART_1_PutString(outputBuffer);
 489              		.loc 2 61 0
 490 0060 0548     		ldr	r0, .L39+16
 491 0062 FFF7FEFF 		bl	UART_1_PutString
 492              	.LVL67:
 493              	.LBE6:
  62:main.c        ****         
  63:main.c        ****         
  64:main.c        ****         /*
  65:main.c        ****         Trigger_1_Write(1);
  66:main.c        ****         CyDelayUs(10);
  67:main.c        ****         Trigger_1_Write(0);
  68:main.c        ****         
  69:main.c        ****         
  70:main.c        ****         while(Echo_1_Read() != 1){}
ARM GAS  C:\Users\midtg\AppData\Local\Temp\ccKrWzk0.s 			page 13


  71:main.c        ****        
  72:main.c        ****         Timer_Sonar_WriteCounter(16777215);
  73:main.c        ****        
  74:main.c        ****         while(Echo_1_Read() == 1){}
  75:main.c        ****         
  76:main.c        ****         uint32_t timervaerdi = Timer_Sonar_ReadCounter();
  77:main.c        ****     
  78:main.c        ****         double time = ((double)16777215.0 - (double)timervaerdi)/(double)24.0;
  79:main.c        ****         double distance = time/58.0;
  80:main.c        ****          //double distance = (time * 340.0)/2; 
  81:main.c        ****    
  82:main.c        ****         snprintf(outputBuffer, sizeof(outputBuffer), "Sensor 1: %.3f\n\r",distance); 
  83:main.c        **** 
  84:main.c        ****         UART_1_PutString(outputBuffer);
  85:main.c        ****         
  86:main.c        ****         //Delay between readings:
  87:main.c        ****         CyDelay(60);
  88:main.c        ****         
  89:main.c        ****         //Sonar 2 reading:
  90:main.c        ****         
  91:main.c        ****         Trigger_2_Write(1);
  92:main.c        ****         CyDelayUs(10);
  93:main.c        ****         Trigger_2_Write(0);
  94:main.c        ****         
  95:main.c        ****         //UART_1_PutString("Waiting for echo_2_read != 0");
  96:main.c        ****         while(Echo_2_Read() != 1){}
  97:main.c        ****        
  98:main.c        ****         Timer_Sonar_WriteCounter(16777215);
  99:main.c        ****        
 100:main.c        ****         //UART_1_PutString("Waiting for echo_2_read == 1");
 101:main.c        ****         while(Echo_2_Read() == 1){}
 102:main.c        ****         
 103:main.c        ****         timervaerdi = Timer_Sonar_ReadCounter();
 104:main.c        ****     
 105:main.c        ****         double timeus = ((double)16777215.0 - (double)timervaerdi)/(double)24.0;
 106:main.c        ****         double distance2 = timeus/58.0;
 107:main.c        ****          //double distance = (time * 340.0)/2; 
 108:main.c        ****    
 109:main.c        ****         snprintf(outputBuffer, sizeof(outputBuffer), "Sensor 2: %.3f\n\r", distance2); 
 110:main.c        **** 
 111:main.c        ****         UART_1_PutString(outputBuffer);
 112:main.c        ****         */
 113:main.c        ****         
 114:main.c        ****     }
 494              		.loc 2 114 0
 495 0066 D8E7     		b	.L34
 496              	.L40:
 497              		.align	2
 498              	.L39:
 499 0068 00000000 		.word	ISR_UART_RX_handler
 500 006c 00000000 		.word	.LC0
 501 0070 00000000 		.word	.LANCHOR0
 502 0074 24000000 		.word	.LC1
 503 0078 04000000 		.word	.LANCHOR0+4
 504 007c 60000000 		.word	.LC2
 505              		.cfi_endproc
 506              	.LFE66:
ARM GAS  C:\Users\midtg\AppData\Local\Temp\ccKrWzk0.s 			page 14


 507              		.size	main, .-main
 508              		.section	.text.handleByteReceived,"ax",%progbits
 509              		.align	2
 510              		.global	handleByteReceived
 511              		.thumb
 512              		.thumb_func
 513              		.type	handleByteReceived, %function
 514              	handleByteReceived:
 515              	.LFB68:
 115:main.c        ****         
 116:main.c        ****        
 117:main.c        ****     
 118:main.c        ****     
 119:main.c        **** }
 120:main.c        **** 
 121:main.c        **** /*CY_ISR_PROTO(isr_echo_recieved_handler){
 122:main.c        ****     CyGlobalIntDisable;
 123:main.c        ****     
 124:main.c        ****     UART_1_PutString("interrupt");
 125:main.c        ****     uint32_t timervaerdi = Timer_1_ReadCapture();
 126:main.c        ****     
 127:main.c        ****     double time = ((double)16777216.0 - (double)timervaerdi)/(double)24.0;
 128:main.c        ****     double distance = time/58.0;
 129:main.c        ****     //double distance = (time * 340.0)/2; 
 130:main.c        ****    
 131:main.c        ****     snprintf(outputBuffer, sizeof(outputBuffer), "Sensor %d: %.3f\n\r", counter,distance); 
 132:main.c        **** 
 133:main.c        ****     UART_1_PutString(outputBuffer);
 134:main.c        ****     
 135:main.c        ****     counter++;
 136:main.c        ****     
 137:main.c        ****     //flag = 1;
 138:main.c        ****     
 139:main.c        ****     if (counter == 3){
 140:main.c        ****         counter = 1;}
 141:main.c        ****    
 142:main.c        ****     
 143:main.c        ****     Timer_1_ClearFIFO();
 144:main.c        ****     //CyDelay(1);
 145:main.c        ****     CyGlobalIntEnable
 146:main.c        ****    
 147:main.c        **** }
 148:main.c        **** 
 149:main.c        **** 
 150:main.c        **** */
 151:main.c        **** CY_ISR(ISR_UART_RX_handler) //interrupt rutine til at læse UART input
 152:main.c        **** {
 153:main.c        ****     uint8_t bytesToRead = UART_1_GetRxBufferSize();
 154:main.c        ****     while (bytesToRead > 0)
 155:main.c        ****     {
 156:main.c        ****         uint8_t byteReceived = UART_1_ReadRxData();
 157:main.c        ****         UART_1_WriteTxData(byteReceived); // echo back
 158:main.c        ****         
 159:main.c        ****         handleByteReceived(byteReceived);
 160:main.c        ****         
 161:main.c        ****         bytesToRead--;
 162:main.c        ****     }
ARM GAS  C:\Users\midtg\AppData\Local\Temp\ccKrWzk0.s 			page 15


 163:main.c        **** }
 164:main.c        **** 
 165:main.c        **** void handleByteReceived(uint8_t byteReceived)// funktion til at håndterer modtaget UART data
 166:main.c        **** {
 516              		.loc 2 166 0
 517              		.cfi_startproc
 518              		@ args = 0, pretend = 0, frame = 0
 519              		@ frame_needed = 0, uses_anonymous_args = 0
 520              		@ link register save eliminated.
 521              	.LVL68:
 167:main.c        ****     switch(byteReceived)
 522              		.loc 2 167 0
 523 0000 3128     		cmp	r0, #49
 524 0002 02D1     		bne	.L41
 168:main.c        ****     {
 169:main.c        ****         case '1' :
 170:main.c        ****         {
 171:main.c        ****             flagstart = 1;
 525              		.loc 2 171 0
 526 0004 0122     		movs	r2, #1
 527 0006 014B     		ldr	r3, .L44
 528 0008 1A70     		strb	r2, [r3]
 529              	.L41:
 530 000a 7047     		bx	lr
 531              	.L45:
 532              		.align	2
 533              	.L44:
 534 000c 00000000 		.word	.LANCHOR0
 535              		.cfi_endproc
 536              	.LFE68:
 537              		.size	handleByteReceived, .-handleByteReceived
 538              		.section	.text.ISR_UART_RX_handler,"ax",%progbits
 539              		.align	2
 540              		.global	ISR_UART_RX_handler
 541              		.thumb
 542              		.thumb_func
 543              		.type	ISR_UART_RX_handler, %function
 544              	ISR_UART_RX_handler:
 545              	.LFB67:
 152:main.c        ****     uint8_t bytesToRead = UART_1_GetRxBufferSize();
 546              		.loc 2 152 0
 547              		.cfi_startproc
 548              		@ args = 0, pretend = 0, frame = 0
 549              		@ frame_needed = 0, uses_anonymous_args = 0
 550 0000 38B5     		push	{r3, r4, r5, lr}
 551              		.cfi_def_cfa_offset 16
 552              		.cfi_offset 3, -16
 553              		.cfi_offset 4, -12
 554              		.cfi_offset 5, -8
 555              		.cfi_offset 14, -4
 153:main.c        ****     while (bytesToRead > 0)
 556              		.loc 2 153 0
 557 0002 FFF7FEFF 		bl	UART_1_GetRxBufferSize
 558              	.LVL69:
 559 0006 0446     		mov	r4, r0
 560              	.LVL70:
 154:main.c        ****     {
ARM GAS  C:\Users\midtg\AppData\Local\Temp\ccKrWzk0.s 			page 16


 561              		.loc 2 154 0
 562 0008 09E0     		b	.L47
 563              	.L48:
 564              	.LBB7:
 156:main.c        ****         UART_1_WriteTxData(byteReceived); // echo back
 565              		.loc 2 156 0
 566 000a FFF7FEFF 		bl	UART_1_ReadRxData
 567              	.LVL71:
 568 000e 0546     		mov	r5, r0
 569              	.LVL72:
 157:main.c        ****         
 570              		.loc 2 157 0
 571 0010 FFF7FEFF 		bl	UART_1_WriteTxData
 572              	.LVL73:
 159:main.c        ****         
 573              		.loc 2 159 0
 574 0014 2846     		mov	r0, r5
 575 0016 FFF7FEFF 		bl	handleByteReceived
 576              	.LVL74:
 161:main.c        ****     }
 577              		.loc 2 161 0
 578 001a 013C     		subs	r4, r4, #1
 579              	.LVL75:
 580 001c E4B2     		uxtb	r4, r4
 581              	.LVL76:
 582              	.L47:
 583              	.LBE7:
 154:main.c        ****     {
 584              		.loc 2 154 0
 585 001e 002C     		cmp	r4, #0
 586 0020 F3D1     		bne	.L48
 163:main.c        **** 
 587              		.loc 2 163 0
 588 0022 38BD     		pop	{r3, r4, r5, pc}
 589              		.cfi_endproc
 590              	.LFE67:
 591              		.size	ISR_UART_RX_handler, .-ISR_UART_RX_handler
 592              		.global	flagstart
 593              		.global	flag
 594              		.data
 595              		.type	flag, %object
 596              		.size	flag, 1
 597              	flag:
 598 0000 01       		.byte	1
 599              		.section	.rodata.str1.4,"aMS",%progbits,1
 600              		.align	2
 601              	.LC0:
 602 0000 50726F67 		.ascii	"Program Startet\012 Type: 1 to start \012\000"
 602      72616D20 
 602      53746172 
 602      7465740A 
 602      20547970 
 603              	.LC1:
 604 0024 50696765 		.ascii	"Pigeon detected in position: %d, with the distance:"
 604      6F6E2064 
 604      65746563 
 604      74656420 
ARM GAS  C:\Users\midtg\AppData\Local\Temp\ccKrWzk0.s 			page 17


 604      696E2070 
 605 0057 20252E33 		.ascii	" %.3f\012\015\000"
 605      660A0D00 
 606 005f 00       		.space	1
 607              	.LC2:
 608 0060 50696765 		.ascii	"Pigeon not detected\012\015\000"
 608      6F6E206E 
 608      6F742064 
 608      65746563 
 608      7465640A 
 609              		.bss
 610              		.align	2
 611              		.set	.LANCHOR0,. + 0
 612              		.type	flagstart, %object
 613              		.size	flagstart, 1
 614              	flagstart:
 615 0000 00       		.space	1
 616 0001 000000   		.space	3
 617              		.type	outputBuffer, %object
 618              		.size	outputBuffer, 256
 619              	outputBuffer:
 620 0004 00000000 		.space	256
 620      00000000 
 620      00000000 
 620      00000000 
 620      00000000 
 621              		.text
 622              	.Letext0:
 623              		.file 3 "c:\\program files (x86)\\cypress\\psoc creator\\4.2\\psoc creator\\import\\gnu\\arm\\5.4.
 624              		.file 4 "c:\\program files (x86)\\cypress\\psoc creator\\4.2\\psoc creator\\import\\gnu\\arm\\5.4.
 625              		.file 5 "Generated_Source\\PSoC5/core_cm3.h"
 626              		.file 6 "Generated_Source\\PSoC5/Trigger_1.h"
 627              		.file 7 "Generated_Source\\PSoC5/Trigger_2.h"
 628              		.file 8 "Generated_Source\\PSoC5/Timer_Sonar.h"
 629              		.file 9 "Generated_Source\\PSoC5/CyLib.h"
 630              		.file 10 "Generated_Source\\PSoC5/Echo_1.h"
 631              		.file 11 "Generated_Source\\PSoC5/Echo_2.h"
 632              		.file 12 "c:\\program files (x86)\\cypress\\psoc creator\\4.2\\psoc creator\\import\\gnu\\arm\\5.4
 633              		.file 13 "Generated_Source\\PSoC5/UART_1.h"
 634              		.file 14 "Generated_Source\\PSoC5/UART_RX_interrupt.h"