ARM GAS  C:\Users\midtg\AppData\Local\Temp\cc7QPKKD.s 			page 1


   1              		.syntax unified
   2              		.cpu cortex-m3
   3              		.fpu softvfp
   4              		.eabi_attribute 20, 1
   5              		.eabi_attribute 21, 1
   6              		.eabi_attribute 23, 3
   7              		.eabi_attribute 24, 1
   8              		.eabi_attribute 25, 1
   9              		.eabi_attribute 26, 1
  10              		.eabi_attribute 30, 1
  11              		.eabi_attribute 34, 1
  12              		.eabi_attribute 18, 4
  13              		.thumb
  14              		.syntax unified
  15              		.file	"Timer_Sonar.c"
  16              		.text
  17              	.Ltext0:
  18              		.cfi_sections	.debug_frame
  19              		.section	.text.Timer_Sonar_Enable,"ax",%progbits
  20              		.align	2
  21              		.global	Timer_Sonar_Enable
  22              		.thumb
  23              		.thumb_func
  24              		.type	Timer_Sonar_Enable, %function
  25              	Timer_Sonar_Enable:
  26              	.LFB1:
  27              		.file 1 "Generated_Source\\PSoC5\\Timer_Sonar.c"
   1:Generated_Source\PSoC5/Timer_Sonar.c **** /*******************************************************************************
   2:Generated_Source\PSoC5/Timer_Sonar.c **** * File Name: Timer_Sonar.c
   3:Generated_Source\PSoC5/Timer_Sonar.c **** * Version 2.80
   4:Generated_Source\PSoC5/Timer_Sonar.c **** *
   5:Generated_Source\PSoC5/Timer_Sonar.c **** * Description:
   6:Generated_Source\PSoC5/Timer_Sonar.c **** *  The Timer component consists of a 8, 16, 24 or 32-bit timer with
   7:Generated_Source\PSoC5/Timer_Sonar.c **** *  a selectable period between 2 and 2^Width - 1.  The timer may free run
   8:Generated_Source\PSoC5/Timer_Sonar.c **** *  or be used as a capture timer as well.  The capture can be initiated
   9:Generated_Source\PSoC5/Timer_Sonar.c **** *  by a positive or negative edge signal as well as via software.
  10:Generated_Source\PSoC5/Timer_Sonar.c **** *  A trigger input can be programmed to enable the timer on rising edge
  11:Generated_Source\PSoC5/Timer_Sonar.c **** *  falling edge, either edge or continous run.
  12:Generated_Source\PSoC5/Timer_Sonar.c **** *  Interrupts may be generated due to a terminal count condition
  13:Generated_Source\PSoC5/Timer_Sonar.c **** *  or a capture event.
  14:Generated_Source\PSoC5/Timer_Sonar.c **** *
  15:Generated_Source\PSoC5/Timer_Sonar.c **** * Note:
  16:Generated_Source\PSoC5/Timer_Sonar.c **** *
  17:Generated_Source\PSoC5/Timer_Sonar.c **** ********************************************************************************
  18:Generated_Source\PSoC5/Timer_Sonar.c **** * Copyright 2008-2017, Cypress Semiconductor Corporation.  All rights reserved.
  19:Generated_Source\PSoC5/Timer_Sonar.c **** * You may use this file only in accordance with the license, terms, conditions,
  20:Generated_Source\PSoC5/Timer_Sonar.c **** * disclaimers, and limitations in the end user license agreement accompanying
  21:Generated_Source\PSoC5/Timer_Sonar.c **** * the software package with which this file was provided.
  22:Generated_Source\PSoC5/Timer_Sonar.c **** ********************************************************************************/
  23:Generated_Source\PSoC5/Timer_Sonar.c **** 
  24:Generated_Source\PSoC5/Timer_Sonar.c **** #include "Timer_Sonar.h"
  25:Generated_Source\PSoC5/Timer_Sonar.c **** 
  26:Generated_Source\PSoC5/Timer_Sonar.c **** uint8 Timer_Sonar_initVar = 0u;
  27:Generated_Source\PSoC5/Timer_Sonar.c **** 
  28:Generated_Source\PSoC5/Timer_Sonar.c **** 
  29:Generated_Source\PSoC5/Timer_Sonar.c **** /*******************************************************************************
  30:Generated_Source\PSoC5/Timer_Sonar.c **** * Function Name: Timer_Sonar_Init
ARM GAS  C:\Users\midtg\AppData\Local\Temp\cc7QPKKD.s 			page 2


  31:Generated_Source\PSoC5/Timer_Sonar.c **** ********************************************************************************
  32:Generated_Source\PSoC5/Timer_Sonar.c **** *
  33:Generated_Source\PSoC5/Timer_Sonar.c **** * Summary:
  34:Generated_Source\PSoC5/Timer_Sonar.c **** *  Initialize to the schematic state
  35:Generated_Source\PSoC5/Timer_Sonar.c **** *
  36:Generated_Source\PSoC5/Timer_Sonar.c **** * Parameters:
  37:Generated_Source\PSoC5/Timer_Sonar.c **** *  void
  38:Generated_Source\PSoC5/Timer_Sonar.c **** *
  39:Generated_Source\PSoC5/Timer_Sonar.c **** * Return:
  40:Generated_Source\PSoC5/Timer_Sonar.c **** *  void
  41:Generated_Source\PSoC5/Timer_Sonar.c **** *
  42:Generated_Source\PSoC5/Timer_Sonar.c **** *******************************************************************************/
  43:Generated_Source\PSoC5/Timer_Sonar.c **** void Timer_Sonar_Init(void) 
  44:Generated_Source\PSoC5/Timer_Sonar.c **** {
  45:Generated_Source\PSoC5/Timer_Sonar.c ****     #if(!Timer_Sonar_UsingFixedFunction)
  46:Generated_Source\PSoC5/Timer_Sonar.c ****             /* Interrupt State Backup for Critical Region*/
  47:Generated_Source\PSoC5/Timer_Sonar.c ****             uint8 Timer_Sonar_interruptState;
  48:Generated_Source\PSoC5/Timer_Sonar.c ****     #endif /* Interrupt state back up for Fixed Function only */
  49:Generated_Source\PSoC5/Timer_Sonar.c **** 
  50:Generated_Source\PSoC5/Timer_Sonar.c ****     #if (Timer_Sonar_UsingFixedFunction)
  51:Generated_Source\PSoC5/Timer_Sonar.c ****         /* Clear all bits but the enable bit (if it's already set) for Timer operation */
  52:Generated_Source\PSoC5/Timer_Sonar.c ****         Timer_Sonar_CONTROL &= Timer_Sonar_CTRL_ENABLE;
  53:Generated_Source\PSoC5/Timer_Sonar.c **** 
  54:Generated_Source\PSoC5/Timer_Sonar.c ****         /* Clear the mode bits for continuous run mode */
  55:Generated_Source\PSoC5/Timer_Sonar.c ****         #if (CY_PSOC5A)
  56:Generated_Source\PSoC5/Timer_Sonar.c ****             Timer_Sonar_CONTROL2 &= ((uint8)(~Timer_Sonar_CTRL_MODE_MASK));
  57:Generated_Source\PSoC5/Timer_Sonar.c ****         #endif /* Clear bits in CONTROL2 only in PSOC5A */
  58:Generated_Source\PSoC5/Timer_Sonar.c **** 
  59:Generated_Source\PSoC5/Timer_Sonar.c ****         #if (CY_PSOC3 || CY_PSOC5LP)
  60:Generated_Source\PSoC5/Timer_Sonar.c ****             Timer_Sonar_CONTROL3 &= ((uint8)(~Timer_Sonar_CTRL_MODE_MASK));
  61:Generated_Source\PSoC5/Timer_Sonar.c ****         #endif /* CONTROL3 register exists only in PSoC3 OR PSoC5LP */
  62:Generated_Source\PSoC5/Timer_Sonar.c **** 
  63:Generated_Source\PSoC5/Timer_Sonar.c ****         /* Check if One Shot mode is enabled i.e. RunMode !=0*/
  64:Generated_Source\PSoC5/Timer_Sonar.c ****         #if (Timer_Sonar_RunModeUsed != 0x0u)
  65:Generated_Source\PSoC5/Timer_Sonar.c ****             /* Set 3rd bit of Control register to enable one shot mode */
  66:Generated_Source\PSoC5/Timer_Sonar.c ****             Timer_Sonar_CONTROL |= 0x04u;
  67:Generated_Source\PSoC5/Timer_Sonar.c ****         #endif /* One Shot enabled only when RunModeUsed is not Continuous*/
  68:Generated_Source\PSoC5/Timer_Sonar.c **** 
  69:Generated_Source\PSoC5/Timer_Sonar.c ****         #if (Timer_Sonar_RunModeUsed == 2)
  70:Generated_Source\PSoC5/Timer_Sonar.c ****             #if (CY_PSOC5A)
  71:Generated_Source\PSoC5/Timer_Sonar.c ****                 /* Set last 2 bits of control2 register if one shot(halt on
  72:Generated_Source\PSoC5/Timer_Sonar.c ****                 interrupt) is enabled*/
  73:Generated_Source\PSoC5/Timer_Sonar.c ****                 Timer_Sonar_CONTROL2 |= 0x03u;
  74:Generated_Source\PSoC5/Timer_Sonar.c ****             #endif /* Set One-Shot Halt on Interrupt bit in CONTROL2 for PSoC5A */
  75:Generated_Source\PSoC5/Timer_Sonar.c **** 
  76:Generated_Source\PSoC5/Timer_Sonar.c ****             #if (CY_PSOC3 || CY_PSOC5LP)
  77:Generated_Source\PSoC5/Timer_Sonar.c ****                 /* Set last 2 bits of control3 register if one shot(halt on
  78:Generated_Source\PSoC5/Timer_Sonar.c ****                 interrupt) is enabled*/
  79:Generated_Source\PSoC5/Timer_Sonar.c ****                 Timer_Sonar_CONTROL3 |= 0x03u;
  80:Generated_Source\PSoC5/Timer_Sonar.c ****             #endif /* Set One-Shot Halt on Interrupt bit in CONTROL3 for PSoC3 or PSoC5LP */
  81:Generated_Source\PSoC5/Timer_Sonar.c **** 
  82:Generated_Source\PSoC5/Timer_Sonar.c ****         #endif /* Remove section if One Shot Halt on Interrupt is not enabled */
  83:Generated_Source\PSoC5/Timer_Sonar.c **** 
  84:Generated_Source\PSoC5/Timer_Sonar.c ****         #if (Timer_Sonar_UsingHWEnable != 0)
  85:Generated_Source\PSoC5/Timer_Sonar.c ****             #if (CY_PSOC5A)
  86:Generated_Source\PSoC5/Timer_Sonar.c ****                 /* Set the default Run Mode of the Timer to Continuous */
  87:Generated_Source\PSoC5/Timer_Sonar.c ****                 Timer_Sonar_CONTROL2 |= Timer_Sonar_CTRL_MODE_PULSEWIDTH;
ARM GAS  C:\Users\midtg\AppData\Local\Temp\cc7QPKKD.s 			page 3


  88:Generated_Source\PSoC5/Timer_Sonar.c ****             #endif /* Set Continuous Run Mode in CONTROL2 for PSoC5A */
  89:Generated_Source\PSoC5/Timer_Sonar.c **** 
  90:Generated_Source\PSoC5/Timer_Sonar.c ****             #if (CY_PSOC3 || CY_PSOC5LP)
  91:Generated_Source\PSoC5/Timer_Sonar.c ****                 /* Clear and Set ROD and COD bits of CFG2 register */
  92:Generated_Source\PSoC5/Timer_Sonar.c ****                 Timer_Sonar_CONTROL3 &= ((uint8)(~Timer_Sonar_CTRL_RCOD_MASK));
  93:Generated_Source\PSoC5/Timer_Sonar.c ****                 Timer_Sonar_CONTROL3 |= Timer_Sonar_CTRL_RCOD;
  94:Generated_Source\PSoC5/Timer_Sonar.c **** 
  95:Generated_Source\PSoC5/Timer_Sonar.c ****                 /* Clear and Enable the HW enable bit in CFG2 register */
  96:Generated_Source\PSoC5/Timer_Sonar.c ****                 Timer_Sonar_CONTROL3 &= ((uint8)(~Timer_Sonar_CTRL_ENBL_MASK));
  97:Generated_Source\PSoC5/Timer_Sonar.c ****                 Timer_Sonar_CONTROL3 |= Timer_Sonar_CTRL_ENBL;
  98:Generated_Source\PSoC5/Timer_Sonar.c **** 
  99:Generated_Source\PSoC5/Timer_Sonar.c ****                 /* Set the default Run Mode of the Timer to Continuous */
 100:Generated_Source\PSoC5/Timer_Sonar.c ****                 Timer_Sonar_CONTROL3 |= Timer_Sonar_CTRL_MODE_CONTINUOUS;
 101:Generated_Source\PSoC5/Timer_Sonar.c ****             #endif /* Set Continuous Run Mode in CONTROL3 for PSoC3ES3 or PSoC5A */
 102:Generated_Source\PSoC5/Timer_Sonar.c **** 
 103:Generated_Source\PSoC5/Timer_Sonar.c ****         #endif /* Configure Run Mode with hardware enable */
 104:Generated_Source\PSoC5/Timer_Sonar.c **** 
 105:Generated_Source\PSoC5/Timer_Sonar.c ****         /* Clear and Set SYNCTC and SYNCCMP bits of RT1 register */
 106:Generated_Source\PSoC5/Timer_Sonar.c ****         Timer_Sonar_RT1 &= ((uint8)(~Timer_Sonar_RT1_MASK));
 107:Generated_Source\PSoC5/Timer_Sonar.c ****         Timer_Sonar_RT1 |= Timer_Sonar_SYNC;
 108:Generated_Source\PSoC5/Timer_Sonar.c **** 
 109:Generated_Source\PSoC5/Timer_Sonar.c ****         /*Enable DSI Sync all all inputs of the Timer*/
 110:Generated_Source\PSoC5/Timer_Sonar.c ****         Timer_Sonar_RT1 &= ((uint8)(~Timer_Sonar_SYNCDSI_MASK));
 111:Generated_Source\PSoC5/Timer_Sonar.c ****         Timer_Sonar_RT1 |= Timer_Sonar_SYNCDSI_EN;
 112:Generated_Source\PSoC5/Timer_Sonar.c **** 
 113:Generated_Source\PSoC5/Timer_Sonar.c ****         /* Set the IRQ to use the status register interrupts */
 114:Generated_Source\PSoC5/Timer_Sonar.c ****         Timer_Sonar_CONTROL2 |= Timer_Sonar_CTRL2_IRQ_SEL;
 115:Generated_Source\PSoC5/Timer_Sonar.c ****     #endif /* Configuring registers of fixed function implementation */
 116:Generated_Source\PSoC5/Timer_Sonar.c **** 
 117:Generated_Source\PSoC5/Timer_Sonar.c ****     /* Set Initial values from Configuration */
 118:Generated_Source\PSoC5/Timer_Sonar.c ****     Timer_Sonar_WritePeriod(Timer_Sonar_INIT_PERIOD);
 119:Generated_Source\PSoC5/Timer_Sonar.c ****     Timer_Sonar_WriteCounter(Timer_Sonar_INIT_PERIOD);
 120:Generated_Source\PSoC5/Timer_Sonar.c **** 
 121:Generated_Source\PSoC5/Timer_Sonar.c ****     #if (Timer_Sonar_UsingHWCaptureCounter)/* Capture counter is enabled */
 122:Generated_Source\PSoC5/Timer_Sonar.c ****         Timer_Sonar_CAPTURE_COUNT_CTRL |= Timer_Sonar_CNTR_ENABLE;
 123:Generated_Source\PSoC5/Timer_Sonar.c ****         Timer_Sonar_SetCaptureCount(Timer_Sonar_INIT_CAPTURE_COUNT);
 124:Generated_Source\PSoC5/Timer_Sonar.c ****     #endif /* Configure capture counter value */
 125:Generated_Source\PSoC5/Timer_Sonar.c **** 
 126:Generated_Source\PSoC5/Timer_Sonar.c ****     #if (!Timer_Sonar_UsingFixedFunction)
 127:Generated_Source\PSoC5/Timer_Sonar.c ****         #if (Timer_Sonar_SoftwareCaptureMode)
 128:Generated_Source\PSoC5/Timer_Sonar.c ****             Timer_Sonar_SetCaptureMode(Timer_Sonar_INIT_CAPTURE_MODE);
 129:Generated_Source\PSoC5/Timer_Sonar.c ****         #endif /* Set Capture Mode for UDB implementation if capture mode is software controlled */
 130:Generated_Source\PSoC5/Timer_Sonar.c **** 
 131:Generated_Source\PSoC5/Timer_Sonar.c ****         #if (Timer_Sonar_SoftwareTriggerMode)
 132:Generated_Source\PSoC5/Timer_Sonar.c ****             #if (!Timer_Sonar_UDB_CONTROL_REG_REMOVED)
 133:Generated_Source\PSoC5/Timer_Sonar.c ****                 if (0u == (Timer_Sonar_CONTROL & Timer_Sonar__B_TIMER__TM_SOFTWARE))
 134:Generated_Source\PSoC5/Timer_Sonar.c ****                 {
 135:Generated_Source\PSoC5/Timer_Sonar.c ****                     Timer_Sonar_SetTriggerMode(Timer_Sonar_INIT_TRIGGER_MODE);
 136:Generated_Source\PSoC5/Timer_Sonar.c ****                 }
 137:Generated_Source\PSoC5/Timer_Sonar.c ****             #endif /* (!Timer_Sonar_UDB_CONTROL_REG_REMOVED) */
 138:Generated_Source\PSoC5/Timer_Sonar.c ****         #endif /* Set trigger mode for UDB Implementation if trigger mode is software controlled */
 139:Generated_Source\PSoC5/Timer_Sonar.c **** 
 140:Generated_Source\PSoC5/Timer_Sonar.c ****         /* CyEnterCriticalRegion and CyExitCriticalRegion are used to mark following region critica
 141:Generated_Source\PSoC5/Timer_Sonar.c ****         /* Enter Critical Region*/
 142:Generated_Source\PSoC5/Timer_Sonar.c ****         Timer_Sonar_interruptState = CyEnterCriticalSection();
 143:Generated_Source\PSoC5/Timer_Sonar.c **** 
 144:Generated_Source\PSoC5/Timer_Sonar.c ****         /* Use the interrupt output of the status register for IRQ output */
ARM GAS  C:\Users\midtg\AppData\Local\Temp\cc7QPKKD.s 			page 4


 145:Generated_Source\PSoC5/Timer_Sonar.c ****         Timer_Sonar_STATUS_AUX_CTRL |= Timer_Sonar_STATUS_ACTL_INT_EN_MASK;
 146:Generated_Source\PSoC5/Timer_Sonar.c **** 
 147:Generated_Source\PSoC5/Timer_Sonar.c ****         /* Exit Critical Region*/
 148:Generated_Source\PSoC5/Timer_Sonar.c ****         CyExitCriticalSection(Timer_Sonar_interruptState);
 149:Generated_Source\PSoC5/Timer_Sonar.c **** 
 150:Generated_Source\PSoC5/Timer_Sonar.c ****         #if (Timer_Sonar_EnableTriggerMode)
 151:Generated_Source\PSoC5/Timer_Sonar.c ****             Timer_Sonar_EnableTrigger();
 152:Generated_Source\PSoC5/Timer_Sonar.c ****         #endif /* Set Trigger enable bit for UDB implementation in the control register*/
 153:Generated_Source\PSoC5/Timer_Sonar.c **** 		
 154:Generated_Source\PSoC5/Timer_Sonar.c **** 		
 155:Generated_Source\PSoC5/Timer_Sonar.c ****         #if (Timer_Sonar_InterruptOnCaptureCount && !Timer_Sonar_UDB_CONTROL_REG_REMOVED)
 156:Generated_Source\PSoC5/Timer_Sonar.c ****             Timer_Sonar_SetInterruptCount(Timer_Sonar_INIT_INT_CAPTURE_COUNT);
 157:Generated_Source\PSoC5/Timer_Sonar.c ****         #endif /* Set interrupt count in UDB implementation if interrupt count feature is checked.*
 158:Generated_Source\PSoC5/Timer_Sonar.c **** 
 159:Generated_Source\PSoC5/Timer_Sonar.c ****         Timer_Sonar_ClearFIFO();
 160:Generated_Source\PSoC5/Timer_Sonar.c ****     #endif /* Configure additional features of UDB implementation */
 161:Generated_Source\PSoC5/Timer_Sonar.c **** 
 162:Generated_Source\PSoC5/Timer_Sonar.c ****     Timer_Sonar_SetInterruptMode(Timer_Sonar_INIT_INTERRUPT_MODE);
 163:Generated_Source\PSoC5/Timer_Sonar.c **** }
 164:Generated_Source\PSoC5/Timer_Sonar.c **** 
 165:Generated_Source\PSoC5/Timer_Sonar.c **** 
 166:Generated_Source\PSoC5/Timer_Sonar.c **** /*******************************************************************************
 167:Generated_Source\PSoC5/Timer_Sonar.c **** * Function Name: Timer_Sonar_Enable
 168:Generated_Source\PSoC5/Timer_Sonar.c **** ********************************************************************************
 169:Generated_Source\PSoC5/Timer_Sonar.c **** *
 170:Generated_Source\PSoC5/Timer_Sonar.c **** * Summary:
 171:Generated_Source\PSoC5/Timer_Sonar.c **** *  Enable the Timer
 172:Generated_Source\PSoC5/Timer_Sonar.c **** *
 173:Generated_Source\PSoC5/Timer_Sonar.c **** * Parameters:
 174:Generated_Source\PSoC5/Timer_Sonar.c **** *  void
 175:Generated_Source\PSoC5/Timer_Sonar.c **** *
 176:Generated_Source\PSoC5/Timer_Sonar.c **** * Return:
 177:Generated_Source\PSoC5/Timer_Sonar.c **** *  void
 178:Generated_Source\PSoC5/Timer_Sonar.c **** *
 179:Generated_Source\PSoC5/Timer_Sonar.c **** *******************************************************************************/
 180:Generated_Source\PSoC5/Timer_Sonar.c **** void Timer_Sonar_Enable(void) 
 181:Generated_Source\PSoC5/Timer_Sonar.c **** {
  28              		.loc 1 181 0
  29              		.cfi_startproc
  30              		@ args = 0, pretend = 0, frame = 0
  31              		@ frame_needed = 0, uses_anonymous_args = 0
  32              		@ link register save eliminated.
 182:Generated_Source\PSoC5/Timer_Sonar.c ****     /* Globally Enable the Fixed Function Block chosen */
 183:Generated_Source\PSoC5/Timer_Sonar.c ****     #if (Timer_Sonar_UsingFixedFunction)
 184:Generated_Source\PSoC5/Timer_Sonar.c ****         Timer_Sonar_GLOBAL_ENABLE |= Timer_Sonar_BLOCK_EN_MASK;
 185:Generated_Source\PSoC5/Timer_Sonar.c ****         Timer_Sonar_GLOBAL_STBY_ENABLE |= Timer_Sonar_BLOCK_STBY_EN_MASK;
 186:Generated_Source\PSoC5/Timer_Sonar.c ****     #endif /* Set Enable bit for enabling Fixed function timer*/
 187:Generated_Source\PSoC5/Timer_Sonar.c **** 
 188:Generated_Source\PSoC5/Timer_Sonar.c ****     /* Remove assignment if control register is removed */
 189:Generated_Source\PSoC5/Timer_Sonar.c ****     #if (!Timer_Sonar_UDB_CONTROL_REG_REMOVED || Timer_Sonar_UsingFixedFunction)
 190:Generated_Source\PSoC5/Timer_Sonar.c ****         Timer_Sonar_CONTROL |= Timer_Sonar_CTRL_ENABLE;
  33              		.loc 1 190 0
  34 0000 024A     		ldr	r2, .L2
  35 0002 1378     		ldrb	r3, [r2]	@ zero_extendqisi2
  36 0004 43F08003 		orr	r3, r3, #128
  37 0008 1370     		strb	r3, [r2]
  38 000a 7047     		bx	lr
ARM GAS  C:\Users\midtg\AppData\Local\Temp\cc7QPKKD.s 			page 5


  39              	.L3:
  40              		.align	2
  41              	.L2:
  42 000c 75650040 		.word	1073767797
  43              		.cfi_endproc
  44              	.LFE1:
  45              		.size	Timer_Sonar_Enable, .-Timer_Sonar_Enable
  46              		.section	.text.Timer_Sonar_Stop,"ax",%progbits
  47              		.align	2
  48              		.global	Timer_Sonar_Stop
  49              		.thumb
  50              		.thumb_func
  51              		.type	Timer_Sonar_Stop, %function
  52              	Timer_Sonar_Stop:
  53              	.LFB3:
 191:Generated_Source\PSoC5/Timer_Sonar.c ****     #endif /* Remove assignment if control register is removed */
 192:Generated_Source\PSoC5/Timer_Sonar.c **** }
 193:Generated_Source\PSoC5/Timer_Sonar.c **** 
 194:Generated_Source\PSoC5/Timer_Sonar.c **** 
 195:Generated_Source\PSoC5/Timer_Sonar.c **** /*******************************************************************************
 196:Generated_Source\PSoC5/Timer_Sonar.c **** * Function Name: Timer_Sonar_Start
 197:Generated_Source\PSoC5/Timer_Sonar.c **** ********************************************************************************
 198:Generated_Source\PSoC5/Timer_Sonar.c **** *
 199:Generated_Source\PSoC5/Timer_Sonar.c **** * Summary:
 200:Generated_Source\PSoC5/Timer_Sonar.c **** *  The start function initializes the timer with the default values, the
 201:Generated_Source\PSoC5/Timer_Sonar.c **** *  enables the timerto begin counting.  It does not enable interrupts,
 202:Generated_Source\PSoC5/Timer_Sonar.c **** *  the EnableInt command should be called if interrupt generation is required.
 203:Generated_Source\PSoC5/Timer_Sonar.c **** *
 204:Generated_Source\PSoC5/Timer_Sonar.c **** * Parameters:
 205:Generated_Source\PSoC5/Timer_Sonar.c **** *  void
 206:Generated_Source\PSoC5/Timer_Sonar.c **** *
 207:Generated_Source\PSoC5/Timer_Sonar.c **** * Return:
 208:Generated_Source\PSoC5/Timer_Sonar.c **** *  void
 209:Generated_Source\PSoC5/Timer_Sonar.c **** *
 210:Generated_Source\PSoC5/Timer_Sonar.c **** * Global variables:
 211:Generated_Source\PSoC5/Timer_Sonar.c **** *  Timer_Sonar_initVar: Is modified when this function is called for the
 212:Generated_Source\PSoC5/Timer_Sonar.c **** *   first time. Is used to ensure that initialization happens only once.
 213:Generated_Source\PSoC5/Timer_Sonar.c **** *
 214:Generated_Source\PSoC5/Timer_Sonar.c **** *******************************************************************************/
 215:Generated_Source\PSoC5/Timer_Sonar.c **** void Timer_Sonar_Start(void) 
 216:Generated_Source\PSoC5/Timer_Sonar.c **** {
 217:Generated_Source\PSoC5/Timer_Sonar.c ****     if(Timer_Sonar_initVar == 0u)
 218:Generated_Source\PSoC5/Timer_Sonar.c ****     {
 219:Generated_Source\PSoC5/Timer_Sonar.c ****         Timer_Sonar_Init();
 220:Generated_Source\PSoC5/Timer_Sonar.c **** 
 221:Generated_Source\PSoC5/Timer_Sonar.c ****         Timer_Sonar_initVar = 1u;   /* Clear this bit for Initialization */
 222:Generated_Source\PSoC5/Timer_Sonar.c ****     }
 223:Generated_Source\PSoC5/Timer_Sonar.c **** 
 224:Generated_Source\PSoC5/Timer_Sonar.c ****     /* Enable the Timer */
 225:Generated_Source\PSoC5/Timer_Sonar.c ****     Timer_Sonar_Enable();
 226:Generated_Source\PSoC5/Timer_Sonar.c **** }
 227:Generated_Source\PSoC5/Timer_Sonar.c **** 
 228:Generated_Source\PSoC5/Timer_Sonar.c **** 
 229:Generated_Source\PSoC5/Timer_Sonar.c **** /*******************************************************************************
 230:Generated_Source\PSoC5/Timer_Sonar.c **** * Function Name: Timer_Sonar_Stop
 231:Generated_Source\PSoC5/Timer_Sonar.c **** ********************************************************************************
 232:Generated_Source\PSoC5/Timer_Sonar.c **** *
ARM GAS  C:\Users\midtg\AppData\Local\Temp\cc7QPKKD.s 			page 6


 233:Generated_Source\PSoC5/Timer_Sonar.c **** * Summary:
 234:Generated_Source\PSoC5/Timer_Sonar.c **** *  The stop function halts the timer, but does not change any modes or disable
 235:Generated_Source\PSoC5/Timer_Sonar.c **** *  interrupts.
 236:Generated_Source\PSoC5/Timer_Sonar.c **** *
 237:Generated_Source\PSoC5/Timer_Sonar.c **** * Parameters:
 238:Generated_Source\PSoC5/Timer_Sonar.c **** *  void
 239:Generated_Source\PSoC5/Timer_Sonar.c **** *
 240:Generated_Source\PSoC5/Timer_Sonar.c **** * Return:
 241:Generated_Source\PSoC5/Timer_Sonar.c **** *  void
 242:Generated_Source\PSoC5/Timer_Sonar.c **** *
 243:Generated_Source\PSoC5/Timer_Sonar.c **** * Side Effects: If the Enable mode is set to Hardware only then this function
 244:Generated_Source\PSoC5/Timer_Sonar.c **** *               has no effect on the operation of the timer.
 245:Generated_Source\PSoC5/Timer_Sonar.c **** *
 246:Generated_Source\PSoC5/Timer_Sonar.c **** *******************************************************************************/
 247:Generated_Source\PSoC5/Timer_Sonar.c **** void Timer_Sonar_Stop(void) 
 248:Generated_Source\PSoC5/Timer_Sonar.c **** {
  54              		.loc 1 248 0
  55              		.cfi_startproc
  56              		@ args = 0, pretend = 0, frame = 0
  57              		@ frame_needed = 0, uses_anonymous_args = 0
  58              		@ link register save eliminated.
 249:Generated_Source\PSoC5/Timer_Sonar.c ****     /* Disable Timer */
 250:Generated_Source\PSoC5/Timer_Sonar.c ****     #if(!Timer_Sonar_UDB_CONTROL_REG_REMOVED || Timer_Sonar_UsingFixedFunction)
 251:Generated_Source\PSoC5/Timer_Sonar.c ****         Timer_Sonar_CONTROL &= ((uint8)(~Timer_Sonar_CTRL_ENABLE));
  59              		.loc 1 251 0
  60 0000 024A     		ldr	r2, .L5
  61 0002 1378     		ldrb	r3, [r2]	@ zero_extendqisi2
  62 0004 03F07F03 		and	r3, r3, #127
  63 0008 1370     		strb	r3, [r2]
  64 000a 7047     		bx	lr
  65              	.L6:
  66              		.align	2
  67              	.L5:
  68 000c 75650040 		.word	1073767797
  69              		.cfi_endproc
  70              	.LFE3:
  71              		.size	Timer_Sonar_Stop, .-Timer_Sonar_Stop
  72              		.section	.text.Timer_Sonar_SetInterruptMode,"ax",%progbits
  73              		.align	2
  74              		.global	Timer_Sonar_SetInterruptMode
  75              		.thumb
  76              		.thumb_func
  77              		.type	Timer_Sonar_SetInterruptMode, %function
  78              	Timer_Sonar_SetInterruptMode:
  79              	.LFB4:
 252:Generated_Source\PSoC5/Timer_Sonar.c ****     #endif /* Remove assignment if control register is removed */
 253:Generated_Source\PSoC5/Timer_Sonar.c **** 
 254:Generated_Source\PSoC5/Timer_Sonar.c ****     /* Globally disable the Fixed Function Block chosen */
 255:Generated_Source\PSoC5/Timer_Sonar.c ****     #if (Timer_Sonar_UsingFixedFunction)
 256:Generated_Source\PSoC5/Timer_Sonar.c ****         Timer_Sonar_GLOBAL_ENABLE &= ((uint8)(~Timer_Sonar_BLOCK_EN_MASK));
 257:Generated_Source\PSoC5/Timer_Sonar.c ****         Timer_Sonar_GLOBAL_STBY_ENABLE &= ((uint8)(~Timer_Sonar_BLOCK_STBY_EN_MASK));
 258:Generated_Source\PSoC5/Timer_Sonar.c ****     #endif /* Disable global enable for the Timer Fixed function block to stop the Timer*/
 259:Generated_Source\PSoC5/Timer_Sonar.c **** }
 260:Generated_Source\PSoC5/Timer_Sonar.c **** 
 261:Generated_Source\PSoC5/Timer_Sonar.c **** 
 262:Generated_Source\PSoC5/Timer_Sonar.c **** /*******************************************************************************
 263:Generated_Source\PSoC5/Timer_Sonar.c **** * Function Name: Timer_Sonar_SetInterruptMode
ARM GAS  C:\Users\midtg\AppData\Local\Temp\cc7QPKKD.s 			page 7


 264:Generated_Source\PSoC5/Timer_Sonar.c **** ********************************************************************************
 265:Generated_Source\PSoC5/Timer_Sonar.c **** *
 266:Generated_Source\PSoC5/Timer_Sonar.c **** * Summary:
 267:Generated_Source\PSoC5/Timer_Sonar.c **** *  This function selects which of the interrupt inputs may cause an interrupt.
 268:Generated_Source\PSoC5/Timer_Sonar.c **** *  The twosources are caputure and terminal.  One, both or neither may
 269:Generated_Source\PSoC5/Timer_Sonar.c **** *  be selected.
 270:Generated_Source\PSoC5/Timer_Sonar.c **** *
 271:Generated_Source\PSoC5/Timer_Sonar.c **** * Parameters:
 272:Generated_Source\PSoC5/Timer_Sonar.c **** *  interruptMode:   This parameter is used to enable interrups on either/or
 273:Generated_Source\PSoC5/Timer_Sonar.c **** *                   terminal count or capture.
 274:Generated_Source\PSoC5/Timer_Sonar.c **** *
 275:Generated_Source\PSoC5/Timer_Sonar.c **** * Return:
 276:Generated_Source\PSoC5/Timer_Sonar.c **** *  void
 277:Generated_Source\PSoC5/Timer_Sonar.c **** *
 278:Generated_Source\PSoC5/Timer_Sonar.c **** *******************************************************************************/
 279:Generated_Source\PSoC5/Timer_Sonar.c **** void Timer_Sonar_SetInterruptMode(uint8 interruptMode) 
 280:Generated_Source\PSoC5/Timer_Sonar.c **** {
  80              		.loc 1 280 0
  81              		.cfi_startproc
  82              		@ args = 0, pretend = 0, frame = 0
  83              		@ frame_needed = 0, uses_anonymous_args = 0
  84              		@ link register save eliminated.
  85              	.LVL0:
 281:Generated_Source\PSoC5/Timer_Sonar.c ****     Timer_Sonar_STATUS_MASK = interruptMode;
  86              		.loc 1 281 0
  87 0000 014B     		ldr	r3, .L8
  88 0002 1870     		strb	r0, [r3]
  89 0004 7047     		bx	lr
  90              	.L9:
  91 0006 00BF     		.align	2
  92              	.L8:
  93 0008 86650040 		.word	1073767814
  94              		.cfi_endproc
  95              	.LFE4:
  96              		.size	Timer_Sonar_SetInterruptMode, .-Timer_Sonar_SetInterruptMode
  97              		.section	.text.Timer_Sonar_SoftwareCapture,"ax",%progbits
  98              		.align	2
  99              		.global	Timer_Sonar_SoftwareCapture
 100              		.thumb
 101              		.thumb_func
 102              		.type	Timer_Sonar_SoftwareCapture, %function
 103              	Timer_Sonar_SoftwareCapture:
 104              	.LFB5:
 282:Generated_Source\PSoC5/Timer_Sonar.c **** }
 283:Generated_Source\PSoC5/Timer_Sonar.c **** 
 284:Generated_Source\PSoC5/Timer_Sonar.c **** 
 285:Generated_Source\PSoC5/Timer_Sonar.c **** /*******************************************************************************
 286:Generated_Source\PSoC5/Timer_Sonar.c **** * Function Name: Timer_Sonar_SoftwareCapture
 287:Generated_Source\PSoC5/Timer_Sonar.c **** ********************************************************************************
 288:Generated_Source\PSoC5/Timer_Sonar.c **** *
 289:Generated_Source\PSoC5/Timer_Sonar.c **** * Summary:
 290:Generated_Source\PSoC5/Timer_Sonar.c **** *  This function forces a capture independent of the capture signal.
 291:Generated_Source\PSoC5/Timer_Sonar.c **** *
 292:Generated_Source\PSoC5/Timer_Sonar.c **** * Parameters:
 293:Generated_Source\PSoC5/Timer_Sonar.c **** *  void
 294:Generated_Source\PSoC5/Timer_Sonar.c **** *
 295:Generated_Source\PSoC5/Timer_Sonar.c **** * Return:
ARM GAS  C:\Users\midtg\AppData\Local\Temp\cc7QPKKD.s 			page 8


 296:Generated_Source\PSoC5/Timer_Sonar.c **** *  void
 297:Generated_Source\PSoC5/Timer_Sonar.c **** *
 298:Generated_Source\PSoC5/Timer_Sonar.c **** * Side Effects:
 299:Generated_Source\PSoC5/Timer_Sonar.c **** *  An existing hardware capture could be overwritten.
 300:Generated_Source\PSoC5/Timer_Sonar.c **** *
 301:Generated_Source\PSoC5/Timer_Sonar.c **** *******************************************************************************/
 302:Generated_Source\PSoC5/Timer_Sonar.c **** void Timer_Sonar_SoftwareCapture(void) 
 303:Generated_Source\PSoC5/Timer_Sonar.c **** {
 105              		.loc 1 303 0
 106              		.cfi_startproc
 107              		@ args = 0, pretend = 0, frame = 0
 108              		@ frame_needed = 0, uses_anonymous_args = 0
 109              		@ link register save eliminated.
 304:Generated_Source\PSoC5/Timer_Sonar.c ****     /* Generate a software capture by reading the counter register */
 305:Generated_Source\PSoC5/Timer_Sonar.c ****     #if(Timer_Sonar_UsingFixedFunction)
 306:Generated_Source\PSoC5/Timer_Sonar.c ****         (void)CY_GET_REG16(Timer_Sonar_COUNTER_LSB_PTR);
 307:Generated_Source\PSoC5/Timer_Sonar.c ****     #else
 308:Generated_Source\PSoC5/Timer_Sonar.c ****         (void)CY_GET_REG8(Timer_Sonar_COUNTER_LSB_PTR_8BIT);
 110              		.loc 1 308 0
 111 0000 014B     		ldr	r3, .L11
 112 0002 1B78     		ldrb	r3, [r3]	@ zero_extendqisi2
 113 0004 7047     		bx	lr
 114              	.L12:
 115 0006 00BF     		.align	2
 116              	.L11:
 117 0008 04650040 		.word	1073767684
 118              		.cfi_endproc
 119              	.LFE5:
 120              		.size	Timer_Sonar_SoftwareCapture, .-Timer_Sonar_SoftwareCapture
 121              		.section	.text.Timer_Sonar_ReadStatusRegister,"ax",%progbits
 122              		.align	2
 123              		.global	Timer_Sonar_ReadStatusRegister
 124              		.thumb
 125              		.thumb_func
 126              		.type	Timer_Sonar_ReadStatusRegister, %function
 127              	Timer_Sonar_ReadStatusRegister:
 128              	.LFB6:
 309:Generated_Source\PSoC5/Timer_Sonar.c ****     #endif/* (Timer_Sonar_UsingFixedFunction) */
 310:Generated_Source\PSoC5/Timer_Sonar.c ****     /* Capture Data is now in the FIFO */
 311:Generated_Source\PSoC5/Timer_Sonar.c **** }
 312:Generated_Source\PSoC5/Timer_Sonar.c **** 
 313:Generated_Source\PSoC5/Timer_Sonar.c **** 
 314:Generated_Source\PSoC5/Timer_Sonar.c **** /*******************************************************************************
 315:Generated_Source\PSoC5/Timer_Sonar.c **** * Function Name: Timer_Sonar_ReadStatusRegister
 316:Generated_Source\PSoC5/Timer_Sonar.c **** ********************************************************************************
 317:Generated_Source\PSoC5/Timer_Sonar.c **** *
 318:Generated_Source\PSoC5/Timer_Sonar.c **** * Summary:
 319:Generated_Source\PSoC5/Timer_Sonar.c **** *  Reads the status register and returns it's state. This function should use
 320:Generated_Source\PSoC5/Timer_Sonar.c **** *  defined types for the bit-field information as the bits in this register may
 321:Generated_Source\PSoC5/Timer_Sonar.c **** *  be permuteable.
 322:Generated_Source\PSoC5/Timer_Sonar.c **** *
 323:Generated_Source\PSoC5/Timer_Sonar.c **** * Parameters:
 324:Generated_Source\PSoC5/Timer_Sonar.c **** *  void
 325:Generated_Source\PSoC5/Timer_Sonar.c **** *
 326:Generated_Source\PSoC5/Timer_Sonar.c **** * Return:
 327:Generated_Source\PSoC5/Timer_Sonar.c **** *  The contents of the status register
 328:Generated_Source\PSoC5/Timer_Sonar.c **** *
ARM GAS  C:\Users\midtg\AppData\Local\Temp\cc7QPKKD.s 			page 9


 329:Generated_Source\PSoC5/Timer_Sonar.c **** * Side Effects:
 330:Generated_Source\PSoC5/Timer_Sonar.c **** *  Status register bits may be clear on read.
 331:Generated_Source\PSoC5/Timer_Sonar.c **** *
 332:Generated_Source\PSoC5/Timer_Sonar.c **** *******************************************************************************/
 333:Generated_Source\PSoC5/Timer_Sonar.c **** uint8   Timer_Sonar_ReadStatusRegister(void) 
 334:Generated_Source\PSoC5/Timer_Sonar.c **** {
 129              		.loc 1 334 0
 130              		.cfi_startproc
 131              		@ args = 0, pretend = 0, frame = 0
 132              		@ frame_needed = 0, uses_anonymous_args = 0
 133              		@ link register save eliminated.
 335:Generated_Source\PSoC5/Timer_Sonar.c ****     return (Timer_Sonar_STATUS);
 134              		.loc 1 335 0
 135 0000 014B     		ldr	r3, .L14
 136 0002 1878     		ldrb	r0, [r3]	@ zero_extendqisi2
 336:Generated_Source\PSoC5/Timer_Sonar.c **** }
 137              		.loc 1 336 0
 138 0004 7047     		bx	lr
 139              	.L15:
 140 0006 00BF     		.align	2
 141              	.L14:
 142 0008 66650040 		.word	1073767782
 143              		.cfi_endproc
 144              	.LFE6:
 145              		.size	Timer_Sonar_ReadStatusRegister, .-Timer_Sonar_ReadStatusRegister
 146              		.section	.text.Timer_Sonar_ReadControlRegister,"ax",%progbits
 147              		.align	2
 148              		.global	Timer_Sonar_ReadControlRegister
 149              		.thumb
 150              		.thumb_func
 151              		.type	Timer_Sonar_ReadControlRegister, %function
 152              	Timer_Sonar_ReadControlRegister:
 153              	.LFB7:
 337:Generated_Source\PSoC5/Timer_Sonar.c **** 
 338:Generated_Source\PSoC5/Timer_Sonar.c **** 
 339:Generated_Source\PSoC5/Timer_Sonar.c **** #if (!Timer_Sonar_UDB_CONTROL_REG_REMOVED) /* Remove API if control register is unused */
 340:Generated_Source\PSoC5/Timer_Sonar.c **** 
 341:Generated_Source\PSoC5/Timer_Sonar.c **** 
 342:Generated_Source\PSoC5/Timer_Sonar.c **** /*******************************************************************************
 343:Generated_Source\PSoC5/Timer_Sonar.c **** * Function Name: Timer_Sonar_ReadControlRegister
 344:Generated_Source\PSoC5/Timer_Sonar.c **** ********************************************************************************
 345:Generated_Source\PSoC5/Timer_Sonar.c **** *
 346:Generated_Source\PSoC5/Timer_Sonar.c **** * Summary:
 347:Generated_Source\PSoC5/Timer_Sonar.c **** *  Reads the control register and returns it's value.
 348:Generated_Source\PSoC5/Timer_Sonar.c **** *
 349:Generated_Source\PSoC5/Timer_Sonar.c **** * Parameters:
 350:Generated_Source\PSoC5/Timer_Sonar.c **** *  void
 351:Generated_Source\PSoC5/Timer_Sonar.c **** *
 352:Generated_Source\PSoC5/Timer_Sonar.c **** * Return:
 353:Generated_Source\PSoC5/Timer_Sonar.c **** *  The contents of the control register
 354:Generated_Source\PSoC5/Timer_Sonar.c **** *
 355:Generated_Source\PSoC5/Timer_Sonar.c **** *******************************************************************************/
 356:Generated_Source\PSoC5/Timer_Sonar.c **** uint8 Timer_Sonar_ReadControlRegister(void) 
 357:Generated_Source\PSoC5/Timer_Sonar.c **** {
 154              		.loc 1 357 0
 155              		.cfi_startproc
 156              		@ args = 0, pretend = 0, frame = 0
ARM GAS  C:\Users\midtg\AppData\Local\Temp\cc7QPKKD.s 			page 10


 157              		@ frame_needed = 0, uses_anonymous_args = 0
 158              		@ link register save eliminated.
 358:Generated_Source\PSoC5/Timer_Sonar.c ****     #if (!Timer_Sonar_UDB_CONTROL_REG_REMOVED) 
 359:Generated_Source\PSoC5/Timer_Sonar.c ****         return ((uint8)Timer_Sonar_CONTROL);
 159              		.loc 1 359 0
 160 0000 014B     		ldr	r3, .L17
 161 0002 1878     		ldrb	r0, [r3]	@ zero_extendqisi2
 360:Generated_Source\PSoC5/Timer_Sonar.c ****     #else
 361:Generated_Source\PSoC5/Timer_Sonar.c ****         return (0);
 362:Generated_Source\PSoC5/Timer_Sonar.c ****     #endif /* (!Timer_Sonar_UDB_CONTROL_REG_REMOVED) */
 363:Generated_Source\PSoC5/Timer_Sonar.c **** }
 162              		.loc 1 363 0
 163 0004 7047     		bx	lr
 164              	.L18:
 165 0006 00BF     		.align	2
 166              	.L17:
 167 0008 75650040 		.word	1073767797
 168              		.cfi_endproc
 169              	.LFE7:
 170              		.size	Timer_Sonar_ReadControlRegister, .-Timer_Sonar_ReadControlRegister
 171              		.section	.text.Timer_Sonar_WriteControlRegister,"ax",%progbits
 172              		.align	2
 173              		.global	Timer_Sonar_WriteControlRegister
 174              		.thumb
 175              		.thumb_func
 176              		.type	Timer_Sonar_WriteControlRegister, %function
 177              	Timer_Sonar_WriteControlRegister:
 178              	.LFB8:
 364:Generated_Source\PSoC5/Timer_Sonar.c **** 
 365:Generated_Source\PSoC5/Timer_Sonar.c **** 
 366:Generated_Source\PSoC5/Timer_Sonar.c **** /*******************************************************************************
 367:Generated_Source\PSoC5/Timer_Sonar.c **** * Function Name: Timer_Sonar_WriteControlRegister
 368:Generated_Source\PSoC5/Timer_Sonar.c **** ********************************************************************************
 369:Generated_Source\PSoC5/Timer_Sonar.c **** *
 370:Generated_Source\PSoC5/Timer_Sonar.c **** * Summary:
 371:Generated_Source\PSoC5/Timer_Sonar.c **** *  Sets the bit-field of the control register.
 372:Generated_Source\PSoC5/Timer_Sonar.c **** *
 373:Generated_Source\PSoC5/Timer_Sonar.c **** * Parameters:
 374:Generated_Source\PSoC5/Timer_Sonar.c **** *  control: The contents of the control register
 375:Generated_Source\PSoC5/Timer_Sonar.c **** *
 376:Generated_Source\PSoC5/Timer_Sonar.c **** * Return:
 377:Generated_Source\PSoC5/Timer_Sonar.c **** *
 378:Generated_Source\PSoC5/Timer_Sonar.c **** *******************************************************************************/
 379:Generated_Source\PSoC5/Timer_Sonar.c **** void Timer_Sonar_WriteControlRegister(uint8 control) 
 380:Generated_Source\PSoC5/Timer_Sonar.c **** {
 179              		.loc 1 380 0
 180              		.cfi_startproc
 181              		@ args = 0, pretend = 0, frame = 0
 182              		@ frame_needed = 0, uses_anonymous_args = 0
 183              		@ link register save eliminated.
 184              	.LVL1:
 381:Generated_Source\PSoC5/Timer_Sonar.c ****     #if (!Timer_Sonar_UDB_CONTROL_REG_REMOVED) 
 382:Generated_Source\PSoC5/Timer_Sonar.c ****         Timer_Sonar_CONTROL = control;
 185              		.loc 1 382 0
 186 0000 014B     		ldr	r3, .L20
 187 0002 1870     		strb	r0, [r3]
 188 0004 7047     		bx	lr
ARM GAS  C:\Users\midtg\AppData\Local\Temp\cc7QPKKD.s 			page 11


 189              	.L21:
 190 0006 00BF     		.align	2
 191              	.L20:
 192 0008 75650040 		.word	1073767797
 193              		.cfi_endproc
 194              	.LFE8:
 195              		.size	Timer_Sonar_WriteControlRegister, .-Timer_Sonar_WriteControlRegister
 196              		.section	.text.Timer_Sonar_ReadPeriod,"ax",%progbits
 197              		.align	2
 198              		.global	Timer_Sonar_ReadPeriod
 199              		.thumb
 200              		.thumb_func
 201              		.type	Timer_Sonar_ReadPeriod, %function
 202              	Timer_Sonar_ReadPeriod:
 203              	.LFB9:
 383:Generated_Source\PSoC5/Timer_Sonar.c ****     #else
 384:Generated_Source\PSoC5/Timer_Sonar.c ****         control = 0u;
 385:Generated_Source\PSoC5/Timer_Sonar.c ****     #endif /* (!Timer_Sonar_UDB_CONTROL_REG_REMOVED) */
 386:Generated_Source\PSoC5/Timer_Sonar.c **** }
 387:Generated_Source\PSoC5/Timer_Sonar.c **** 
 388:Generated_Source\PSoC5/Timer_Sonar.c **** #endif /* Remove API if control register is unused */
 389:Generated_Source\PSoC5/Timer_Sonar.c **** 
 390:Generated_Source\PSoC5/Timer_Sonar.c **** 
 391:Generated_Source\PSoC5/Timer_Sonar.c **** /*******************************************************************************
 392:Generated_Source\PSoC5/Timer_Sonar.c **** * Function Name: Timer_Sonar_ReadPeriod
 393:Generated_Source\PSoC5/Timer_Sonar.c **** ********************************************************************************
 394:Generated_Source\PSoC5/Timer_Sonar.c **** *
 395:Generated_Source\PSoC5/Timer_Sonar.c **** * Summary:
 396:Generated_Source\PSoC5/Timer_Sonar.c **** *  This function returns the current value of the Period.
 397:Generated_Source\PSoC5/Timer_Sonar.c **** *
 398:Generated_Source\PSoC5/Timer_Sonar.c **** * Parameters:
 399:Generated_Source\PSoC5/Timer_Sonar.c **** *  void
 400:Generated_Source\PSoC5/Timer_Sonar.c **** *
 401:Generated_Source\PSoC5/Timer_Sonar.c **** * Return:
 402:Generated_Source\PSoC5/Timer_Sonar.c **** *  The present value of the counter.
 403:Generated_Source\PSoC5/Timer_Sonar.c **** *
 404:Generated_Source\PSoC5/Timer_Sonar.c **** *******************************************************************************/
 405:Generated_Source\PSoC5/Timer_Sonar.c **** uint32 Timer_Sonar_ReadPeriod(void) 
 406:Generated_Source\PSoC5/Timer_Sonar.c **** {
 204              		.loc 1 406 0
 205              		.cfi_startproc
 206              		@ args = 0, pretend = 0, frame = 0
 207              		@ frame_needed = 0, uses_anonymous_args = 0
 208              		@ link register save eliminated.
 407:Generated_Source\PSoC5/Timer_Sonar.c ****    #if(Timer_Sonar_UsingFixedFunction)
 408:Generated_Source\PSoC5/Timer_Sonar.c ****        return ((uint32)CY_GET_REG16(Timer_Sonar_PERIOD_LSB_PTR));
 409:Generated_Source\PSoC5/Timer_Sonar.c ****    #else
 410:Generated_Source\PSoC5/Timer_Sonar.c ****        return (CY_GET_REG24(Timer_Sonar_PERIOD_LSB_PTR));
 209              		.loc 1 410 0
 210 0000 024B     		ldr	r3, .L23
 211 0002 1868     		ldr	r0, [r3]
 411:Generated_Source\PSoC5/Timer_Sonar.c ****    #endif /* (Timer_Sonar_UsingFixedFunction) */
 412:Generated_Source\PSoC5/Timer_Sonar.c **** }
 212              		.loc 1 412 0
 213 0004 20F07F40 		bic	r0, r0, #-16777216
 214 0008 7047     		bx	lr
 215              	.L24:
ARM GAS  C:\Users\midtg\AppData\Local\Temp\cc7QPKKD.s 			page 12


 216 000a 00BF     		.align	2
 217              	.L23:
 218 000c 24650040 		.word	1073767716
 219              		.cfi_endproc
 220              	.LFE9:
 221              		.size	Timer_Sonar_ReadPeriod, .-Timer_Sonar_ReadPeriod
 222              		.section	.text.Timer_Sonar_WritePeriod,"ax",%progbits
 223              		.align	2
 224              		.global	Timer_Sonar_WritePeriod
 225              		.thumb
 226              		.thumb_func
 227              		.type	Timer_Sonar_WritePeriod, %function
 228              	Timer_Sonar_WritePeriod:
 229              	.LFB10:
 413:Generated_Source\PSoC5/Timer_Sonar.c **** 
 414:Generated_Source\PSoC5/Timer_Sonar.c **** 
 415:Generated_Source\PSoC5/Timer_Sonar.c **** /*******************************************************************************
 416:Generated_Source\PSoC5/Timer_Sonar.c **** * Function Name: Timer_Sonar_WritePeriod
 417:Generated_Source\PSoC5/Timer_Sonar.c **** ********************************************************************************
 418:Generated_Source\PSoC5/Timer_Sonar.c **** *
 419:Generated_Source\PSoC5/Timer_Sonar.c **** * Summary:
 420:Generated_Source\PSoC5/Timer_Sonar.c **** *  This function is used to change the period of the counter.  The new period
 421:Generated_Source\PSoC5/Timer_Sonar.c **** *  will be loaded the next time terminal count is detected.
 422:Generated_Source\PSoC5/Timer_Sonar.c **** *
 423:Generated_Source\PSoC5/Timer_Sonar.c **** * Parameters:
 424:Generated_Source\PSoC5/Timer_Sonar.c **** *  period: This value may be between 1 and (2^Resolution)-1.  A value of 0 will
 425:Generated_Source\PSoC5/Timer_Sonar.c **** *          result in the counter remaining at zero.
 426:Generated_Source\PSoC5/Timer_Sonar.c **** *
 427:Generated_Source\PSoC5/Timer_Sonar.c **** * Return:
 428:Generated_Source\PSoC5/Timer_Sonar.c **** *  void
 429:Generated_Source\PSoC5/Timer_Sonar.c **** *
 430:Generated_Source\PSoC5/Timer_Sonar.c **** *******************************************************************************/
 431:Generated_Source\PSoC5/Timer_Sonar.c **** void Timer_Sonar_WritePeriod(uint32 period) 
 432:Generated_Source\PSoC5/Timer_Sonar.c **** {
 230              		.loc 1 432 0
 231              		.cfi_startproc
 232              		@ args = 0, pretend = 0, frame = 0
 233              		@ frame_needed = 0, uses_anonymous_args = 0
 234              	.LVL2:
 235 0000 08B5     		push	{r3, lr}
 236              		.cfi_def_cfa_offset 8
 237              		.cfi_offset 3, -8
 238              		.cfi_offset 14, -4
 433:Generated_Source\PSoC5/Timer_Sonar.c ****     #if(Timer_Sonar_UsingFixedFunction)
 434:Generated_Source\PSoC5/Timer_Sonar.c ****         uint16 period_temp = (uint16)period;
 435:Generated_Source\PSoC5/Timer_Sonar.c ****         CY_SET_REG16(Timer_Sonar_PERIOD_LSB_PTR, period_temp);
 436:Generated_Source\PSoC5/Timer_Sonar.c ****     #else
 437:Generated_Source\PSoC5/Timer_Sonar.c ****         CY_SET_REG24(Timer_Sonar_PERIOD_LSB_PTR, period);
 239              		.loc 1 437 0
 240 0002 0146     		mov	r1, r0
 241 0004 0148     		ldr	r0, .L27
 242              	.LVL3:
 243 0006 FFF7FEFF 		bl	CySetReg24
 244              	.LVL4:
 245 000a 08BD     		pop	{r3, pc}
 246              	.L28:
 247              		.align	2
ARM GAS  C:\Users\midtg\AppData\Local\Temp\cc7QPKKD.s 			page 13


 248              	.L27:
 249 000c 24650040 		.word	1073767716
 250              		.cfi_endproc
 251              	.LFE10:
 252              		.size	Timer_Sonar_WritePeriod, .-Timer_Sonar_WritePeriod
 253              		.section	.text.Timer_Sonar_ReadCapture,"ax",%progbits
 254              		.align	2
 255              		.global	Timer_Sonar_ReadCapture
 256              		.thumb
 257              		.thumb_func
 258              		.type	Timer_Sonar_ReadCapture, %function
 259              	Timer_Sonar_ReadCapture:
 260              	.LFB11:
 438:Generated_Source\PSoC5/Timer_Sonar.c ****     #endif /*Write Period value with appropriate resolution suffix depending on UDB or fixed functi
 439:Generated_Source\PSoC5/Timer_Sonar.c **** }
 440:Generated_Source\PSoC5/Timer_Sonar.c **** 
 441:Generated_Source\PSoC5/Timer_Sonar.c **** 
 442:Generated_Source\PSoC5/Timer_Sonar.c **** /*******************************************************************************
 443:Generated_Source\PSoC5/Timer_Sonar.c **** * Function Name: Timer_Sonar_ReadCapture
 444:Generated_Source\PSoC5/Timer_Sonar.c **** ********************************************************************************
 445:Generated_Source\PSoC5/Timer_Sonar.c **** *
 446:Generated_Source\PSoC5/Timer_Sonar.c **** * Summary:
 447:Generated_Source\PSoC5/Timer_Sonar.c **** *  This function returns the last value captured.
 448:Generated_Source\PSoC5/Timer_Sonar.c **** *
 449:Generated_Source\PSoC5/Timer_Sonar.c **** * Parameters:
 450:Generated_Source\PSoC5/Timer_Sonar.c **** *  void
 451:Generated_Source\PSoC5/Timer_Sonar.c **** *
 452:Generated_Source\PSoC5/Timer_Sonar.c **** * Return:
 453:Generated_Source\PSoC5/Timer_Sonar.c **** *  Present Capture value.
 454:Generated_Source\PSoC5/Timer_Sonar.c **** *
 455:Generated_Source\PSoC5/Timer_Sonar.c **** *******************************************************************************/
 456:Generated_Source\PSoC5/Timer_Sonar.c **** uint32 Timer_Sonar_ReadCapture(void) 
 457:Generated_Source\PSoC5/Timer_Sonar.c **** {
 261              		.loc 1 457 0
 262              		.cfi_startproc
 263              		@ args = 0, pretend = 0, frame = 0
 264              		@ frame_needed = 0, uses_anonymous_args = 0
 265              		@ link register save eliminated.
 458:Generated_Source\PSoC5/Timer_Sonar.c ****    #if(Timer_Sonar_UsingFixedFunction)
 459:Generated_Source\PSoC5/Timer_Sonar.c ****        return ((uint32)CY_GET_REG16(Timer_Sonar_CAPTURE_LSB_PTR));
 460:Generated_Source\PSoC5/Timer_Sonar.c ****    #else
 461:Generated_Source\PSoC5/Timer_Sonar.c ****        return (CY_GET_REG24(Timer_Sonar_CAPTURE_LSB_PTR));
 266              		.loc 1 461 0
 267 0000 024B     		ldr	r3, .L30
 268 0002 1868     		ldr	r0, [r3]
 462:Generated_Source\PSoC5/Timer_Sonar.c ****    #endif /* (Timer_Sonar_UsingFixedFunction) */
 463:Generated_Source\PSoC5/Timer_Sonar.c **** }
 269              		.loc 1 463 0
 270 0004 20F07F40 		bic	r0, r0, #-16777216
 271 0008 7047     		bx	lr
 272              	.L31:
 273 000a 00BF     		.align	2
 274              	.L30:
 275 000c 44650040 		.word	1073767748
 276              		.cfi_endproc
 277              	.LFE11:
 278              		.size	Timer_Sonar_ReadCapture, .-Timer_Sonar_ReadCapture
ARM GAS  C:\Users\midtg\AppData\Local\Temp\cc7QPKKD.s 			page 14


 279              		.section	.text.Timer_Sonar_WriteCounter,"ax",%progbits
 280              		.align	2
 281              		.global	Timer_Sonar_WriteCounter
 282              		.thumb
 283              		.thumb_func
 284              		.type	Timer_Sonar_WriteCounter, %function
 285              	Timer_Sonar_WriteCounter:
 286              	.LFB12:
 464:Generated_Source\PSoC5/Timer_Sonar.c **** 
 465:Generated_Source\PSoC5/Timer_Sonar.c **** 
 466:Generated_Source\PSoC5/Timer_Sonar.c **** /*******************************************************************************
 467:Generated_Source\PSoC5/Timer_Sonar.c **** * Function Name: Timer_Sonar_WriteCounter
 468:Generated_Source\PSoC5/Timer_Sonar.c **** ********************************************************************************
 469:Generated_Source\PSoC5/Timer_Sonar.c **** *
 470:Generated_Source\PSoC5/Timer_Sonar.c **** * Summary:
 471:Generated_Source\PSoC5/Timer_Sonar.c **** *  This funtion is used to set the counter to a specific value
 472:Generated_Source\PSoC5/Timer_Sonar.c **** *
 473:Generated_Source\PSoC5/Timer_Sonar.c **** * Parameters:
 474:Generated_Source\PSoC5/Timer_Sonar.c **** *  counter:  New counter value.
 475:Generated_Source\PSoC5/Timer_Sonar.c **** *
 476:Generated_Source\PSoC5/Timer_Sonar.c **** * Return:
 477:Generated_Source\PSoC5/Timer_Sonar.c **** *  void
 478:Generated_Source\PSoC5/Timer_Sonar.c **** *
 479:Generated_Source\PSoC5/Timer_Sonar.c **** *******************************************************************************/
 480:Generated_Source\PSoC5/Timer_Sonar.c **** void Timer_Sonar_WriteCounter(uint32 counter) 
 481:Generated_Source\PSoC5/Timer_Sonar.c **** {
 287              		.loc 1 481 0
 288              		.cfi_startproc
 289              		@ args = 0, pretend = 0, frame = 0
 290              		@ frame_needed = 0, uses_anonymous_args = 0
 291              	.LVL5:
 292 0000 08B5     		push	{r3, lr}
 293              		.cfi_def_cfa_offset 8
 294              		.cfi_offset 3, -8
 295              		.cfi_offset 14, -4
 482:Generated_Source\PSoC5/Timer_Sonar.c ****    #if(Timer_Sonar_UsingFixedFunction)
 483:Generated_Source\PSoC5/Timer_Sonar.c ****         /* This functionality is removed until a FixedFunction HW update to
 484:Generated_Source\PSoC5/Timer_Sonar.c ****          * allow this register to be written
 485:Generated_Source\PSoC5/Timer_Sonar.c ****          */
 486:Generated_Source\PSoC5/Timer_Sonar.c ****         CY_SET_REG16(Timer_Sonar_COUNTER_LSB_PTR, (uint16)counter);
 487:Generated_Source\PSoC5/Timer_Sonar.c ****         
 488:Generated_Source\PSoC5/Timer_Sonar.c ****     #else
 489:Generated_Source\PSoC5/Timer_Sonar.c ****         CY_SET_REG24(Timer_Sonar_COUNTER_LSB_PTR, counter);
 296              		.loc 1 489 0
 297 0002 0146     		mov	r1, r0
 298 0004 0148     		ldr	r0, .L34
 299              	.LVL6:
 300 0006 FFF7FEFF 		bl	CySetReg24
 301              	.LVL7:
 302 000a 08BD     		pop	{r3, pc}
 303              	.L35:
 304              		.align	2
 305              	.L34:
 306 000c 04650040 		.word	1073767684
 307              		.cfi_endproc
 308              	.LFE12:
 309              		.size	Timer_Sonar_WriteCounter, .-Timer_Sonar_WriteCounter
ARM GAS  C:\Users\midtg\AppData\Local\Temp\cc7QPKKD.s 			page 15


 310              		.section	.text.Timer_Sonar_ReadCounter,"ax",%progbits
 311              		.align	2
 312              		.global	Timer_Sonar_ReadCounter
 313              		.thumb
 314              		.thumb_func
 315              		.type	Timer_Sonar_ReadCounter, %function
 316              	Timer_Sonar_ReadCounter:
 317              	.LFB13:
 490:Generated_Source\PSoC5/Timer_Sonar.c ****     #endif /* Set Write Counter only for the UDB implementation (Write Counter not available in fix
 491:Generated_Source\PSoC5/Timer_Sonar.c **** }
 492:Generated_Source\PSoC5/Timer_Sonar.c **** 
 493:Generated_Source\PSoC5/Timer_Sonar.c **** 
 494:Generated_Source\PSoC5/Timer_Sonar.c **** /*******************************************************************************
 495:Generated_Source\PSoC5/Timer_Sonar.c **** * Function Name: Timer_Sonar_ReadCounter
 496:Generated_Source\PSoC5/Timer_Sonar.c **** ********************************************************************************
 497:Generated_Source\PSoC5/Timer_Sonar.c **** *
 498:Generated_Source\PSoC5/Timer_Sonar.c **** * Summary:
 499:Generated_Source\PSoC5/Timer_Sonar.c **** *  This function returns the current counter value.
 500:Generated_Source\PSoC5/Timer_Sonar.c **** *
 501:Generated_Source\PSoC5/Timer_Sonar.c **** * Parameters:
 502:Generated_Source\PSoC5/Timer_Sonar.c **** *  void
 503:Generated_Source\PSoC5/Timer_Sonar.c **** *
 504:Generated_Source\PSoC5/Timer_Sonar.c **** * Return:
 505:Generated_Source\PSoC5/Timer_Sonar.c **** *  Present compare value.
 506:Generated_Source\PSoC5/Timer_Sonar.c **** *
 507:Generated_Source\PSoC5/Timer_Sonar.c **** *******************************************************************************/
 508:Generated_Source\PSoC5/Timer_Sonar.c **** uint32 Timer_Sonar_ReadCounter(void) 
 509:Generated_Source\PSoC5/Timer_Sonar.c **** {
 318              		.loc 1 509 0
 319              		.cfi_startproc
 320              		@ args = 0, pretend = 0, frame = 0
 321              		@ frame_needed = 0, uses_anonymous_args = 0
 322              		@ link register save eliminated.
 510:Generated_Source\PSoC5/Timer_Sonar.c ****     /* Force capture by reading Accumulator */
 511:Generated_Source\PSoC5/Timer_Sonar.c ****     /* Must first do a software capture to be able to read the counter */
 512:Generated_Source\PSoC5/Timer_Sonar.c ****     /* It is up to the user code to make sure there isn't already captured data in the FIFO */
 513:Generated_Source\PSoC5/Timer_Sonar.c ****     #if(Timer_Sonar_UsingFixedFunction)
 514:Generated_Source\PSoC5/Timer_Sonar.c ****         (void)CY_GET_REG16(Timer_Sonar_COUNTER_LSB_PTR);
 515:Generated_Source\PSoC5/Timer_Sonar.c ****     #else
 516:Generated_Source\PSoC5/Timer_Sonar.c ****         (void)CY_GET_REG8(Timer_Sonar_COUNTER_LSB_PTR_8BIT);
 323              		.loc 1 516 0
 324 0000 034B     		ldr	r3, .L37
 325 0002 1B78     		ldrb	r3, [r3]	@ zero_extendqisi2
 517:Generated_Source\PSoC5/Timer_Sonar.c ****     #endif/* (Timer_Sonar_UsingFixedFunction) */
 518:Generated_Source\PSoC5/Timer_Sonar.c **** 
 519:Generated_Source\PSoC5/Timer_Sonar.c ****     /* Read the data from the FIFO (or capture register for Fixed Function)*/
 520:Generated_Source\PSoC5/Timer_Sonar.c ****     #if(Timer_Sonar_UsingFixedFunction)
 521:Generated_Source\PSoC5/Timer_Sonar.c ****         return ((uint32)CY_GET_REG16(Timer_Sonar_CAPTURE_LSB_PTR));
 522:Generated_Source\PSoC5/Timer_Sonar.c ****     #else
 523:Generated_Source\PSoC5/Timer_Sonar.c ****         return (CY_GET_REG24(Timer_Sonar_CAPTURE_LSB_PTR));
 326              		.loc 1 523 0
 327 0004 034B     		ldr	r3, .L37+4
 328 0006 1868     		ldr	r0, [r3]
 524:Generated_Source\PSoC5/Timer_Sonar.c ****     #endif /* (Timer_Sonar_UsingFixedFunction) */
 525:Generated_Source\PSoC5/Timer_Sonar.c **** }
 329              		.loc 1 525 0
 330 0008 20F07F40 		bic	r0, r0, #-16777216
ARM GAS  C:\Users\midtg\AppData\Local\Temp\cc7QPKKD.s 			page 16


 331 000c 7047     		bx	lr
 332              	.L38:
 333 000e 00BF     		.align	2
 334              	.L37:
 335 0010 04650040 		.word	1073767684
 336 0014 44650040 		.word	1073767748
 337              		.cfi_endproc
 338              	.LFE13:
 339              		.size	Timer_Sonar_ReadCounter, .-Timer_Sonar_ReadCounter
 340              		.section	.text.Timer_Sonar_ClearFIFO,"ax",%progbits
 341              		.align	2
 342              		.global	Timer_Sonar_ClearFIFO
 343              		.thumb
 344              		.thumb_func
 345              		.type	Timer_Sonar_ClearFIFO, %function
 346              	Timer_Sonar_ClearFIFO:
 347              	.LFB14:
 526:Generated_Source\PSoC5/Timer_Sonar.c **** 
 527:Generated_Source\PSoC5/Timer_Sonar.c **** 
 528:Generated_Source\PSoC5/Timer_Sonar.c **** #if(!Timer_Sonar_UsingFixedFunction) /* UDB Specific Functions */
 529:Generated_Source\PSoC5/Timer_Sonar.c **** 
 530:Generated_Source\PSoC5/Timer_Sonar.c ****     
 531:Generated_Source\PSoC5/Timer_Sonar.c **** /*******************************************************************************
 532:Generated_Source\PSoC5/Timer_Sonar.c ****  * The functions below this point are only available using the UDB
 533:Generated_Source\PSoC5/Timer_Sonar.c ****  * implementation.  If a feature is selected, then the API is enabled.
 534:Generated_Source\PSoC5/Timer_Sonar.c ****  ******************************************************************************/
 535:Generated_Source\PSoC5/Timer_Sonar.c **** 
 536:Generated_Source\PSoC5/Timer_Sonar.c **** 
 537:Generated_Source\PSoC5/Timer_Sonar.c **** #if (Timer_Sonar_SoftwareCaptureMode)
 538:Generated_Source\PSoC5/Timer_Sonar.c **** 
 539:Generated_Source\PSoC5/Timer_Sonar.c **** 
 540:Generated_Source\PSoC5/Timer_Sonar.c **** /*******************************************************************************
 541:Generated_Source\PSoC5/Timer_Sonar.c **** * Function Name: Timer_Sonar_SetCaptureMode
 542:Generated_Source\PSoC5/Timer_Sonar.c **** ********************************************************************************
 543:Generated_Source\PSoC5/Timer_Sonar.c **** *
 544:Generated_Source\PSoC5/Timer_Sonar.c **** * Summary:
 545:Generated_Source\PSoC5/Timer_Sonar.c **** *  This function sets the capture mode to either rising or falling edge.
 546:Generated_Source\PSoC5/Timer_Sonar.c **** *
 547:Generated_Source\PSoC5/Timer_Sonar.c **** * Parameters:
 548:Generated_Source\PSoC5/Timer_Sonar.c **** *  captureMode: This parameter sets the capture mode of the UDB capture feature
 549:Generated_Source\PSoC5/Timer_Sonar.c **** *  The parameter values are defined using the
 550:Generated_Source\PSoC5/Timer_Sonar.c **** *  #define Timer_Sonar__B_TIMER__CM_NONE 0
 551:Generated_Source\PSoC5/Timer_Sonar.c **** #define Timer_Sonar__B_TIMER__CM_RISINGEDGE 1
 552:Generated_Source\PSoC5/Timer_Sonar.c **** #define Timer_Sonar__B_TIMER__CM_FALLINGEDGE 2
 553:Generated_Source\PSoC5/Timer_Sonar.c **** #define Timer_Sonar__B_TIMER__CM_EITHEREDGE 3
 554:Generated_Source\PSoC5/Timer_Sonar.c **** #define Timer_Sonar__B_TIMER__CM_SOFTWARE 4
 555:Generated_Source\PSoC5/Timer_Sonar.c ****  identifiers
 556:Generated_Source\PSoC5/Timer_Sonar.c **** *  The following are the possible values of the parameter
 557:Generated_Source\PSoC5/Timer_Sonar.c **** *  Timer_Sonar__B_TIMER__CM_NONE        - Set Capture mode to None
 558:Generated_Source\PSoC5/Timer_Sonar.c **** *  Timer_Sonar__B_TIMER__CM_RISINGEDGE  - Rising edge of Capture input
 559:Generated_Source\PSoC5/Timer_Sonar.c **** *  Timer_Sonar__B_TIMER__CM_FALLINGEDGE - Falling edge of Capture input
 560:Generated_Source\PSoC5/Timer_Sonar.c **** *  Timer_Sonar__B_TIMER__CM_EITHEREDGE  - Either edge of Capture input
 561:Generated_Source\PSoC5/Timer_Sonar.c **** *
 562:Generated_Source\PSoC5/Timer_Sonar.c **** * Return:
 563:Generated_Source\PSoC5/Timer_Sonar.c **** *  void
 564:Generated_Source\PSoC5/Timer_Sonar.c **** *
 565:Generated_Source\PSoC5/Timer_Sonar.c **** *******************************************************************************/
ARM GAS  C:\Users\midtg\AppData\Local\Temp\cc7QPKKD.s 			page 17


 566:Generated_Source\PSoC5/Timer_Sonar.c **** void Timer_Sonar_SetCaptureMode(uint8 captureMode) 
 567:Generated_Source\PSoC5/Timer_Sonar.c **** {
 568:Generated_Source\PSoC5/Timer_Sonar.c ****     /* This must only set to two bits of the control register associated */
 569:Generated_Source\PSoC5/Timer_Sonar.c ****     captureMode = ((uint8)((uint8)captureMode << Timer_Sonar_CTRL_CAP_MODE_SHIFT));
 570:Generated_Source\PSoC5/Timer_Sonar.c ****     captureMode &= (Timer_Sonar_CTRL_CAP_MODE_MASK);
 571:Generated_Source\PSoC5/Timer_Sonar.c **** 
 572:Generated_Source\PSoC5/Timer_Sonar.c ****     #if (!Timer_Sonar_UDB_CONTROL_REG_REMOVED)
 573:Generated_Source\PSoC5/Timer_Sonar.c ****         /* Clear the Current Setting */
 574:Generated_Source\PSoC5/Timer_Sonar.c ****         Timer_Sonar_CONTROL &= ((uint8)(~Timer_Sonar_CTRL_CAP_MODE_MASK));
 575:Generated_Source\PSoC5/Timer_Sonar.c **** 
 576:Generated_Source\PSoC5/Timer_Sonar.c ****         /* Write The New Setting */
 577:Generated_Source\PSoC5/Timer_Sonar.c ****         Timer_Sonar_CONTROL |= captureMode;
 578:Generated_Source\PSoC5/Timer_Sonar.c ****     #endif /* (!Timer_Sonar_UDB_CONTROL_REG_REMOVED) */
 579:Generated_Source\PSoC5/Timer_Sonar.c **** }
 580:Generated_Source\PSoC5/Timer_Sonar.c **** #endif /* Remove API if Capture Mode is not Software Controlled */
 581:Generated_Source\PSoC5/Timer_Sonar.c **** 
 582:Generated_Source\PSoC5/Timer_Sonar.c **** 
 583:Generated_Source\PSoC5/Timer_Sonar.c **** #if (Timer_Sonar_SoftwareTriggerMode)
 584:Generated_Source\PSoC5/Timer_Sonar.c **** 
 585:Generated_Source\PSoC5/Timer_Sonar.c **** 
 586:Generated_Source\PSoC5/Timer_Sonar.c **** /*******************************************************************************
 587:Generated_Source\PSoC5/Timer_Sonar.c **** * Function Name: Timer_Sonar_SetTriggerMode
 588:Generated_Source\PSoC5/Timer_Sonar.c **** ********************************************************************************
 589:Generated_Source\PSoC5/Timer_Sonar.c **** *
 590:Generated_Source\PSoC5/Timer_Sonar.c **** * Summary:
 591:Generated_Source\PSoC5/Timer_Sonar.c **** *  This function sets the trigger input mode
 592:Generated_Source\PSoC5/Timer_Sonar.c **** *
 593:Generated_Source\PSoC5/Timer_Sonar.c **** * Parameters:
 594:Generated_Source\PSoC5/Timer_Sonar.c **** *  triggerMode: Pass one of the pre-defined Trigger Modes (except Software)
 595:Generated_Source\PSoC5/Timer_Sonar.c ****     #define Timer_Sonar__B_TIMER__TM_NONE 0x00u
 596:Generated_Source\PSoC5/Timer_Sonar.c ****     #define Timer_Sonar__B_TIMER__TM_RISINGEDGE 0x04u
 597:Generated_Source\PSoC5/Timer_Sonar.c ****     #define Timer_Sonar__B_TIMER__TM_FALLINGEDGE 0x08u
 598:Generated_Source\PSoC5/Timer_Sonar.c ****     #define Timer_Sonar__B_TIMER__TM_EITHEREDGE 0x0Cu
 599:Generated_Source\PSoC5/Timer_Sonar.c ****     #define Timer_Sonar__B_TIMER__TM_SOFTWARE 0x10u
 600:Generated_Source\PSoC5/Timer_Sonar.c **** *
 601:Generated_Source\PSoC5/Timer_Sonar.c **** * Return:
 602:Generated_Source\PSoC5/Timer_Sonar.c **** *  void
 603:Generated_Source\PSoC5/Timer_Sonar.c **** *
 604:Generated_Source\PSoC5/Timer_Sonar.c **** *******************************************************************************/
 605:Generated_Source\PSoC5/Timer_Sonar.c **** void Timer_Sonar_SetTriggerMode(uint8 triggerMode) 
 606:Generated_Source\PSoC5/Timer_Sonar.c **** {
 607:Generated_Source\PSoC5/Timer_Sonar.c ****     /* This must only set to two bits of the control register associated */
 608:Generated_Source\PSoC5/Timer_Sonar.c ****     triggerMode &= Timer_Sonar_CTRL_TRIG_MODE_MASK;
 609:Generated_Source\PSoC5/Timer_Sonar.c **** 
 610:Generated_Source\PSoC5/Timer_Sonar.c ****     #if (!Timer_Sonar_UDB_CONTROL_REG_REMOVED)   /* Remove assignment if control register is remove
 611:Generated_Source\PSoC5/Timer_Sonar.c ****     
 612:Generated_Source\PSoC5/Timer_Sonar.c ****         /* Clear the Current Setting */
 613:Generated_Source\PSoC5/Timer_Sonar.c ****         Timer_Sonar_CONTROL &= ((uint8)(~Timer_Sonar_CTRL_TRIG_MODE_MASK));
 614:Generated_Source\PSoC5/Timer_Sonar.c **** 
 615:Generated_Source\PSoC5/Timer_Sonar.c ****         /* Write The New Setting */
 616:Generated_Source\PSoC5/Timer_Sonar.c ****         Timer_Sonar_CONTROL |= (triggerMode | Timer_Sonar__B_TIMER__TM_SOFTWARE);
 617:Generated_Source\PSoC5/Timer_Sonar.c ****     #endif /* Remove code section if control register is not used */
 618:Generated_Source\PSoC5/Timer_Sonar.c **** }
 619:Generated_Source\PSoC5/Timer_Sonar.c **** #endif /* Remove API if Trigger Mode is not Software Controlled */
 620:Generated_Source\PSoC5/Timer_Sonar.c **** 
 621:Generated_Source\PSoC5/Timer_Sonar.c **** #if (Timer_Sonar_EnableTriggerMode)
 622:Generated_Source\PSoC5/Timer_Sonar.c **** 
ARM GAS  C:\Users\midtg\AppData\Local\Temp\cc7QPKKD.s 			page 18


 623:Generated_Source\PSoC5/Timer_Sonar.c **** 
 624:Generated_Source\PSoC5/Timer_Sonar.c **** /*******************************************************************************
 625:Generated_Source\PSoC5/Timer_Sonar.c **** * Function Name: Timer_Sonar_EnableTrigger
 626:Generated_Source\PSoC5/Timer_Sonar.c **** ********************************************************************************
 627:Generated_Source\PSoC5/Timer_Sonar.c **** *
 628:Generated_Source\PSoC5/Timer_Sonar.c **** * Summary:
 629:Generated_Source\PSoC5/Timer_Sonar.c **** *  Sets the control bit enabling Hardware Trigger mode
 630:Generated_Source\PSoC5/Timer_Sonar.c **** *
 631:Generated_Source\PSoC5/Timer_Sonar.c **** * Parameters:
 632:Generated_Source\PSoC5/Timer_Sonar.c **** *  void
 633:Generated_Source\PSoC5/Timer_Sonar.c **** *
 634:Generated_Source\PSoC5/Timer_Sonar.c **** * Return:
 635:Generated_Source\PSoC5/Timer_Sonar.c **** *  void
 636:Generated_Source\PSoC5/Timer_Sonar.c **** *
 637:Generated_Source\PSoC5/Timer_Sonar.c **** *******************************************************************************/
 638:Generated_Source\PSoC5/Timer_Sonar.c **** void Timer_Sonar_EnableTrigger(void) 
 639:Generated_Source\PSoC5/Timer_Sonar.c **** {
 640:Generated_Source\PSoC5/Timer_Sonar.c ****     #if (!Timer_Sonar_UDB_CONTROL_REG_REMOVED)   /* Remove assignment if control register is remove
 641:Generated_Source\PSoC5/Timer_Sonar.c ****         Timer_Sonar_CONTROL |= Timer_Sonar_CTRL_TRIG_EN;
 642:Generated_Source\PSoC5/Timer_Sonar.c ****     #endif /* Remove code section if control register is not used */
 643:Generated_Source\PSoC5/Timer_Sonar.c **** }
 644:Generated_Source\PSoC5/Timer_Sonar.c **** 
 645:Generated_Source\PSoC5/Timer_Sonar.c **** 
 646:Generated_Source\PSoC5/Timer_Sonar.c **** /*******************************************************************************
 647:Generated_Source\PSoC5/Timer_Sonar.c **** * Function Name: Timer_Sonar_DisableTrigger
 648:Generated_Source\PSoC5/Timer_Sonar.c **** ********************************************************************************
 649:Generated_Source\PSoC5/Timer_Sonar.c **** *
 650:Generated_Source\PSoC5/Timer_Sonar.c **** * Summary:
 651:Generated_Source\PSoC5/Timer_Sonar.c **** *  Clears the control bit enabling Hardware Trigger mode
 652:Generated_Source\PSoC5/Timer_Sonar.c **** *
 653:Generated_Source\PSoC5/Timer_Sonar.c **** * Parameters:
 654:Generated_Source\PSoC5/Timer_Sonar.c **** *  void
 655:Generated_Source\PSoC5/Timer_Sonar.c **** *
 656:Generated_Source\PSoC5/Timer_Sonar.c **** * Return:
 657:Generated_Source\PSoC5/Timer_Sonar.c **** *  void
 658:Generated_Source\PSoC5/Timer_Sonar.c **** *
 659:Generated_Source\PSoC5/Timer_Sonar.c **** *******************************************************************************/
 660:Generated_Source\PSoC5/Timer_Sonar.c **** void Timer_Sonar_DisableTrigger(void) 
 661:Generated_Source\PSoC5/Timer_Sonar.c **** {
 662:Generated_Source\PSoC5/Timer_Sonar.c ****     #if (!Timer_Sonar_UDB_CONTROL_REG_REMOVED )   /* Remove assignment if control register is remov
 663:Generated_Source\PSoC5/Timer_Sonar.c ****         Timer_Sonar_CONTROL &= ((uint8)(~Timer_Sonar_CTRL_TRIG_EN));
 664:Generated_Source\PSoC5/Timer_Sonar.c ****     #endif /* Remove code section if control register is not used */
 665:Generated_Source\PSoC5/Timer_Sonar.c **** }
 666:Generated_Source\PSoC5/Timer_Sonar.c **** #endif /* Remove API is Trigger Mode is set to None */
 667:Generated_Source\PSoC5/Timer_Sonar.c **** 
 668:Generated_Source\PSoC5/Timer_Sonar.c **** #if(Timer_Sonar_InterruptOnCaptureCount)
 669:Generated_Source\PSoC5/Timer_Sonar.c **** 
 670:Generated_Source\PSoC5/Timer_Sonar.c **** 
 671:Generated_Source\PSoC5/Timer_Sonar.c **** /*******************************************************************************
 672:Generated_Source\PSoC5/Timer_Sonar.c **** * Function Name: Timer_Sonar_SetInterruptCount
 673:Generated_Source\PSoC5/Timer_Sonar.c **** ********************************************************************************
 674:Generated_Source\PSoC5/Timer_Sonar.c **** *
 675:Generated_Source\PSoC5/Timer_Sonar.c **** * Summary:
 676:Generated_Source\PSoC5/Timer_Sonar.c **** *  This function sets the capture count before an interrupt is triggered.
 677:Generated_Source\PSoC5/Timer_Sonar.c **** *
 678:Generated_Source\PSoC5/Timer_Sonar.c **** * Parameters:
 679:Generated_Source\PSoC5/Timer_Sonar.c **** *  interruptCount:  A value between 0 and 3 is valid.  If the value is 0, then
ARM GAS  C:\Users\midtg\AppData\Local\Temp\cc7QPKKD.s 			page 19


 680:Generated_Source\PSoC5/Timer_Sonar.c **** *                   an interrupt will occur each time a capture occurs.
 681:Generated_Source\PSoC5/Timer_Sonar.c **** *                   A value of 1 to 3 will cause the interrupt
 682:Generated_Source\PSoC5/Timer_Sonar.c **** *                   to delay by the same number of captures.
 683:Generated_Source\PSoC5/Timer_Sonar.c **** *
 684:Generated_Source\PSoC5/Timer_Sonar.c **** * Return:
 685:Generated_Source\PSoC5/Timer_Sonar.c **** *  void
 686:Generated_Source\PSoC5/Timer_Sonar.c **** *
 687:Generated_Source\PSoC5/Timer_Sonar.c **** *******************************************************************************/
 688:Generated_Source\PSoC5/Timer_Sonar.c **** void Timer_Sonar_SetInterruptCount(uint8 interruptCount) 
 689:Generated_Source\PSoC5/Timer_Sonar.c **** {
 690:Generated_Source\PSoC5/Timer_Sonar.c ****     /* This must only set to two bits of the control register associated */
 691:Generated_Source\PSoC5/Timer_Sonar.c ****     interruptCount &= Timer_Sonar_CTRL_INTCNT_MASK;
 692:Generated_Source\PSoC5/Timer_Sonar.c **** 
 693:Generated_Source\PSoC5/Timer_Sonar.c ****     #if (!Timer_Sonar_UDB_CONTROL_REG_REMOVED)
 694:Generated_Source\PSoC5/Timer_Sonar.c ****         /* Clear the Current Setting */
 695:Generated_Source\PSoC5/Timer_Sonar.c ****         Timer_Sonar_CONTROL &= ((uint8)(~Timer_Sonar_CTRL_INTCNT_MASK));
 696:Generated_Source\PSoC5/Timer_Sonar.c ****         /* Write The New Setting */
 697:Generated_Source\PSoC5/Timer_Sonar.c ****         Timer_Sonar_CONTROL |= interruptCount;
 698:Generated_Source\PSoC5/Timer_Sonar.c ****     #endif /* (!Timer_Sonar_UDB_CONTROL_REG_REMOVED) */
 699:Generated_Source\PSoC5/Timer_Sonar.c **** }
 700:Generated_Source\PSoC5/Timer_Sonar.c **** #endif /* Timer_Sonar_InterruptOnCaptureCount */
 701:Generated_Source\PSoC5/Timer_Sonar.c **** 
 702:Generated_Source\PSoC5/Timer_Sonar.c **** 
 703:Generated_Source\PSoC5/Timer_Sonar.c **** #if (Timer_Sonar_UsingHWCaptureCounter)
 704:Generated_Source\PSoC5/Timer_Sonar.c **** 
 705:Generated_Source\PSoC5/Timer_Sonar.c **** 
 706:Generated_Source\PSoC5/Timer_Sonar.c **** /*******************************************************************************
 707:Generated_Source\PSoC5/Timer_Sonar.c **** * Function Name: Timer_Sonar_SetCaptureCount
 708:Generated_Source\PSoC5/Timer_Sonar.c **** ********************************************************************************
 709:Generated_Source\PSoC5/Timer_Sonar.c **** *
 710:Generated_Source\PSoC5/Timer_Sonar.c **** * Summary:
 711:Generated_Source\PSoC5/Timer_Sonar.c **** *  This function sets the capture count
 712:Generated_Source\PSoC5/Timer_Sonar.c **** *
 713:Generated_Source\PSoC5/Timer_Sonar.c **** * Parameters:
 714:Generated_Source\PSoC5/Timer_Sonar.c **** *  captureCount: A value between 2 and 127 inclusive is valid.  A value of 1
 715:Generated_Source\PSoC5/Timer_Sonar.c **** *                to 127 will cause the interrupt to delay by the same number of
 716:Generated_Source\PSoC5/Timer_Sonar.c **** *                captures.
 717:Generated_Source\PSoC5/Timer_Sonar.c **** *
 718:Generated_Source\PSoC5/Timer_Sonar.c **** * Return:
 719:Generated_Source\PSoC5/Timer_Sonar.c **** *  void
 720:Generated_Source\PSoC5/Timer_Sonar.c **** *
 721:Generated_Source\PSoC5/Timer_Sonar.c **** *******************************************************************************/
 722:Generated_Source\PSoC5/Timer_Sonar.c **** void Timer_Sonar_SetCaptureCount(uint8 captureCount) 
 723:Generated_Source\PSoC5/Timer_Sonar.c **** {
 724:Generated_Source\PSoC5/Timer_Sonar.c ****     Timer_Sonar_CAP_COUNT = captureCount;
 725:Generated_Source\PSoC5/Timer_Sonar.c **** }
 726:Generated_Source\PSoC5/Timer_Sonar.c **** 
 727:Generated_Source\PSoC5/Timer_Sonar.c **** 
 728:Generated_Source\PSoC5/Timer_Sonar.c **** /*******************************************************************************
 729:Generated_Source\PSoC5/Timer_Sonar.c **** * Function Name: Timer_Sonar_ReadCaptureCount
 730:Generated_Source\PSoC5/Timer_Sonar.c **** ********************************************************************************
 731:Generated_Source\PSoC5/Timer_Sonar.c **** *
 732:Generated_Source\PSoC5/Timer_Sonar.c **** * Summary:
 733:Generated_Source\PSoC5/Timer_Sonar.c **** *  This function reads the capture count setting
 734:Generated_Source\PSoC5/Timer_Sonar.c **** *
 735:Generated_Source\PSoC5/Timer_Sonar.c **** * Parameters:
 736:Generated_Source\PSoC5/Timer_Sonar.c **** *  void
ARM GAS  C:\Users\midtg\AppData\Local\Temp\cc7QPKKD.s 			page 20


 737:Generated_Source\PSoC5/Timer_Sonar.c **** *
 738:Generated_Source\PSoC5/Timer_Sonar.c **** * Return:
 739:Generated_Source\PSoC5/Timer_Sonar.c **** *  Returns the Capture Count Setting
 740:Generated_Source\PSoC5/Timer_Sonar.c **** *
 741:Generated_Source\PSoC5/Timer_Sonar.c **** *******************************************************************************/
 742:Generated_Source\PSoC5/Timer_Sonar.c **** uint8 Timer_Sonar_ReadCaptureCount(void) 
 743:Generated_Source\PSoC5/Timer_Sonar.c **** {
 744:Generated_Source\PSoC5/Timer_Sonar.c ****     return ((uint8)Timer_Sonar_CAP_COUNT);
 745:Generated_Source\PSoC5/Timer_Sonar.c **** }
 746:Generated_Source\PSoC5/Timer_Sonar.c **** #endif /* Timer_Sonar_UsingHWCaptureCounter */
 747:Generated_Source\PSoC5/Timer_Sonar.c **** 
 748:Generated_Source\PSoC5/Timer_Sonar.c **** 
 749:Generated_Source\PSoC5/Timer_Sonar.c **** /*******************************************************************************
 750:Generated_Source\PSoC5/Timer_Sonar.c **** * Function Name: Timer_Sonar_ClearFIFO
 751:Generated_Source\PSoC5/Timer_Sonar.c **** ********************************************************************************
 752:Generated_Source\PSoC5/Timer_Sonar.c **** *
 753:Generated_Source\PSoC5/Timer_Sonar.c **** * Summary:
 754:Generated_Source\PSoC5/Timer_Sonar.c **** *  This function clears all capture data from the capture FIFO
 755:Generated_Source\PSoC5/Timer_Sonar.c **** *
 756:Generated_Source\PSoC5/Timer_Sonar.c **** * Parameters:
 757:Generated_Source\PSoC5/Timer_Sonar.c **** *  void
 758:Generated_Source\PSoC5/Timer_Sonar.c **** *
 759:Generated_Source\PSoC5/Timer_Sonar.c **** * Return:
 760:Generated_Source\PSoC5/Timer_Sonar.c **** *  void
 761:Generated_Source\PSoC5/Timer_Sonar.c **** *
 762:Generated_Source\PSoC5/Timer_Sonar.c **** *******************************************************************************/
 763:Generated_Source\PSoC5/Timer_Sonar.c **** void Timer_Sonar_ClearFIFO(void) 
 764:Generated_Source\PSoC5/Timer_Sonar.c **** {
 348              		.loc 1 764 0
 349              		.cfi_startproc
 350              		@ args = 0, pretend = 0, frame = 0
 351              		@ frame_needed = 0, uses_anonymous_args = 0
 352 0000 08B5     		push	{r3, lr}
 353              		.cfi_def_cfa_offset 8
 354              		.cfi_offset 3, -8
 355              		.cfi_offset 14, -4
 765:Generated_Source\PSoC5/Timer_Sonar.c ****     while(0u != (Timer_Sonar_ReadStatusRegister() & Timer_Sonar_STATUS_FIFONEMP))
 356              		.loc 1 765 0
 357 0002 01E0     		b	.L40
 358              	.L41:
 766:Generated_Source\PSoC5/Timer_Sonar.c ****     {
 767:Generated_Source\PSoC5/Timer_Sonar.c ****         (void)Timer_Sonar_ReadCapture();
 359              		.loc 1 767 0
 360 0004 FFF7FEFF 		bl	Timer_Sonar_ReadCapture
 361              	.LVL8:
 362              	.L40:
 765:Generated_Source\PSoC5/Timer_Sonar.c ****     while(0u != (Timer_Sonar_ReadStatusRegister() & Timer_Sonar_STATUS_FIFONEMP))
 363              		.loc 1 765 0
 364 0008 FFF7FEFF 		bl	Timer_Sonar_ReadStatusRegister
 365              	.LVL9:
 366 000c 10F0080F 		tst	r0, #8
 367 0010 F8D1     		bne	.L41
 768:Generated_Source\PSoC5/Timer_Sonar.c ****     }
 769:Generated_Source\PSoC5/Timer_Sonar.c **** }
 368              		.loc 1 769 0
 369 0012 08BD     		pop	{r3, pc}
 370              		.cfi_endproc
ARM GAS  C:\Users\midtg\AppData\Local\Temp\cc7QPKKD.s 			page 21


 371              	.LFE14:
 372              		.size	Timer_Sonar_ClearFIFO, .-Timer_Sonar_ClearFIFO
 373              		.section	.text.Timer_Sonar_Init,"ax",%progbits
 374              		.align	2
 375              		.global	Timer_Sonar_Init
 376              		.thumb
 377              		.thumb_func
 378              		.type	Timer_Sonar_Init, %function
 379              	Timer_Sonar_Init:
 380              	.LFB0:
  44:Generated_Source\PSoC5/Timer_Sonar.c ****     #if(!Timer_Sonar_UsingFixedFunction)
 381              		.loc 1 44 0
 382              		.cfi_startproc
 383              		@ args = 0, pretend = 0, frame = 0
 384              		@ frame_needed = 0, uses_anonymous_args = 0
 385 0000 08B5     		push	{r3, lr}
 386              		.cfi_def_cfa_offset 8
 387              		.cfi_offset 3, -8
 388              		.cfi_offset 14, -4
 118:Generated_Source\PSoC5/Timer_Sonar.c ****     Timer_Sonar_WriteCounter(Timer_Sonar_INIT_PERIOD);
 389              		.loc 1 118 0
 390 0002 6FF07F40 		mvn	r0, #-16777216
 391 0006 FFF7FEFF 		bl	Timer_Sonar_WritePeriod
 392              	.LVL10:
 119:Generated_Source\PSoC5/Timer_Sonar.c **** 
 393              		.loc 1 119 0
 394 000a 6FF07F40 		mvn	r0, #-16777216
 395 000e FFF7FEFF 		bl	Timer_Sonar_WriteCounter
 396              	.LVL11:
 142:Generated_Source\PSoC5/Timer_Sonar.c **** 
 397              		.loc 1 142 0
 398 0012 FFF7FEFF 		bl	CyEnterCriticalSection
 399              	.LVL12:
 145:Generated_Source\PSoC5/Timer_Sonar.c **** 
 400              		.loc 1 145 0
 401 0016 064A     		ldr	r2, .L45
 402 0018 1378     		ldrb	r3, [r2]	@ zero_extendqisi2
 403 001a 43F01003 		orr	r3, r3, #16
 404 001e 1370     		strb	r3, [r2]
 148:Generated_Source\PSoC5/Timer_Sonar.c **** 
 405              		.loc 1 148 0
 406 0020 FFF7FEFF 		bl	CyExitCriticalSection
 407              	.LVL13:
 159:Generated_Source\PSoC5/Timer_Sonar.c ****     #endif /* Configure additional features of UDB implementation */
 408              		.loc 1 159 0
 409 0024 FFF7FEFF 		bl	Timer_Sonar_ClearFIFO
 410              	.LVL14:
 162:Generated_Source\PSoC5/Timer_Sonar.c **** }
 411              		.loc 1 162 0
 412 0028 0020     		movs	r0, #0
 413 002a FFF7FEFF 		bl	Timer_Sonar_SetInterruptMode
 414              	.LVL15:
 415 002e 08BD     		pop	{r3, pc}
 416              	.L46:
 417              		.align	2
 418              	.L45:
 419 0030 96650040 		.word	1073767830
ARM GAS  C:\Users\midtg\AppData\Local\Temp\cc7QPKKD.s 			page 22


 420              		.cfi_endproc
 421              	.LFE0:
 422              		.size	Timer_Sonar_Init, .-Timer_Sonar_Init
 423              		.section	.text.Timer_Sonar_Start,"ax",%progbits
 424              		.align	2
 425              		.global	Timer_Sonar_Start
 426              		.thumb
 427              		.thumb_func
 428              		.type	Timer_Sonar_Start, %function
 429              	Timer_Sonar_Start:
 430              	.LFB2:
 216:Generated_Source\PSoC5/Timer_Sonar.c ****     if(Timer_Sonar_initVar == 0u)
 431              		.loc 1 216 0
 432              		.cfi_startproc
 433              		@ args = 0, pretend = 0, frame = 0
 434              		@ frame_needed = 0, uses_anonymous_args = 0
 435 0000 08B5     		push	{r3, lr}
 436              		.cfi_def_cfa_offset 8
 437              		.cfi_offset 3, -8
 438              		.cfi_offset 14, -4
 217:Generated_Source\PSoC5/Timer_Sonar.c ****     {
 439              		.loc 1 217 0
 440 0002 054B     		ldr	r3, .L50
 441 0004 1B78     		ldrb	r3, [r3]	@ zero_extendqisi2
 442 0006 23B9     		cbnz	r3, .L48
 219:Generated_Source\PSoC5/Timer_Sonar.c **** 
 443              		.loc 1 219 0
 444 0008 FFF7FEFF 		bl	Timer_Sonar_Init
 445              	.LVL16:
 221:Generated_Source\PSoC5/Timer_Sonar.c ****     }
 446              		.loc 1 221 0
 447 000c 0122     		movs	r2, #1
 448 000e 024B     		ldr	r3, .L50
 449 0010 1A70     		strb	r2, [r3]
 450              	.L48:
 225:Generated_Source\PSoC5/Timer_Sonar.c **** }
 451              		.loc 1 225 0
 452 0012 FFF7FEFF 		bl	Timer_Sonar_Enable
 453              	.LVL17:
 454 0016 08BD     		pop	{r3, pc}
 455              	.L51:
 456              		.align	2
 457              	.L50:
 458 0018 00000000 		.word	.LANCHOR0
 459              		.cfi_endproc
 460              	.LFE2:
 461              		.size	Timer_Sonar_Start, .-Timer_Sonar_Start
 462              		.global	Timer_Sonar_initVar
 463              		.bss
 464              		.set	.LANCHOR0,. + 0
 465              		.type	Timer_Sonar_initVar, %object
 466              		.size	Timer_Sonar_initVar, 1
 467              	Timer_Sonar_initVar:
 468 0000 00       		.space	1
 469              		.text
 470              	.Letext0:
 471              		.file 2 "Generated_Source\\PSoC5\\cytypes.h"
ARM GAS  C:\Users\midtg\AppData\Local\Temp\cc7QPKKD.s 			page 23


 472              		.file 3 "Generated_Source\\PSoC5\\CyLib.h"